
CMakeFiles/tube-client.dir/jit.S.obj:     file format elf32-littlearm


Disassembly of section .text:

00000000 <opc_03>:
       0:	e59fc78c 	ldr	ip, [pc, #1932]	; 794 <B_NOP>
       4:	e586c000 	str	ip, [r6]
       8:	e586c004 	str	ip, [r6, #4]
       c:	ea000a8c 	b	2a44 <jitend1byte>

00000010 <opc_02>:
      10:	e3a0c4ea 	mov	ip, #-369098752	; 0xea000000
      14:	e38cc002 	orr	ip, ip, #2
      18:	e586c000 	str	ip, [r6]
      1c:	e59f0e7c 	ldr	r0, [pc, #3708]	; ea0 <Bopc_7F+0x18>
      20:	eb000aa8 	bl	2ac8 <MAKEBRANCHFILLINJITTEDTABLES>
      24:	e2822002 	add	r2, r2, #2
      28:	ea000950 	b	2570 <dojitloop>

0000002c <opc_5C>:
      2c:	e3a0c4ea 	mov	ip, #-369098752	; 0xea000000
      30:	e38cc004 	orr	ip, ip, #4
      34:	e586c000 	str	ip, [r6]
      38:	e59f0e60 	ldr	r0, [pc, #3680]	; ea0 <Bopc_7F+0x18>
      3c:	eb000aa1 	bl	2ac8 <MAKEBRANCHFILLINJITTEDTABLES>
      40:	e2822003 	add	r2, r2, #3
      44:	ea000949 	b	2570 <dojitloop>

00000048 <opc_10>:
      48:	e6af4074 	sxtb	r4, r4
      4c:	e59fc740 	ldr	ip, [pc, #1856]	; 794 <B_NOP>
      50:	e1a00084 	lsl	r0, r4, #1
      54:	e2800002 	add	r0, r0, #2
      58:	e3c004ff 	bic	r0, r0, #-16777216	; 0xff000000
      5c:	e380045a 	orr	r0, r0, #1509949440	; 0x5a000000
      60:	ea000a4e 	b	29a0 <branchsavewords>

00000064 <opc_30>:
      64:	e6af4074 	sxtb	r4, r4
      68:	e59fc724 	ldr	ip, [pc, #1828]	; 794 <B_NOP>
      6c:	e1a00084 	lsl	r0, r4, #1
      70:	e2800002 	add	r0, r0, #2
      74:	e3c004ff 	bic	r0, r0, #-16777216	; 0xff000000
      78:	e380044a 	orr	r0, r0, #1241513984	; 0x4a000000
      7c:	ea000a47 	b	29a0 <branchsavewords>

00000080 <opc_90>:
      80:	e6af4074 	sxtb	r4, r4
      84:	e59fc708 	ldr	ip, [pc, #1800]	; 794 <B_NOP>
      88:	e1a00084 	lsl	r0, r4, #1
      8c:	e2800002 	add	r0, r0, #2
      90:	e3c004ff 	bic	r0, r0, #-16777216	; 0xff000000
      94:	e380043a 	orr	r0, r0, #973078528	; 0x3a000000
      98:	ea000a40 	b	29a0 <branchsavewords>

0000009c <opc_B0>:
      9c:	e6af4074 	sxtb	r4, r4
      a0:	e59fc6ec 	ldr	ip, [pc, #1772]	; 794 <B_NOP>
      a4:	e1a00084 	lsl	r0, r4, #1
      a8:	e2800002 	add	r0, r0, #2
      ac:	e3c004ff 	bic	r0, r0, #-16777216	; 0xff000000
      b0:	e380042a 	orr	r0, r0, #704643072	; 0x2a000000
      b4:	ea000a39 	b	29a0 <branchsavewords>

000000b8 <opc_D0>:
      b8:	e6af4074 	sxtb	r4, r4
      bc:	e59fc6d0 	ldr	ip, [pc, #1744]	; 794 <B_NOP>
      c0:	e1a00084 	lsl	r0, r4, #1
      c4:	e2800002 	add	r0, r0, #2
      c8:	e3c004ff 	bic	r0, r0, #-16777216	; 0xff000000
      cc:	e380041a 	orr	r0, r0, #436207616	; 0x1a000000
      d0:	ea000a32 	b	29a0 <branchsavewords>

000000d4 <opc_F0>:
      d4:	e6af4074 	sxtb	r4, r4
      d8:	e59fc6b4 	ldr	ip, [pc, #1716]	; 794 <B_NOP>
      dc:	e1a00084 	lsl	r0, r4, #1
      e0:	e2800002 	add	r0, r0, #2
      e4:	e3c004ff 	bic	r0, r0, #-16777216	; 0xff000000
      e8:	e380040a 	orr	r0, r0, #167772160	; 0xa000000
      ec:	ea000a2b 	b	29a0 <branchsavewords>

000000f0 <opc_00>:
      f0:	e59fc69c 	ldr	ip, [pc, #1692]	; 794 <B_NOP>
      f4:	e59f0da8 	ldr	r0, [pc, #3496]	; ea4 <Bopc_7F+0x1c>
      f8:	ea000a49 	b	2a24 <singleopcodeexit>

000000fc <opc_01>:
      fc:	e28f1fc6 	add	r1, pc, #792	; 0x318
     100:	e8910f00 	ldm	r1, {r8, r9, sl, fp}
     104:	e59f0d9c 	ldr	r0, [pc, #3484]	; ea8 <Bopc_7F+0x20>
     108:	e1888004 	orr	r8, r8, r4
     10c:	e8860f00 	stm	r6, {r8, r9, sl, fp}
     110:	e2866008 	add	r6, r6, #8
     114:	eb000a7a 	bl	2b04 <MAKEBRANCHLINK>
     118:	ea00090f 	b	255c <jitend2byte>

0000011c <opc_04>:
     11c:	e28f1fc2 	add	r1, pc, #776	; 0x308
     120:	e8910700 	ldm	r1, {r8, r9, sl}
     124:	e59f0d80 	ldr	r0, [pc, #3456]	; eac <Bopc_7F+0x24>
     128:	e1888004 	orr	r8, r8, r4
     12c:	e8a60700 	stmia	r6!, {r8, r9, sl}
     130:	eb000a73 	bl	2b04 <MAKEBRANCHLINK>
     134:	ea000908 	b	255c <jitend2byte>

00000138 <opc_05>:
     138:	e28f1fbe 	add	r1, pc, #760	; 0x2f8
     13c:	e8910f00 	ldm	r1, {r8, r9, sl, fp}
     140:	ea000a76 	b	2b20 <fixuptype2accessstore4>

00000144 <opc_06>:
     144:	e28f1fbf 	add	r1, pc, #764	; 0x2fc
     148:	e8910f00 	ldm	r1, {r8, r9, sl, fp}
     14c:	e1888004 	orr	r8, r8, r4
     150:	e18aa004 	orr	sl, sl, r4
     154:	ea0008ff 	b	2558 <jitend2bytestore4>

00000158 <opc_07>:
     158:	e28f1fbe 	add	r1, pc, #760	; 0x2f8
     15c:	e8910f00 	ldm	r1, {r8, r9, sl, fp}
     160:	e1888004 	orr	r8, r8, r4
     164:	e18bb004 	orr	fp, fp, r4
     168:	ea0008fa 	b	2558 <jitend2bytestore4>

0000016c <opc_08>:
     16c:	e59fc2f4 	ldr	ip, [pc, #756]	; 468 <Bopc_08>
     170:	e59f0d38 	ldr	r0, [pc, #3384]	; eb0 <Bopc_7F+0x28>
     174:	ea000a30 	b	2a3c <singleopcodeend>

00000178 <opc_09>:
     178:	e28f1fbb 	add	r1, pc, #748	; 0x2ec
     17c:	e59f7d30 	ldr	r7, [pc, #3376]	; eb4 <Bopc_7F+0x2c>
     180:	e8910300 	ldm	r1, {r8, r9}
     184:	e7977104 	ldr	r7, [r7, r4, lsl #2]
     188:	e1c680f8 	strd	r8, [r6, #8]
     18c:	e8860180 	stm	r6, {r7, r8}
     190:	ea0008f1 	b	255c <jitend2byte>

00000194 <opc_0A>:
     194:	e59f82d8 	ldr	r8, [pc, #728]	; 474 <Bopc_0A>
     198:	e59f92d8 	ldr	r9, [pc, #728]	; 478 <Bopc_0A+0x4>
     19c:	e1c680f0 	strd	r8, [r6]
     1a0:	ea000a27 	b	2a44 <jitend1byte>

000001a4 <opc_0C>:
     1a4:	e28f1e2d 	add	r1, pc, #720	; 0x2d0
     1a8:	e8910f80 	ldm	r1, {r7, r8, r9, sl, fp}
     1ac:	e59f0d04 	ldr	r0, [pc, #3332]	; eb8 <Bopc_7F+0x30>
     1b0:	e1877005 	orr	r7, r7, r5
     1b4:	e1888004 	orr	r8, r8, r4
     1b8:	e8a60f80 	stmia	r6!, {r7, r8, r9, sl, fp}
     1bc:	eb000a50 	bl	2b04 <MAKEBRANCHLINK>
     1c0:	ea000a27 	b	2a64 <jitend3byte>

000001c4 <opc_0D>:
     1c4:	e28f1fb1 	add	r1, pc, #708	; 0x2c4
     1c8:	e8911f80 	ldm	r1, {r7, r8, r9, sl, fp, ip}
     1cc:	e1877005 	orr	r7, r7, r5
     1d0:	eb000a57 	bl	2b34 <fixuptype2accessquick>
     1d4:	ea000a21 	b	2a60 <jitend3bytestore>

000001d8 <opc_0E>:
     1d8:	e28f1fb2 	add	r1, pc, #712	; 0x2c8
     1dc:	ea000a1c 	b	2a54 <jitend3byteloadstoreoperand>

000001e0 <opc_0F>:
     1e0:	e59f0cd4 	ldr	r0, [pc, #3284]	; ebc <Bopc_7F+0x34>
     1e4:	e28f1fb5 	add	r1, pc, #724	; 0x2d4
     1e8:	ea000a25 	b	2a84 <jitend3byteexitBBRS>

000001ec <opc_11>:
     1ec:	e28f1fb9 	add	r1, pc, #740	; 0x2e4
     1f0:	e8910f00 	ldm	r1, {r8, r9, sl, fp}
     1f4:	ea000a49 	b	2b20 <fixuptype2accessstore4>

000001f8 <opc_12>:
     1f8:	e28f1fba 	add	r1, pc, #744	; 0x2e8
     1fc:	e8910f00 	ldm	r1, {r8, r9, sl, fp}
     200:	ea000a46 	b	2b20 <fixuptype2accessstore4>

00000204 <opc_14>:
     204:	e28f1e22 	add	r1, pc, #544	; 0x220
     208:	e8910700 	ldm	r1, {r8, r9, sl}
     20c:	e59f0cac 	ldr	r0, [pc, #3244]	; ec0 <Bopc_7F+0x38>
     210:	e1888004 	orr	r8, r8, r4
     214:	e8a60700 	stmia	r6!, {r8, r9, sl}
     218:	eb000a39 	bl	2b04 <MAKEBRANCHLINK>
     21c:	ea0008ce 	b	255c <jitend2byte>

00000220 <opc_15>:
     220:	e28f1e2d 	add	r1, pc, #720	; 0x2d0
     224:	ea0008c9 	b	2550 <doublebyteend>

00000228 <opc_16>:
     228:	e28f1fb6 	add	r1, pc, #728	; 0x2d8
     22c:	e8910700 	ldm	r1, {r8, r9, sl}
     230:	e59f0c8c 	ldr	r0, [pc, #3212]	; ec4 <Bopc_7F+0x3c>
     234:	e1888004 	orr	r8, r8, r4
     238:	e8a60700 	stmia	r6!, {r8, r9, sl}
     23c:	eb000a30 	bl	2b04 <MAKEBRANCHLINK>
     240:	ea0008c5 	b	255c <jitend2byte>

00000244 <opc_17>:
     244:	e28f1fb2 	add	r1, pc, #712	; 0x2c8
     248:	e8910f00 	ldm	r1, {r8, r9, sl, fp}
     24c:	e1888004 	orr	r8, r8, r4
     250:	e18bb004 	orr	fp, fp, r4
     254:	ea0008bf 	b	2558 <jitend2bytestore4>

00000258 <opc_18>:
     258:	e59f0c68 	ldr	r0, [pc, #3176]	; ec8 <Bopc_7F+0x40>
     25c:	e59fc530 	ldr	ip, [pc, #1328]	; 794 <B_NOP>
     260:	e0400006 	sub	r0, r0, r6
     264:	e1a00120 	lsr	r0, r0, #2
     268:	e380042b 	orr	r0, r0, #721420288	; 0x2b000000
     26c:	e5860000 	str	r0, [r6]
     270:	e586c004 	str	ip, [r6, #4]
     274:	ea0009f2 	b	2a44 <jitend1byte>

00000278 <opc_19>:
     278:	e28f1fa9 	add	r1, pc, #676	; 0x2a4
     27c:	ea0009f4 	b	2a54 <jitend3byteloadstoreoperand>

00000280 <opc_1A>:
     280:	e59fc2b4 	ldr	ip, [pc, #692]	; 53c <Bopc_1A>
     284:	e59f0c40 	ldr	r0, [pc, #3136]	; ecc <Bopc_7F+0x44>
     288:	ea0009eb 	b	2a3c <singleopcodeend>

0000028c <opc_1C>:
     28c:	e28f1f7a 	add	r1, pc, #488	; 0x1e8
     290:	e8910f80 	ldm	r1, {r7, r8, r9, sl, fp}
     294:	e59f0c34 	ldr	r0, [pc, #3124]	; ed0 <Bopc_7F+0x48>
     298:	e1877005 	orr	r7, r7, r5
     29c:	e1888004 	orr	r8, r8, r4
     2a0:	e8a60f80 	stmia	r6!, {r7, r8, r9, sl, fp}
     2a4:	eb000a16 	bl	2b04 <MAKEBRANCHLINK>
     2a8:	ea0009ed 	b	2a64 <jitend3byte>

000002ac <opc_1D>:
     2ac:	e28f1fa3 	add	r1, pc, #652	; 0x28c
     2b0:	ea0009e7 	b	2a54 <jitend3byteloadstoreoperand>

000002b4 <opc_1E>:
     2b4:	e28f1fa7 	add	r1, pc, #668	; 0x29c
     2b8:	ea0009e5 	b	2a54 <jitend3byteloadstoreoperand>

000002bc <opc_1F>:
     2bc:	e59f0bf8 	ldr	r0, [pc, #3064]	; ebc <Bopc_7F+0x34>
     2c0:	e28f1faa 	add	r1, pc, #680	; 0x2a8
     2c4:	ea0009ee 	b	2a84 <jitend3byteexitBBRS>

000002c8 <opc_20>:
     2c8:	e1d2c0b1 	ldrh	ip, [r2, #1]
     2cc:	e28f1fad 	add	r1, pc, #692	; 0x2b4
     2d0:	e8910f80 	ldm	r1, {r7, r8, r9, sl, fp}
     2d4:	e2820002 	add	r0, r2, #2
     2d8:	e20010ff 	and	r1, r0, #255	; 0xff
     2dc:	e1877420 	orr	r7, r7, r0, lsr #8
     2e0:	e1888001 	orr	r8, r8, r1
     2e4:	e8a60f80 	stmia	r6!, {r7, r8, r9, sl, fp}
     2e8:	eb0009fc 	bl	2ae0 <MAKEBRANCHTOJITLET>
     2ec:	ea0009ed 	b	2aa8 <jitend3byteexit>

000002f0 <opc_21>:
     2f0:	e28f1fa9 	add	r1, pc, #676	; 0x2a4
     2f4:	e8910f00 	ldm	r1, {r8, r9, sl, fp}
     2f8:	e59f0ba8 	ldr	r0, [pc, #2984]	; ea8 <Bopc_7F+0x20>
     2fc:	e1888004 	orr	r8, r8, r4
     300:	e8860f00 	stm	r6, {r8, r9, sl, fp}
     304:	e2866008 	add	r6, r6, #8
     308:	eb0009fd 	bl	2b04 <MAKEBRANCHLINK>
     30c:	ea000892 	b	255c <jitend2byte>

00000310 <opc_24>:
     310:	e28f1fa5 	add	r1, pc, #660	; 0x294
     314:	e8910700 	ldm	r1, {r8, r9, sl}
     318:	e59f0bb4 	ldr	r0, [pc, #2996]	; ed4 <Bopc_7F+0x4c>
     31c:	e1888004 	orr	r8, r8, r4
     320:	e8a60700 	stmia	r6!, {r8, r9, sl}
     324:	eb0009f6 	bl	2b04 <MAKEBRANCHLINK>
     328:	ea00088b 	b	255c <jitend2byte>

0000032c <opc_25>:
     32c:	e28f1fa1 	add	r1, pc, #644	; 0x284
     330:	e8910f00 	ldm	r1, {r8, r9, sl, fp}
     334:	ea0009f9 	b	2b20 <fixuptype2accessstore4>

00000338 <opc_26>:
     338:	e28f1fa2 	add	r1, pc, #648	; 0x288
     33c:	e8910f00 	ldm	r1, {r8, r9, sl, fp}
     340:	e1888004 	orr	r8, r8, r4
     344:	e18aa004 	orr	sl, sl, r4
     348:	ea000882 	b	2558 <jitend2bytestore4>

0000034c <opc_27>:
     34c:	e28f1fa1 	add	r1, pc, #644	; 0x284
     350:	e8910f00 	ldm	r1, {r8, r9, sl, fp}
     354:	e1888004 	orr	r8, r8, r4
     358:	e18bb004 	orr	fp, fp, r4
     35c:	ea00087d 	b	2558 <jitend2bytestore4>

00000360 <opc_28>:
     360:	e59fc280 	ldr	ip, [pc, #640]	; 5e8 <Bopc_28>
     364:	e59f0b6c 	ldr	r0, [pc, #2924]	; ed8 <Bopc_7F+0x50>
     368:	ea0009b3 	b	2a3c <singleopcodeend>

0000036c <opc_29>:
     36c:	e28f1f9e 	add	r1, pc, #632	; 0x278
     370:	e59f7b3c 	ldr	r7, [pc, #2876]	; eb4 <Bopc_7F+0x2c>
     374:	e8910300 	ldm	r1, {r8, r9}
     378:	e7977104 	ldr	r7, [r7, r4, lsl #2]
     37c:	e1c680f8 	strd	r8, [r6, #8]
     380:	e8860180 	stm	r6, {r7, r8}
     384:	ea000874 	b	255c <jitend2byte>

00000388 <opc_2A>:
     388:	e59fc264 	ldr	ip, [pc, #612]	; 5f4 <Bopc_2A>
     38c:	e59f0b48 	ldr	r0, [pc, #2888]	; edc <Bopc_7F+0x54>
     390:	ea0009a9 	b	2a3c <singleopcodeend>

00000394 <opc_2C>:
     394:	e1d200b1 	ldrh	r0, [r2, #1]
     398:	e3a0c0f7 	mov	ip, #247	; 0xf7
     39c:	e38ccc07 	orr	ip, ip, #1792	; 0x700
     3a0:	e15c02a0 	cmp	ip, r0, lsr #5
     3a4:	0a000009 	beq	3d0 <bitabsio>
     3a8:	e59f7248 	ldr	r7, [pc, #584]	; 5f8 <Bopc_2C>
     3ac:	e59f0b2c 	ldr	r0, [pc, #2860]	; ee0 <Bopc_7F+0x58>
     3b0:	e5867000 	str	r7, [r6]
     3b4:	e4c65004 	strb	r5, [r6], #4
     3b8:	e0800184 	add	r0, r0, r4, lsl #3
     3bc:	eb0009d0 	bl	2b04 <MAKEBRANCHLINK>
     3c0:	e59f0ad8 	ldr	r0, [pc, #2776]	; ea0 <Bopc_7F+0x18>
     3c4:	eb0009bf 	bl	2ac8 <MAKEBRANCHFILLINJITTEDTABLES>
     3c8:	e2822003 	add	r2, r2, #3
     3cc:	ea000867 	b	2570 <dojitloop>

000003d0 <bitabsio>:
     3d0:	e59f7224 	ldr	r7, [pc, #548]	; 5fc <Bopc_2C_io>
     3d4:	e59f0b08 	ldr	r0, [pc, #2824]	; ee4 <Bopc_7F+0x5c>
     3d8:	e1877004 	orr	r7, r7, r4
     3dc:	e4867004 	str	r7, [r6], #4
     3e0:	eb0009c7 	bl	2b04 <MAKEBRANCHLINK>
     3e4:	e59f0ab4 	ldr	r0, [pc, #2740]	; ea0 <Bopc_7F+0x18>
     3e8:	eb0009b6 	bl	2ac8 <MAKEBRANCHFILLINJITTEDTABLES>
     3ec:	e2822003 	add	r2, r2, #3
     3f0:	ea00085e 	b	2570 <dojitloop>

000003f4 <opc_2D>:
     3f4:	e28f1f81 	add	r1, pc, #516	; 0x204
     3f8:	e8911f80 	ldm	r1, {r7, r8, r9, sl, fp, ip}
     3fc:	e1877005 	orr	r7, r7, r5
     400:	eb0009cb 	bl	2b34 <fixuptype2accessquick>
     404:	ea000995 	b	2a60 <jitend3bytestore>

00000408 <opc_2E>:
     408:	e28f1f82 	add	r1, pc, #520	; 0x208
     40c:	ea000990 	b	2a54 <jitend3byteloadstoreoperand>

00000410 <opc_2F>:
     410:	e59f0aa4 	ldr	r0, [pc, #2724]	; ebc <Bopc_7F+0x34>
     414:	e28f1f85 	add	r1, pc, #532	; 0x214
     418:	ea000999 	b	2a84 <jitend3byteexitBBRS>

0000041c <Bopc_01>:
     41c:	e28b1400 	.word	0xe28b1400
     420:	e1a01c21 	lsr	r1, r1, #24
     424:	eb000000 	bl	42c <Bopc_04>
     428:	e19aa00c 	orrs	sl, sl, ip

0000042c <Bopc_04>:
     42c:	e3a01000 	mov	r1, #0
     430:	e5d1c000 	ldrb	ip, [r1]
     434:	e10f0000 	mrs	r0, CPSR

00000438 <Bopc_05>:
     438:	e1d6c0d0 	ldrsb	ip, [r6]
     43c:	e320f000 	nop	{0}
     440:	e320f000 	nop	{0}
     444:	e19aa00c 	orrs	sl, sl, ip

00000448 <Bopc_06>:
     448:	e5d6c000 	ldrb	ip, [r6]
     44c:	e08cc00c 	add	ip, ip, ip
     450:	e5c6c000 	strb	ip, [r6]
     454:	e1b0cc0c 	lsls	ip, ip, #24

00000458 <Bopc_07>:
     458:	e5d6c000 	ldrb	ip, [r6]
     45c:	e320f000 	nop	{0}
     460:	e3ccc001 	bic	ip, ip, #1
     464:	e5c6c000 	strb	ip, [r6]

00000468 <Bopc_08>:
     468:	e387c030 	orr	ip, r7, #48	; 0x30

0000046c <Bopc_09>:
     46c:	e320f000 	nop	{0}
     470:	e19aa00c 	orrs	sl, sl, ip

00000474 <Bopc_0A>:
     474:	e1b0ac8a 	lsls	sl, sl, #25
     478:	e6afac7a 	sxtb	sl, sl, ror #24

0000047c <Bopc_0C>:
     47c:	e3a01c00 	.word	0xe3a01c00
     480:	e5f1c000 	ldrb	ip, [r1, #0]!
     484:	e10f0000 	mrs	r0, CPSR
     488:	e3c00101 	bic	r0, r0, #1073741824	; 0x40000000
     48c:	e11c000a 	tst	ip, sl

00000490 <Bopc_0D>:
     490:	e3a01c00 	.word	0xe3a01c00
     494:	e1d1c0d0 	ldrsb	ip, [r1]
     498:	e320f000 	nop	{0}
     49c:	e320f000 	nop	{0}
     4a0:	e320f000 	nop	{0}
     4a4:	e19aa00c 	orrs	sl, sl, ip

000004a8 <Bopc_0E>:
     4a8:	e3a01c00 	.word	0xe3a01c00
     4ac:	e5f1c000 	ldrb	ip, [r1, #0]!
     4b0:	e320f000 	nop	{0}
     4b4:	e08cc00c 	add	ip, ip, ip
     4b8:	e5c1c000 	strb	ip, [r1]
     4bc:	e1b0cc0c 	lsls	ip, ip, #24

000004c0 <Bopc_0F>:
     4c0:	e5d6c000 	ldrb	ip, [r6]
     4c4:	e10f1000 	mrs	r1, CPSR
     4c8:	e31c0001 	tst	ip, #1
     4cc:	eb000000 	bl	4d4 <Bopc_0F+0x14>
     4d0:	ea000000 	b	4d8 <Bopc_11>
     4d4:	e128f001 	msr	CPSR_f, r1

000004d8 <Bopc_11>:
     4d8:	e1d6c0b0 	ldrh	ip, [r6]
     4dc:	e1a01c28 	lsr	r1, r8, #24
     4e0:	e19cc0d1 	ldrsb	ip, [ip, r1]
     4e4:	e19aa00c 	orrs	sl, sl, ip

000004e8 <Bopc_12>:
     4e8:	e1d6c0b0 	ldrh	ip, [r6]
     4ec:	e320f000 	nop	{0}
     4f0:	e1dcc0d0 	ldrsb	ip, [ip]
     4f4:	e19aa00c 	orrs	sl, sl, ip

000004f8 <Bopc_15>:
     4f8:	e28b1400 	.word	0xe28b1400
     4fc:	e1a01c21 	lsr	r1, r1, #24
     500:	e1d1c0d0 	ldrsb	ip, [r1]
     504:	e19aa00c 	orrs	sl, sl, ip

00000508 <Bopc_16>:
     508:	e28b1400 	.word	0xe28b1400
     50c:	e7d6cc21 	ldrb	ip, [r6, r1, lsr #24]
     510:	e1a01c21 	lsr	r1, r1, #24

00000514 <Bopc_17>:
     514:	e5d6c000 	ldrb	ip, [r6]
     518:	e320f000 	nop	{0}
     51c:	e3ccc002 	bic	ip, ip, #2
     520:	e5c6c000 	strb	ip, [r6]

00000524 <Bopc_19>:
     524:	e3a01c00 	.word	0xe3a01c00
     528:	e3811000 	orr	r1, r1, #0
     52c:	e1a0cc28 	lsr	ip, r8, #24
     530:	e191c0dc 	ldrsb	ip, [r1, ip]
     534:	e320f000 	nop	{0}
     538:	e19aa00c 	orrs	sl, sl, ip

0000053c <Bopc_1A>:
     53c:	e28aa001 	add	sl, sl, #1

00000540 <Bopc_1D>:
     540:	e3a01c00 	.word	0xe3a01c00
     544:	e3811000 	orr	r1, r1, #0
     548:	e1a0cc2b 	lsr	ip, fp, #24
     54c:	e191c0dc 	ldrsb	ip, [r1, ip]
     550:	e320f000 	nop	{0}
     554:	e19aa00c 	orrs	sl, sl, ip

00000558 <Bopc_1E>:
     558:	e3a01c00 	.word	0xe3a01c00
     55c:	e3811000 	orr	r1, r1, #0
     560:	e7f1cc2b 	ldrb	ip, [r1, fp, lsr #24]!
     564:	e08cc00c 	add	ip, ip, ip
     568:	e5c1c000 	strb	ip, [r1]
     56c:	e1b0cc0c 	lsls	ip, ip, #24

00000570 <Bopc_1F>:
     570:	e5d6c000 	ldrb	ip, [r6]
     574:	e10f1000 	mrs	r1, CPSR
     578:	e31c0002 	tst	ip, #2
     57c:	eb000000 	bl	584 <Bopc_1F+0x14>
     580:	ea000000 	b	588 <Bopc_20>
     584:	e128f001 	msr	CPSR_f, r1

00000588 <Bopc_20>:
     588:	e3a01c00 	.word	0xe3a01c00
     58c:	e3811000 	orr	r1, r1, #0
     590:	e2499002 	sub	r9, r9, #2
     594:	e1c910b1 	strh	r1, [r9, #1]
     598:	e3899c01 	orr	r9, r9, #256	; 0x100

0000059c <Bopc_21>:
     59c:	e28b1400 	.word	0xe28b1400
     5a0:	e1a01c21 	lsr	r1, r1, #24
     5a4:	eb000000 	bl	5ac <Bopc_24>
     5a8:	e01aa00c 	ands	sl, sl, ip

000005ac <Bopc_24>:
     5ac:	e5d6c000 	ldrb	ip, [r6]
     5b0:	e3c77040 	bic	r7, r7, #64	; 0x40
     5b4:	e11c000a 	tst	ip, sl

000005b8 <Bopc_25>:
     5b8:	e1d6c0d0 	ldrsb	ip, [r6]
     5bc:	e320f000 	nop	{0}
     5c0:	e320f000 	nop	{0}
     5c4:	e01aa00c 	ands	sl, sl, ip

000005c8 <Bopc_26>:
     5c8:	e5d6c000 	ldrb	ip, [r6]
     5cc:	e0acc00c 	adc	ip, ip, ip
     5d0:	e5c6c000 	strb	ip, [r6]
     5d4:	e1b0cc0c 	lsls	ip, ip, #24

000005d8 <Bopc_27>:
     5d8:	e5d6c000 	ldrb	ip, [r6]
     5dc:	e320f000 	nop	{0}
     5e0:	e3ccc004 	bic	ip, ip, #4
     5e4:	e5c6c000 	strb	ip, [r6]

000005e8 <Bopc_28>:
     5e8:	e3a0c001 	mov	ip, #1

000005ec <Bopc_29>:
     5ec:	e320f000 	nop	{0}
     5f0:	e01aa00c 	ands	sl, sl, ip

000005f4 <Bopc_2A>:
     5f4:	e0aaa00a 	adc	sl, sl, sl

000005f8 <Bopc_2C>:
     5f8:	e3a01c00 	.word	0xe3a01c00

000005fc <Bopc_2C_io>:
     5fc:	e3a00000 	mov	r0, #0

00000600 <Bopc_2D>:
     600:	e3a01c00 	.word	0xe3a01c00
     604:	e1d1c0d0 	ldrsb	ip, [r1]
     608:	e320f000 	nop	{0}
     60c:	e320f000 	nop	{0}
     610:	e320f000 	nop	{0}
     614:	e01aa00c 	ands	sl, sl, ip

00000618 <Bopc_2E>:
     618:	e3a01c00 	.word	0xe3a01c00
     61c:	e5f1c000 	ldrb	ip, [r1, #0]!
     620:	e320f000 	nop	{0}
     624:	e0acc00c 	adc	ip, ip, ip
     628:	e5c1c000 	strb	ip, [r1]
     62c:	e1b0cc0c 	lsls	ip, ip, #24

00000630 <Bopc_2F>:
     630:	e5d6c000 	ldrb	ip, [r6]
     634:	e10f1000 	mrs	r1, CPSR
     638:	e31c0004 	tst	ip, #4
     63c:	eb000000 	bl	644 <Bopc_2F+0x14>
     640:	ea000000 	b	648 <Bopc_31>
     644:	e128f001 	msr	CPSR_f, r1

00000648 <Bopc_31>:
     648:	e1d6c0b0 	ldrh	ip, [r6]
     64c:	e1a01c28 	lsr	r1, r8, #24
     650:	e19cc0d1 	ldrsb	ip, [ip, r1]
     654:	e01aa00c 	ands	sl, sl, ip

00000658 <Bopc_32>:
     658:	e1d6c0b0 	ldrh	ip, [r6]
     65c:	e320f000 	nop	{0}
     660:	e1dcc0d0 	ldrsb	ip, [ip]
     664:	e01aa00c 	ands	sl, sl, ip

00000668 <Bopc_34>:
     668:	e28b1400 	.word	0xe28b1400
     66c:	e7d6cc21 	ldrb	ip, [r6, r1, lsr #24]
     670:	e3c77040 	bic	r7, r7, #64	; 0x40

00000674 <Bopc_35>:
     674:	e28b1400 	.word	0xe28b1400
     678:	e1a01c21 	lsr	r1, r1, #24
     67c:	e1d1c0d0 	ldrsb	ip, [r1]
     680:	e01aa00c 	ands	sl, sl, ip

00000684 <Bopc_36>:
     684:	e28b1400 	.word	0xe28b1400
     688:	e1a01c21 	lsr	r1, r1, #24
     68c:	e5d1c000 	ldrb	ip, [r1]

00000690 <Bopc_37>:
     690:	e5d6c000 	ldrb	ip, [r6]
     694:	e320f000 	nop	{0}
     698:	e3ccc008 	bic	ip, ip, #8
     69c:	e5c6c000 	strb	ip, [r6]

000006a0 <Bopc_39>:
     6a0:	e3a01c00 	.word	0xe3a01c00
     6a4:	e3811000 	orr	r1, r1, #0
     6a8:	e1a0cc28 	lsr	ip, r8, #24
     6ac:	e191c0dc 	ldrsb	ip, [r1, ip]
     6b0:	e320f000 	nop	{0}
     6b4:	e01aa00c 	ands	sl, sl, ip

000006b8 <Bopc_3A>:
     6b8:	e24aa001 	sub	sl, sl, #1

000006bc <Bopc_3C>:
     6bc:	e3a01c00 	.word	0xe3a01c00
     6c0:	e3811000 	orr	r1, r1, #0
     6c4:	e7d1cc2b 	ldrb	ip, [r1, fp, lsr #24]
     6c8:	e3c77040 	bic	r7, r7, #64	; 0x40
     6cc:	e11c000a 	tst	ip, sl

000006d0 <Bopc_3D>:
     6d0:	e3a01c00 	.word	0xe3a01c00
     6d4:	e3811000 	orr	r1, r1, #0
     6d8:	e1a0cc2b 	lsr	ip, fp, #24
     6dc:	e191c0dc 	ldrsb	ip, [r1, ip]
     6e0:	e320f000 	nop	{0}
     6e4:	e01aa00c 	ands	sl, sl, ip

000006e8 <Bopc_3E>:
     6e8:	e3a01c00 	.word	0xe3a01c00
     6ec:	e3811000 	orr	r1, r1, #0
     6f0:	e7f1cc2b 	ldrb	ip, [r1, fp, lsr #24]!
     6f4:	e0acc00c 	adc	ip, ip, ip
     6f8:	e5c1c000 	strb	ip, [r1]
     6fc:	e1b0cc0c 	lsls	ip, ip, #24

00000700 <Bopc_3F>:
     700:	e5d6c000 	ldrb	ip, [r6]
     704:	e10f1000 	mrs	r1, CPSR
     708:	e31c0008 	tst	ip, #8
     70c:	eb000000 	bl	714 <Bopc_3F+0x14>
     710:	ea000000 	b	718 <Bopc_41>
     714:	e128f001 	msr	CPSR_f, r1

00000718 <Bopc_41>:
     718:	e28b1400 	.word	0xe28b1400
     71c:	e1a01c21 	lsr	r1, r1, #24
     720:	eb000000 	bl	728 <Bopc_45>
     724:	e03aa00c 	eors	sl, sl, ip

00000728 <Bopc_45>:
     728:	e1d6c0d0 	ldrsb	ip, [r6]
     72c:	e320f000 	nop	{0}
     730:	e320f000 	nop	{0}
     734:	e03aa00c 	eors	sl, sl, ip

00000738 <Bopc_46>:
     738:	e5d6c000 	ldrb	ip, [r6]
     73c:	e320f000 	nop	{0}
     740:	e1b0c0ac 	lsrs	ip, ip, #1
     744:	e5c6c000 	strb	ip, [r6]

00000748 <Bopc_47>:
     748:	e5d6c000 	ldrb	ip, [r6]
     74c:	e320f000 	nop	{0}
     750:	e3ccc010 	bic	ip, ip, #16
     754:	e5c6c000 	strb	ip, [r6]

00000758 <Bopc_48>:
     758:	e449a001 	strb	sl, [r9], #-1
     75c:	e3899c01 	orr	r9, r9, #256	; 0x100

00000760 <Bopc_49>:
     760:	e320f000 	nop	{0}
     764:	e03aa00c 	eors	sl, sl, ip

00000768 <Bopc_4A>:
     768:	e1b0a0aa 	lsrs	sl, sl, #1
     76c:	e20aa07f 	and	sl, sl, #127	; 0x7f

00000770 <Bopc_4D>:
     770:	e3a01c00 	.word	0xe3a01c00
     774:	e1d1c0d0 	ldrsb	ip, [r1]
     778:	e320f000 	nop	{0}
     77c:	e320f000 	nop	{0}
     780:	e320f000 	nop	{0}
     784:	e03aa00c 	eors	sl, sl, ip

00000788 <Bopc_4E>:
     788:	e3a01c00 	.word	0xe3a01c00
     78c:	e5f1c000 	ldrb	ip, [r1, #0]!
     790:	e320f000 	nop	{0}

00000794 <B_NOP>:
     794:	e320f000 	nop	{0}
     798:	e1b0c0ac 	lsrs	ip, ip, #1
     79c:	e5c1c000 	strb	ip, [r1]

000007a0 <Bopc_4F>:
     7a0:	e5d6c000 	ldrb	ip, [r6]
     7a4:	e10f1000 	mrs	r1, CPSR
     7a8:	e31c0010 	tst	ip, #16
     7ac:	eb000000 	bl	7b4 <Bopc_4F+0x14>
     7b0:	ea000000 	b	7b8 <Bopc_50>
     7b4:	e128f001 	msr	CPSR_f, r1

000007b8 <Bopc_50>:
     7b8:	e128f001 	msr	CPSR_f, r1

000007bc <Bopc_51>:
     7bc:	e1d6c0b0 	ldrh	ip, [r6]
     7c0:	e1a01c28 	lsr	r1, r8, #24
     7c4:	e19cc0d1 	ldrsb	ip, [ip, r1]
     7c8:	e03aa00c 	eors	sl, sl, ip

000007cc <Bopc_52>:
     7cc:	e1d6c0b0 	ldrh	ip, [r6]
     7d0:	e320f000 	nop	{0}
     7d4:	e1dcc0d0 	ldrsb	ip, [ip]
     7d8:	e03aa00c 	eors	sl, sl, ip

000007dc <Bopc_55>:
     7dc:	e28b1400 	.word	0xe28b1400
     7e0:	e1a01c21 	lsr	r1, r1, #24
     7e4:	e1d1c0d0 	ldrsb	ip, [r1]
     7e8:	e03aa00c 	eors	sl, sl, ip

000007ec <Bopc_56>:
     7ec:	e28b1400 	.word	0xe28b1400
     7f0:	e7d6cc21 	ldrb	ip, [r6, r1, lsr #24]
     7f4:	e1b0c0ac 	lsrs	ip, ip, #1
     7f8:	e7c6cc21 	strb	ip, [r6, r1, lsr #24]

000007fc <Bopc_57>:
     7fc:	e5d6c000 	ldrb	ip, [r6]
     800:	e320f000 	nop	{0}
     804:	e3ccc020 	bic	ip, ip, #32
     808:	e5c6c000 	strb	ip, [r6]

0000080c <Bopc_58>:
     80c:	e3c77004 	bic	r7, r7, #4

00000810 <Bopc_59>:
     810:	e3a01c00 	.word	0xe3a01c00
     814:	e3811000 	orr	r1, r1, #0
     818:	e1a0cc28 	lsr	ip, r8, #24
     81c:	e191c0dc 	ldrsb	ip, [r1, ip]
     820:	e320f000 	nop	{0}
     824:	e03aa00c 	eors	sl, sl, ip

00000828 <Bopc_5A>:
     828:	e1a0cc28 	lsr	ip, r8, #24

0000082c <Bopc_5D>:
     82c:	e3a01c00 	.word	0xe3a01c00
     830:	e3811000 	orr	r1, r1, #0
     834:	e1a0cc2b 	lsr	ip, fp, #24
     838:	e191c0dc 	ldrsb	ip, [r1, ip]
     83c:	e320f000 	nop	{0}
     840:	e03aa00c 	eors	sl, sl, ip

00000844 <Bopc_5E>:
     844:	e3a01c00 	.word	0xe3a01c00
     848:	e3811000 	orr	r1, r1, #0
     84c:	e7f1cc2b 	ldrb	ip, [r1, fp, lsr #24]!
     850:	e320f000 	nop	{0}
     854:	e1b0c0ac 	lsrs	ip, ip, #1
     858:	e5c1c000 	strb	ip, [r1]

0000085c <Bopc_5F>:
     85c:	e5d6c000 	ldrb	ip, [r6]
     860:	e10f1000 	mrs	r1, CPSR
     864:	e31c0020 	tst	ip, #32
     868:	eb000000 	bl	870 <Bopc_5F+0x14>
     86c:	ea000000 	b	874 <opc_31>
     870:	e128f001 	msr	CPSR_f, r1

00000874 <opc_31>:
     874:	e24f1f8d 	sub	r1, pc, #564	; 0x234
     878:	e8910f00 	ldm	r1, {r8, r9, sl, fp}
     87c:	ea0008a7 	b	2b20 <fixuptype2accessstore4>

00000880 <opc_32>:
     880:	e24f1e23 	sub	r1, pc, #560	; 0x230
     884:	e8910f00 	ldm	r1, {r8, r9, sl, fp}
     888:	ea0008a4 	b	2b20 <fixuptype2accessstore4>

0000088c <opc_34>:
     88c:	e24f1f8b 	sub	r1, pc, #556	; 0x22c
     890:	e8910700 	ldm	r1, {r8, r9, sl}
     894:	e59f064c 	ldr	r0, [pc, #1612]	; ee8 <Bopc_7F+0x60>
     898:	e1888004 	orr	r8, r8, r4
     89c:	e8a60700 	stmia	r6!, {r8, r9, sl}
     8a0:	eb000897 	bl	2b04 <MAKEBRANCHLINK>
     8a4:	ea00072c 	b	255c <jitend2byte>

000008a8 <opc_35>:
     8a8:	e24f1f8f 	sub	r1, pc, #572	; 0x23c
     8ac:	ea000727 	b	2550 <doublebyteend>

000008b0 <opc_36>:
     8b0:	e24f1f8d 	sub	r1, pc, #564	; 0x234
     8b4:	e8910700 	ldm	r1, {r8, r9, sl}
     8b8:	e59f062c 	ldr	r0, [pc, #1580]	; eec <Bopc_7F+0x64>
     8bc:	e1888004 	orr	r8, r8, r4
     8c0:	e8a60700 	stmia	r6!, {r8, r9, sl}
     8c4:	eb00088e 	bl	2b04 <MAKEBRANCHLINK>
     8c8:	ea000723 	b	255c <jitend2byte>

000008cc <opc_37>:
     8cc:	e24f1f91 	sub	r1, pc, #580	; 0x244
     8d0:	e8910f00 	ldm	r1, {r8, r9, sl, fp}
     8d4:	e1888004 	orr	r8, r8, r4
     8d8:	e18bb004 	orr	fp, fp, r4
     8dc:	ea00071d 	b	2558 <jitend2bytestore4>

000008e0 <opc_38>:
     8e0:	e59f05e0 	ldr	r0, [pc, #1504]	; ec8 <Bopc_7F+0x40>
     8e4:	e51fc158 	ldr	ip, [pc, #-344]	; 794 <B_NOP>
     8e8:	e0400006 	sub	r0, r0, r6
     8ec:	e1a00120 	lsr	r0, r0, #2
     8f0:	e380043b 	orr	r0, r0, #989855744	; 0x3b000000
     8f4:	e5860000 	str	r0, [r6]
     8f8:	e586c004 	str	ip, [r6, #4]
     8fc:	ea000850 	b	2a44 <jitend1byte>

00000900 <opc_39>:
     900:	e24f1f9a 	sub	r1, pc, #616	; 0x268
     904:	ea000852 	b	2a54 <jitend3byteloadstoreoperand>

00000908 <opc_3A>:
     908:	e51fc258 	ldr	ip, [pc, #-600]	; 6b8 <Bopc_3A>
     90c:	e59f05b8 	ldr	r0, [pc, #1464]	; ecc <Bopc_7F+0x44>
     910:	ea000849 	b	2a3c <singleopcodeend>

00000914 <opc_3C>:
     914:	e24f1e26 	sub	r1, pc, #608	; 0x260
     918:	e8910f80 	ldm	r1, {r7, r8, r9, sl, fp}
     91c:	e59f05b0 	ldr	r0, [pc, #1456]	; ed4 <Bopc_7F+0x4c>
     920:	e1877005 	orr	r7, r7, r5
     924:	e1888004 	orr	r8, r8, r4
     928:	e8a60f80 	stmia	r6!, {r7, r8, r9, sl, fp}
     92c:	eb000874 	bl	2b04 <MAKEBRANCHLINK>
     930:	ea00084b 	b	2a64 <jitend3byte>

00000934 <opc_3D>:
     934:	e24f1f9b 	sub	r1, pc, #620	; 0x26c
     938:	ea000845 	b	2a54 <jitend3byteloadstoreoperand>

0000093c <opc_3E>:
     93c:	e24f1f97 	sub	r1, pc, #604	; 0x25c
     940:	ea000843 	b	2a54 <jitend3byteloadstoreoperand>

00000944 <opc_3F>:
     944:	e59f0570 	ldr	r0, [pc, #1392]	; ebc <Bopc_7F+0x34>
     948:	e24f1e25 	sub	r1, pc, #592	; 0x250
     94c:	ea00084c 	b	2a84 <jitend3byteexitBBRS>

00000950 <opc_40>:
     950:	e51fc1c4 	ldr	ip, [pc, #-452]	; 794 <B_NOP>
     954:	e59f0594 	ldr	r0, [pc, #1428]	; ef0 <Bopc_7F+0x68>
     958:	ea000831 	b	2a24 <singleopcodeexit>

0000095c <opc_41>:
     95c:	e24f1f93 	sub	r1, pc, #588	; 0x24c
     960:	e8910f00 	ldm	r1, {r8, r9, sl, fp}
     964:	e59f053c 	ldr	r0, [pc, #1340]	; ea8 <Bopc_7F+0x20>
     968:	e1888004 	orr	r8, r8, r4
     96c:	e8860f00 	stm	r6, {r8, r9, sl, fp}
     970:	e2866008 	add	r6, r6, #8
     974:	eb000862 	bl	2b04 <MAKEBRANCHLINK>
     978:	ea0006f7 	b	255c <jitend2byte>

0000097c <opc_45>:
     97c:	e24f1f97 	sub	r1, pc, #604	; 0x25c
     980:	e8910f00 	ldm	r1, {r8, r9, sl, fp}
     984:	ea000865 	b	2b20 <fixuptype2accessstore4>

00000988 <opc_46>:
     988:	e24f1f96 	sub	r1, pc, #600	; 0x258
     98c:	e8910f00 	ldm	r1, {r8, r9, sl, fp}
     990:	e1888004 	orr	r8, r8, r4
     994:	e18bb004 	orr	fp, fp, r4
     998:	ea0006ee 	b	2558 <jitend2bytestore4>

0000099c <opc_47>:
     99c:	e24f1f97 	sub	r1, pc, #604	; 0x25c
     9a0:	e8910f00 	ldm	r1, {r8, r9, sl, fp}
     9a4:	e1888004 	orr	r8, r8, r4
     9a8:	e18bb004 	orr	fp, fp, r4
     9ac:	ea0006e9 	b	2558 <jitend2bytestore4>

000009b0 <opc_48>:
     9b0:	e51f8260 	ldr	r8, [pc, #-608]	; 758 <Bopc_48>
     9b4:	e51f9260 	ldr	r9, [pc, #-608]	; 75c <Bopc_48+0x4>
     9b8:	e1c680f0 	strd	r8, [r6]
     9bc:	ea000820 	b	2a44 <jitend1byte>

000009c0 <opc_49>:
     9c0:	e24f1f9a 	sub	r1, pc, #616	; 0x268
     9c4:	e59f74e8 	ldr	r7, [pc, #1256]	; eb4 <Bopc_7F+0x2c>
     9c8:	e8910300 	ldm	r1, {r8, r9}
     9cc:	e7977104 	ldr	r7, [r7, r4, lsl #2]
     9d0:	e1c680f8 	strd	r8, [r6, #8]
     9d4:	e8860180 	stm	r6, {r7, r8}
     9d8:	ea0006df 	b	255c <jitend2byte>

000009dc <opc_4A>:
     9dc:	e51f827c 	ldr	r8, [pc, #-636]	; 768 <Bopc_4A>
     9e0:	e51f927c 	ldr	r9, [pc, #-636]	; 76c <Bopc_4A+0x4>
     9e4:	e1c680f0 	strd	r8, [r6]
     9e8:	ea000815 	b	2a44 <jitend1byte>

000009ec <opc_4C>:
     9ec:	e1d2c0b1 	ldrh	ip, [r2, #1]
     9f0:	eb00083a 	bl	2ae0 <MAKEBRANCHTOJITLET>
     9f4:	ea00082b 	b	2aa8 <jitend3byteexit>

000009f8 <opc_4D>:
     9f8:	e24f1e29 	sub	r1, pc, #656	; 0x290
     9fc:	e8911f80 	ldm	r1, {r7, r8, r9, sl, fp, ip}
     a00:	e1877005 	orr	r7, r7, r5
     a04:	eb00084a 	bl	2b34 <fixuptype2accessquick>
     a08:	ea000814 	b	2a60 <jitend3bytestore>

00000a0c <opc_4E>:
     a0c:	e24f1fa3 	sub	r1, pc, #652	; 0x28c
     a10:	ea00080f 	b	2a54 <jitend3byteloadstoreoperand>

00000a14 <opc_4F>:
     a14:	e59f04a0 	ldr	r0, [pc, #1184]	; ebc <Bopc_7F+0x34>
     a18:	e24f1d0a 	sub	r1, pc, #640	; 0x280
     a1c:	ea000818 	b	2a84 <jitend3byteexitBBRS>

00000a20 <opc_50>:
     a20:	e59f04cc 	ldr	r0, [pc, #1228]	; ef4 <Bopc_7F+0x6c>
     a24:	e51f9274 	ldr	r9, [pc, #-628]	; 7b8 <Bopc_50>
     a28:	e6af4074 	sxtb	r4, r4
     a2c:	eb000834 	bl	2b04 <MAKEBRANCHLINK>
     a30:	e1a00084 	lsl	r0, r4, #1
     a34:	e5869004 	str	r9, [r6, #4]
     a38:	e3c004ff 	bic	r0, r0, #-16777216	; 0xff000000
     a3c:	e586900c 	str	r9, [r6, #12]
     a40:	e38004ea 	orr	r0, r0, #-369098752	; 0xea000000
     a44:	e5860008 	str	r0, [r6, #8]
     a48:	ea0007d8 	b	29b0 <jitend2byteexit>

00000a4c <opc_51>:
     a4c:	e24f1fa6 	sub	r1, pc, #664	; 0x298
     a50:	e8910f00 	ldm	r1, {r8, r9, sl, fp}
     a54:	ea000831 	b	2b20 <fixuptype2accessstore4>

00000a58 <opc_52>:
     a58:	e24f1fa5 	sub	r1, pc, #660	; 0x294
     a5c:	e8910f00 	ldm	r1, {r8, r9, sl, fp}
     a60:	ea00082e 	b	2b20 <fixuptype2accessstore4>

00000a64 <opc_55>:
     a64:	e24f1e29 	sub	r1, pc, #656	; 0x290
     a68:	ea0006b8 	b	2550 <doublebyteend>

00000a6c <opc_56>:
     a6c:	e24f1fa2 	sub	r1, pc, #648	; 0x288
     a70:	ea0006b6 	b	2550 <doublebyteend>

00000a74 <opc_57>:
     a74:	e24f1d0a 	sub	r1, pc, #640	; 0x280
     a78:	e8910f00 	ldm	r1, {r8, r9, sl, fp}
     a7c:	e1888004 	orr	r8, r8, r4
     a80:	e18bb004 	orr	fp, fp, r4
     a84:	ea0006b3 	b	2558 <jitend2bytestore4>

00000a88 <opc_58>:
     a88:	e51fc284 	ldr	ip, [pc, #-644]	; 80c <Bopc_58>
     a8c:	e59f0464 	ldr	r0, [pc, #1124]	; ef8 <Bopc_7F+0x70>
     a90:	ea0007e9 	b	2a3c <singleopcodeend>

00000a94 <opc_59>:
     a94:	e24f1fa3 	sub	r1, pc, #652	; 0x28c
     a98:	ea0007ed 	b	2a54 <jitend3byteloadstoreoperand>

00000a9c <opc_5A>:
     a9c:	e51fc27c 	ldr	ip, [pc, #-636]	; 828 <Bopc_5A>
     aa0:	e59f0454 	ldr	r0, [pc, #1108]	; efc <Bopc_7F+0x74>
     aa4:	ea0007e4 	b	2a3c <singleopcodeend>

00000aa8 <opc_5D>:
     aa8:	e24f1fa1 	sub	r1, pc, #644	; 0x284
     aac:	ea0007e8 	b	2a54 <jitend3byteloadstoreoperand>

00000ab0 <opc_5E>:
     ab0:	e24f1f9d 	sub	r1, pc, #628	; 0x274
     ab4:	ea0007e6 	b	2a54 <jitend3byteloadstoreoperand>

00000ab8 <opc_5F>:
     ab8:	e59f03fc 	ldr	r0, [pc, #1020]	; ebc <Bopc_7F+0x34>
     abc:	e24f1f9a 	sub	r1, pc, #616	; 0x268
     ac0:	ea0007ef 	b	2a84 <jitend3byteexitBBRS>

00000ac4 <opc_60>:
     ac4:	e59fc250 	ldr	ip, [pc, #592]	; d1c <Bopc_60>
     ac8:	e59f0430 	ldr	r0, [pc, #1072]	; f00 <Bopc_7F+0x78>
     acc:	e486c004 	str	ip, [r6], #4
     ad0:	eb000804 	bl	2ae8 <MAKEBRANCH>
     ad4:	ea0007d4 	b	2a2c <jitend1byteexit>

00000ad8 <opc_61>:
     ad8:	e28f1d09 	add	r1, pc, #576	; 0x240
     adc:	e8910700 	ldm	r1, {r8, r9, sl}
     ae0:	e59f041c 	ldr	r0, [pc, #1052]	; f04 <Bopc_7F+0x7c>
     ae4:	e1888004 	orr	r8, r8, r4
     ae8:	e8a60700 	stmia	r6!, {r8, r9, sl}
     aec:	eb000804 	bl	2b04 <MAKEBRANCHLINK>
     af0:	ea000699 	b	255c <jitend2byte>

00000af4 <opc_64>:
     af4:	e28f1e23 	add	r1, pc, #560	; 0x230
     af8:	e8910700 	ldm	r1, {r8, r9, sl}
     afc:	e1a00104 	lsl	r0, r4, #2
     b00:	e28006d1 	add	r0, r0, #219152384	; 0xd100000
     b04:	e1888004 	orr	r8, r8, r4
     b08:	e1899004 	orr	r9, r9, r4
     b0c:	e8a60700 	stmia	r6!, {r8, r9, sl}
     b10:	eb0007fb 	bl	2b04 <MAKEBRANCHLINK>
     b14:	ea000690 	b	255c <jitend2byte>

00000b18 <opc_65>:
     b18:	e28f1f86 	add	r1, pc, #536	; 0x218
     b1c:	e8910700 	ldm	r1, {r8, r9, sl}
     b20:	e59f03e0 	ldr	r0, [pc, #992]	; f08 <Bopc_7F+0x80>
     b24:	e1888004 	orr	r8, r8, r4
     b28:	e8a60700 	stmia	r6!, {r8, r9, sl}
     b2c:	eb0007f4 	bl	2b04 <MAKEBRANCHLINK>
     b30:	ea000689 	b	255c <jitend2byte>

00000b34 <opc_66>:
     b34:	e28f1f82 	add	r1, pc, #520	; 0x208
     b38:	e8910f00 	ldm	r1, {r8, r9, sl, fp}
     b3c:	e1888004 	orr	r8, r8, r4
     b40:	e18bb004 	orr	fp, fp, r4
     b44:	ea000683 	b	2558 <jitend2bytestore4>

00000b48 <opc_67>:
     b48:	e28f1f81 	add	r1, pc, #516	; 0x204
     b4c:	e8910f00 	ldm	r1, {r8, r9, sl, fp}
     b50:	e1888004 	orr	r8, r8, r4
     b54:	e18bb004 	orr	fp, fp, r4
     b58:	ea00067e 	b	2558 <jitend2bytestore4>

00000b5c <opc_68>:
     b5c:	e59fc200 	ldr	ip, [pc, #512]	; d64 <Bopc_68>
     b60:	e59f03a4 	ldr	r0, [pc, #932]	; f0c <Bopc_7F+0x84>
     b64:	ea0007b4 	b	2a3c <singleopcodeend>

00000b68 <opc_69>:
     b68:	e28f1f7e 	add	r1, pc, #504	; 0x1f8
     b6c:	e8910700 	ldm	r1, {r8, r9, sl}
     b70:	e59f0390 	ldr	r0, [pc, #912]	; f08 <Bopc_7F+0x80>
     b74:	e1888004 	orr	r8, r8, r4
     b78:	e8a60700 	stmia	r6!, {r8, r9, sl}
     b7c:	eb0007e0 	bl	2b04 <MAKEBRANCHLINK>
     b80:	ea000675 	b	255c <jitend2byte>

00000b84 <opc_6A>:
     b84:	e59fc1e8 	ldr	ip, [pc, #488]	; d74 <Bopc_6A>
     b88:	e59f0380 	ldr	r0, [pc, #896]	; f10 <Bopc_7F+0x88>
     b8c:	ea0007aa 	b	2a3c <singleopcodeend>

00000b90 <opc_6C>:
     b90:	e28f1e1e 	add	r1, pc, #480	; 0x1e0
     b94:	e8911f80 	ldm	r1, {r7, r8, r9, sl, fp, ip}
     b98:	e8861f80 	stm	r6, {r7, r8, r9, sl, fp, ip}
     b9c:	e4c65004 	strb	r5, [r6], #4
     ba0:	eb0007e8 	bl	2b48 <fixuptype2access>
     ba4:	ea0007bf 	b	2aa8 <jitend3byteexit>

00000ba8 <opc_6D>:
     ba8:	e28f1e1e 	add	r1, pc, #480	; 0x1e0
     bac:	e8910f80 	ldm	r1, {r7, r8, r9, sl, fp}
     bb0:	e59f035c 	ldr	r0, [pc, #860]	; f14 <Bopc_7F+0x8c>
     bb4:	e1877005 	orr	r7, r7, r5
     bb8:	e1888004 	orr	r8, r8, r4
     bbc:	e8a60f80 	stmia	r6!, {r7, r8, r9, sl, fp}
     bc0:	eb0007cf 	bl	2b04 <MAKEBRANCHLINK>
     bc4:	ea0007a6 	b	2a64 <jitend3byte>

00000bc8 <opc_6E>:
     bc8:	e28f1f75 	add	r1, pc, #468	; 0x1d4
     bcc:	ea0007a0 	b	2a54 <jitend3byteloadstoreoperand>

00000bd0 <opc_6F>:
     bd0:	e59f02e4 	ldr	r0, [pc, #740]	; ebc <Bopc_7F+0x34>
     bd4:	e28f1e1e 	add	r1, pc, #480	; 0x1e0
     bd8:	ea0007a9 	b	2a84 <jitend3byteexitBBRS>

00000bdc <opc_70>:
     bdc:	e59f0334 	ldr	r0, [pc, #820]	; f18 <Bopc_7F+0x90>
     be0:	e59f91ec 	ldr	r9, [pc, #492]	; dd4 <Bopc_70>
     be4:	e6af4074 	sxtb	r4, r4
     be8:	eb0007c5 	bl	2b04 <MAKEBRANCHLINK>
     bec:	e1a00084 	lsl	r0, r4, #1
     bf0:	e5869004 	str	r9, [r6, #4]
     bf4:	e3c004ff 	bic	r0, r0, #-16777216	; 0xff000000
     bf8:	e586900c 	str	r9, [r6, #12]
     bfc:	e38004ea 	orr	r0, r0, #-369098752	; 0xea000000
     c00:	e5860008 	str	r0, [r6, #8]
     c04:	ea000769 	b	29b0 <jitend2byteexit>

00000c08 <opc_71>:
     c08:	e28f1f72 	add	r1, pc, #456	; 0x1c8
     c0c:	e8910700 	ldm	r1, {r8, r9, sl}
     c10:	e59f0304 	ldr	r0, [pc, #772]	; f1c <Bopc_7F+0x94>
     c14:	eb0007c6 	bl	2b34 <fixuptype2accessquick>
     c18:	e8a60700 	stmia	r6!, {r8, r9, sl}
     c1c:	eb0007b8 	bl	2b04 <MAKEBRANCHLINK>
     c20:	ea00064d 	b	255c <jitend2byte>

00000c24 <opc_72>:
     c24:	e28f1f6e 	add	r1, pc, #440	; 0x1b8
     c28:	e8910700 	ldm	r1, {r8, r9, sl}
     c2c:	e59f02e8 	ldr	r0, [pc, #744]	; f1c <Bopc_7F+0x94>
     c30:	eb0007bf 	bl	2b34 <fixuptype2accessquick>
     c34:	e8a60700 	stmia	r6!, {r8, r9, sl}
     c38:	eb0007b1 	bl	2b04 <MAKEBRANCHLINK>
     c3c:	ea000646 	b	255c <jitend2byte>

00000c40 <opc_74>:
     c40:	e28f1f6a 	add	r1, pc, #424	; 0x1a8
     c44:	ea000641 	b	2550 <doublebyteend>

00000c48 <opc_75>:
     c48:	e28f1e1b 	add	r1, pc, #432	; 0x1b0
     c4c:	e8910700 	ldm	r1, {r8, r9, sl}
     c50:	e59f02c4 	ldr	r0, [pc, #708]	; f1c <Bopc_7F+0x94>
     c54:	e1888004 	orr	r8, r8, r4
     c58:	e8a60700 	stmia	r6!, {r8, r9, sl}
     c5c:	eb0007a8 	bl	2b04 <MAKEBRANCHLINK>
     c60:	ea00063d 	b	255c <jitend2byte>

00000c64 <opc_76>:
     c64:	e28f1e1a 	add	r1, pc, #416	; 0x1a0
     c68:	e8910700 	ldm	r1, {r8, r9, sl}
     c6c:	e59f02ac 	ldr	r0, [pc, #684]	; f20 <Bopc_7F+0x98>
     c70:	e1888004 	orr	r8, r8, r4
     c74:	e8a60700 	stmia	r6!, {r8, r9, sl}
     c78:	eb0007a1 	bl	2b04 <MAKEBRANCHLINK>
     c7c:	ea000636 	b	255c <jitend2byte>

00000c80 <opc_77>:
     c80:	e28f1e19 	add	r1, pc, #400	; 0x190
     c84:	e8910f00 	ldm	r1, {r8, r9, sl, fp}
     c88:	e1888004 	orr	r8, r8, r4
     c8c:	e18bb004 	orr	fp, fp, r4
     c90:	ea000630 	b	2558 <jitend2bytestore4>

00000c94 <opc_78>:
     c94:	e59f818c 	ldr	r8, [pc, #396]	; e28 <Bopc_78>
     c98:	e59f918c 	ldr	r9, [pc, #396]	; e2c <Bopc_78+0x4>
     c9c:	e1c680f0 	strd	r8, [r6]
     ca0:	ea000767 	b	2a44 <jitend1byte>

00000ca4 <opc_79>:
     ca4:	e28f1f61 	add	r1, pc, #388	; 0x184
     ca8:	e8910f80 	ldm	r1, {r7, r8, r9, sl, fp}
     cac:	e59f0254 	ldr	r0, [pc, #596]	; f08 <Bopc_7F+0x80>
     cb0:	e1877005 	orr	r7, r7, r5
     cb4:	e1888004 	orr	r8, r8, r4
     cb8:	e8a60f80 	stmia	r6!, {r7, r8, r9, sl, fp}
     cbc:	eb000790 	bl	2b04 <MAKEBRANCHLINK>
     cc0:	ea000767 	b	2a64 <jitend3byte>

00000cc4 <opc_7A>:
     cc4:	e59fc098 	ldr	ip, [pc, #152]	; d64 <Bopc_68>
     cc8:	e59f0254 	ldr	r0, [pc, #596]	; f24 <Bopc_7F+0x9c>
     ccc:	ea00075a 	b	2a3c <singleopcodeend>

00000cd0 <opc_7C>:
     cd0:	e28f1f5b 	add	r1, pc, #364	; 0x16c
     cd4:	e8911f80 	ldm	r1, {r7, r8, r9, sl, fp, ip}
     cd8:	e1877005 	orr	r7, r7, r5
     cdc:	e1888004 	orr	r8, r8, r4
     ce0:	e8861f80 	stm	r6, {r7, r8, r9, sl, fp, ip}
     ce4:	ea00076f 	b	2aa8 <jitend3byteexit>

00000ce8 <opc_7D>:
     ce8:	e28f1f5b 	add	r1, pc, #364	; 0x16c
     cec:	e8910f80 	ldm	r1, {r7, r8, r9, sl, fp}
     cf0:	e59f0210 	ldr	r0, [pc, #528]	; f08 <Bopc_7F+0x80>
     cf4:	e1877005 	orr	r7, r7, r5
     cf8:	e1888004 	orr	r8, r8, r4
     cfc:	e8a60f80 	stmia	r6!, {r7, r8, r9, sl, fp}
     d00:	eb00077f 	bl	2b04 <MAKEBRANCHLINK>
     d04:	ea000756 	b	2a64 <jitend3byte>

00000d08 <opc_7E>:
     d08:	e28f1e16 	add	r1, pc, #352	; 0x160
     d0c:	ea000750 	b	2a54 <jitend3byteloadstoreoperand>

00000d10 <opc_7F>:
     d10:	e59f01a4 	ldr	r0, [pc, #420]	; ebc <Bopc_7F+0x34>
     d14:	e28f1f5b 	add	r1, pc, #364	; 0x16c
     d18:	ea000759 	b	2a84 <jitend3byteexitBBRS>

00000d1c <Bopc_60>:
     d1c:	e1d900b1 	ldrh	r0, [r9, #1]

00000d20 <Bopc_61>:
     d20:	e28b1400 	.word	0xe28b1400
     d24:	e1a01c21 	lsr	r1, r1, #24
     d28:	e1d110b0 	ldrh	r1, [r1]

00000d2c <Bopc_64>:
     d2c:	e5c66000 	strb	r6, [r6]
     d30:	e3a01000 	mov	r1, #0
     d34:	e320f000 	nop	{0}

00000d38 <Bopc_65>:
     d38:	e5d6c000 	ldrb	ip, [r6]
     d3c:	e3170008 	tst	r7, #8
     d40:	e3c77040 	bic	r7, r7, #64	; 0x40

00000d44 <Bopc_66>:
     d44:	e5d6c000 	ldrb	ip, [r6]
     d48:	238ccc01 	orrcs	ip, ip, #256	; 0x100
     d4c:	e1b0c06c 	rrxs	ip, ip
     d50:	e5c6c000 	strb	ip, [r6]

00000d54 <Bopc_67>:
     d54:	e5d6c000 	ldrb	ip, [r6]
     d58:	e320f000 	nop	{0}
     d5c:	e3ccc040 	bic	ip, ip, #64	; 0x40
     d60:	e5c6c000 	strb	ip, [r6]

00000d64 <Bopc_68>:
     d64:	e3a0c001 	mov	ip, #1

00000d68 <Bopc_69>:
     d68:	e3a0c000 	mov	ip, #0
     d6c:	e3170008 	tst	r7, #8
     d70:	e3c77040 	bic	r7, r7, #64	; 0x40

00000d74 <Bopc_6A>:
     d74:	e20aa0ff 	and	sl, sl, #255	; 0xff

00000d78 <Bopc_6C>:
     d78:	e3a01c00 	.word	0xe3a01c00
     d7c:	e1d1c0b0 	ldrh	ip, [r1]
     d80:	e320f000 	nop	{0}
     d84:	e3a0040d 	mov	r0, #218103808	; 0xd000000
     d88:	e080018c 	add	r0, r0, ip, lsl #3
     d8c:	e12fff10 	bx	r0

00000d90 <Bopc_6D>:
     d90:	e3a01c00 	.word	0xe3a01c00
     d94:	e5d1c000 	ldrb	ip, [r1]
     d98:	e3170008 	tst	r7, #8
     d9c:	e3c77040 	bic	r7, r7, #64	; 0x40
     da0:	e1a0ac0a 	lsl	sl, sl, #24

00000da4 <Bopc_6E>:
     da4:	e3a01c00 	.word	0xe3a01c00
     da8:	e5f1c000 	ldrb	ip, [r1, #0]!
     dac:	e320f000 	nop	{0}
     db0:	238ccc01 	orrcs	ip, ip, #256	; 0x100
     db4:	e1b0c06c 	rrxs	ip, ip
     db8:	e5c1c000 	strb	ip, [r1]

00000dbc <Bopc_6F>:
     dbc:	e5d6c000 	ldrb	ip, [r6]
     dc0:	e10f1000 	mrs	r1, CPSR
     dc4:	e31c0040 	tst	ip, #64	; 0x40
     dc8:	eb000000 	bl	dd0 <Bopc_6F+0x14>
     dcc:	ea000000 	b	dd4 <Bopc_70>
     dd0:	e128f001 	msr	CPSR_f, r1

00000dd4 <Bopc_70>:
     dd4:	e128f001 	msr	CPSR_f, r1

00000dd8 <Bopc_71>:
     dd8:	e1d610b0 	ldrh	r1, [r6]
     ddc:	e3170008 	tst	r7, #8
     de0:	e7d1cc28 	ldrb	ip, [r1, r8, lsr #24]

00000de4 <Bopc_72>:
     de4:	e1d610b0 	ldrh	r1, [r6]
     de8:	e3170008 	tst	r7, #8
     dec:	e5d1c000 	ldrb	ip, [r1]

00000df0 <Bopc_74>:
     df0:	e28b1400 	.word	0xe28b1400
     df4:	e7c66c21 	strb	r6, [r6, r1, lsr #24]
     df8:	e085cb21 	add	ip, r5, r1, lsr #22
     dfc:	e12fff3c 	blx	ip

00000e00 <Bopc_75>:
     e00:	e28b1400 	.word	0xe28b1400
     e04:	e3170008 	tst	r7, #8
     e08:	e7d6cc21 	ldrb	ip, [r6, r1, lsr #24]

00000e0c <Bopc_76>:
     e0c:	e28b1400 	.word	0xe28b1400
     e10:	e1a01c21 	lsr	r1, r1, #24
     e14:	e5d1c000 	ldrb	ip, [r1]

00000e18 <Bopc_77>:
     e18:	e5d6c000 	ldrb	ip, [r6]
     e1c:	e320f000 	nop	{0}
     e20:	e3ccc080 	bic	ip, ip, #128	; 0x80
     e24:	e5c6c000 	strb	ip, [r6]

00000e28 <Bopc_78>:
     e28:	e3877004 	orr	r7, r7, #4
     e2c:	e320f000 	nop	{0}

00000e30 <Bopc_79>:
     e30:	e3a01c00 	.word	0xe3a01c00
     e34:	e3811000 	orr	r1, r1, #0
     e38:	e7d1cc28 	ldrb	ip, [r1, r8, lsr #24]
     e3c:	e3170008 	tst	r7, #8
     e40:	e3c77040 	bic	r7, r7, #64	; 0x40

00000e44 <Bopc_7C>:
     e44:	e3a01c00 	.word	0xe3a01c00
     e48:	e3811000 	orr	r1, r1, #0
     e4c:	e1a0cc2b 	lsr	ip, fp, #24
     e50:	e19cc0b1 	ldrh	ip, [ip, r1]
     e54:	e3a0040d 	mov	r0, #218103808	; 0xd000000
     e58:	e080f18c 	add	pc, r0, ip, lsl #3

00000e5c <Bopc_7D>:
     e5c:	e3a01c00 	.word	0xe3a01c00
     e60:	e3811000 	orr	r1, r1, #0
     e64:	e7d1cc2b 	ldrb	ip, [r1, fp, lsr #24]
     e68:	e3170008 	tst	r7, #8
     e6c:	e3c77040 	bic	r7, r7, #64	; 0x40

00000e70 <Bopc_7E>:
     e70:	e3a01c00 	.word	0xe3a01c00
     e74:	e3811000 	orr	r1, r1, #0
     e78:	e7f1cc2b 	ldrb	ip, [r1, fp, lsr #24]!
     e7c:	238ccc01 	orrcs	ip, ip, #256	; 0x100
     e80:	e1b0c06c 	rrxs	ip, ip
     e84:	e5c1c000 	strb	ip, [r1]

00000e88 <Bopc_7F>:
     e88:	e5d6c000 	ldrb	ip, [r6]
     e8c:	e10f1000 	mrs	r1, CPSR
     e90:	e31c0080 	tst	ip, #128	; 0x80
     e94:	eb000000 	bl	e9c <Bopc_7F+0x14>
     e98:	ea000000 	b	ea0 <Bopc_7F+0x18>
     e9c:	e128f001 	msr	CPSR_f, r1
     ea0:	f2f021e4 	.word	0xf2f021e4
     ea4:	00002b90 	.word	0x00002b90
     ea8:	00002f54 	.word	0x00002f54
     eac:	00002f38 	.word	0x00002f38
     eb0:	00002f04 	.word	0x00002f04
     eb4:	0000303c 	.word	0x0000303c
     eb8:	00002f40 	.word	0x00002f40
     ebc:	00002d80 	.word	0x00002d80
     ec0:	00002f1c 	.word	0x00002f1c
     ec4:	00002ef4 	.word	0x00002ef4
     ec8:	00002d48 	.word	0x00002d48
     ecc:	00002ee8 	.word	0x00002ee8
     ed0:	00002f24 	.word	0x00002f24
     ed4:	00002eb0 	.word	0x00002eb0
     ed8:	00002c9c 	.word	0x00002c9c
     edc:	00002e6c 	.word	0x00002e6c
     ee0:	0000343c 	.word	0x0000343c
     ee4:	00002e78 	.word	0x00002e78
     ee8:	00002eac 	.word	0x00002eac
     eec:	00002e5c 	.word	0x00002e5c
     ef0:	00002be0 	.word	0x00002be0
     ef4:	00002d60 	.word	0x00002d60
     ef8:	00002c94 	.word	0x00002c94
     efc:	00002f10 	.word	0x00002f10
     f00:	00002e28 	.word	0x00002e28
     f04:	00002f60 	.word	0x00002f60
     f08:	00002f6c 	.word	0x00002f6c
     f0c:	00002e14 	.word	0x00002e14
     f10:	00002e40 	.word	0x00002e40
     f14:	00002f70 	.word	0x00002f70
     f18:	00002d70 	.word	0x00002d70
     f1c:	00002f68 	.word	0x00002f68
     f20:	00002e4c 	.word	0x00002e4c
     f24:	00002dfc 	.word	0x00002dfc

00000f28 <Bopc_81>:
     f28:	e28b1400 	.word	0xe28b1400
     f2c:	e1a01c21 	lsr	r1, r1, #24
     f30:	e1d110b0 	ldrh	r1, [r1]

00000f34 <Bopc_84>:
     f34:	e1a0cc28 	lsr	ip, r8, #24
     f38:	e3a01000 	mov	r1, #0
     f3c:	e5c6c000 	strb	ip, [r6]

00000f40 <Bopc_85>:
     f40:	e5c6a000 	strb	sl, [r6]
     f44:	e3a01000 	mov	r1, #0
     f48:	e320f000 	nop	{0}

00000f4c <Bopc_86>:
     f4c:	e1a0cc2b 	lsr	ip, fp, #24
     f50:	e3a01000 	mov	r1, #0
     f54:	e5c6c000 	strb	ip, [r6]

00000f58 <Bopc_87>:
     f58:	e5d6c000 	ldrb	ip, [r6]
     f5c:	e320f000 	nop	{0}
     f60:	e38cc001 	orr	ip, ip, #1
     f64:	e5c6c000 	strb	ip, [r6]

00000f68 <Bopc_88>:
     f68:	e2488401 	sub	r8, r8, #16777216	; 0x1000000
     f6c:	e3380000 	teq	r8, #0

00000f70 <Bopc_89>:
     f70:	e3a0c000 	mov	ip, #0
     f74:	e10f1000 	mrs	r1, CPSR
     f78:	e11a000c 	tst	sl, ip

00000f7c <Bopc_8A>:
     f7c:	e6afac7b 	sxtb	sl, fp, ror #24
     f80:	e33a0000 	teq	sl, #0

00000f84 <Bopc_8C>:
     f84:	e3a01c00 	.word	0xe3a01c00
     f88:	e320f000 	nop	{0}
     f8c:	e1a00c28 	lsr	r0, r8, #24
     f90:	e320f000 	nop	{0}
     f94:	e5e10000 	strb	r0, [r1, #0]!

00000f98 <Bopc_8C_io>:
     f98:	e3a01c00 	.word	0xe3a01c00
     f9c:	e3811000 	orr	r1, r1, #0
     fa0:	e1a00001 	mov	r0, r1
     fa4:	e1a01c28 	lsr	r1, r8, #24
     fa8:	e320f000 	nop	{0}

00000fac <Bopc_8D>:
     fac:	e3a01c00 	.word	0xe3a01c00
     fb0:	e320f000 	nop	{0}
     fb4:	e320f000 	nop	{0}
     fb8:	e320f000 	nop	{0}
     fbc:	e5e1a000 	strb	sl, [r1, #0]!

00000fc0 <Bopc_8D_io>:
     fc0:	e3a01c00 	.word	0xe3a01c00
     fc4:	e3811000 	orr	r1, r1, #0
     fc8:	e1a00001 	mov	r0, r1
     fcc:	e20a10ff 	and	r1, sl, #255	; 0xff
     fd0:	e320f000 	nop	{0}

00000fd4 <Bopc_8E>:
     fd4:	e3a01c00 	.word	0xe3a01c00
     fd8:	e320f000 	nop	{0}
     fdc:	e1a00c2b 	lsr	r0, fp, #24
     fe0:	e320f000 	nop	{0}
     fe4:	e5e10000 	strb	r0, [r1, #0]!

00000fe8 <Bopc_8E_io>:
     fe8:	e3a01c00 	.word	0xe3a01c00
     fec:	e3811000 	orr	r1, r1, #0
     ff0:	e1a00001 	mov	r0, r1
     ff4:	e1a01c2b 	lsr	r1, fp, #24
     ff8:	e320f000 	nop	{0}

00000ffc <Bopc_8F>:
     ffc:	e5d6c000 	ldrb	ip, [r6]
    1000:	e10f1000 	mrs	r1, CPSR
    1004:	e31c0001 	tst	ip, #1
    1008:	eb000000 	bl	1010 <Bopc_8F+0x14>
    100c:	ea000000 	b	1014 <Bopc_91>
    1010:	e128f001 	msr	CPSR_f, r1

00001014 <Bopc_91>:
    1014:	e1d610b0 	ldrh	r1, [r6]
    1018:	e7e1ac28 	strb	sl, [r1, r8, lsr #24]!
    101c:	e085c101 	add	ip, r5, r1, lsl #2
    1020:	e12fff3c 	blx	ip

00001024 <Bopc_92>:
    1024:	e1d610b0 	ldrh	r1, [r6]
    1028:	e5c1a000 	strb	sl, [r1]
    102c:	e085c101 	add	ip, r5, r1, lsl #2
    1030:	e12fff3c 	blx	ip

00001034 <Bopc_94>:
    1034:	e28b1400 	.word	0xe28b1400
    1038:	e1a0cc28 	lsr	ip, r8, #24
    103c:	e7c6cc21 	strb	ip, [r6, r1, lsr #24]

00001040 <Bopc_95>:
    1040:	e28b1400 	.word	0xe28b1400
    1044:	e7c6ac21 	strb	sl, [r6, r1, lsr #24]
    1048:	e085cb21 	add	ip, r5, r1, lsr #22
    104c:	e12fff3c 	blx	ip

00001050 <Bopc_96>:
    1050:	e2881400 	.word	0xe2881400
    1054:	e1a0cc2b 	lsr	ip, fp, #24
    1058:	e7c6cc21 	strb	ip, [r6, r1, lsr #24]

0000105c <Bopc_97>:
    105c:	e5d6c000 	ldrb	ip, [r6]
    1060:	e320f000 	nop	{0}
    1064:	e38cc002 	orr	ip, ip, #2
    1068:	e5c6c000 	strb	ip, [r6]

0000106c <Bopc_98>:
    106c:	e6afac78 	sxtb	sl, r8, ror #24
    1070:	e33a0000 	teq	sl, #0

00001074 <Bopc_99>:
    1074:	e3a01c00 	.word	0xe3a01c00
    1078:	e3811000 	orr	r1, r1, #0
    107c:	e7e1ac28 	strb	sl, [r1, r8, lsr #24]!
    1080:	e320f000 	nop	{0}
    1084:	e085c101 	add	ip, r5, r1, lsl #2
    1088:	e12fff3c 	blx	ip

0000108c <Bopc_9A>:
    108c:	e3c990ff 	bic	r9, r9, #255	; 0xff
    1090:	e1899c2b 	orr	r9, r9, fp, lsr #24

00001094 <Bopc_9C>:
    1094:	e3a01c00 	.word	0xe3a01c00
    1098:	e320f000 	nop	{0}
    109c:	e1a00c26 	lsr	r0, r6, #24
    10a0:	e320f000 	nop	{0}
    10a4:	e5e10000 	strb	r0, [r1, #0]!

000010a8 <Bopc_9D>:
    10a8:	e3a01c00 	.word	0xe3a01c00
    10ac:	e3811000 	orr	r1, r1, #0
    10b0:	e7e1ac2b 	strb	sl, [r1, fp, lsr #24]!
    10b4:	e320f000 	nop	{0}
    10b8:	e085c101 	add	ip, r5, r1, lsl #2
    10bc:	e12fff3c 	blx	ip

000010c0 <Bopc_9E>:
    10c0:	e3a01c00 	.word	0xe3a01c00
    10c4:	e3811000 	orr	r1, r1, #0
    10c8:	e7e16c2b 	strb	r6, [r1, fp, lsr #24]!
    10cc:	e320f000 	nop	{0}
    10d0:	e085c101 	add	ip, r5, r1, lsl #2
    10d4:	e12fff3c 	blx	ip

000010d8 <Bopc_9F>:
    10d8:	e5d6c000 	ldrb	ip, [r6]
    10dc:	e10f1000 	mrs	r1, CPSR
    10e0:	e31c0002 	tst	ip, #2
    10e4:	eb000000 	bl	10ec <Bopc_9F+0x14>
    10e8:	ea000000 	b	10f0 <opc_80>
    10ec:	e128f001 	msr	CPSR_f, r1

000010f0 <opc_80>:
    10f0:	e6af4074 	sxtb	r4, r4
    10f4:	e51fc968 	ldr	ip, [pc, #-2408]	; 794 <B_NOP>
    10f8:	e1a00084 	lsl	r0, r4, #1
    10fc:	e2800002 	add	r0, r0, #2
    1100:	e3c004ff 	bic	r0, r0, #-16777216	; 0xff000000
    1104:	e38004ea 	orr	r0, r0, #-369098752	; 0xea000000
    1108:	ea000624 	b	29a0 <branchsavewords>

0000110c <opc_81>:
    110c:	e24f1f7b 	sub	r1, pc, #492	; 0x1ec
    1110:	e8910700 	ldm	r1, {r8, r9, sl}
    1114:	e59f0d90 	ldr	r0, [pc, #3472]	; 1eac <opc_FF+0xc>
    1118:	e1888004 	orr	r8, r8, r4
    111c:	e8a60700 	stmia	r6!, {r8, r9, sl}
    1120:	eb000677 	bl	2b04 <MAKEBRANCHLINK>
    1124:	ea00050c 	b	255c <jitend2byte>

00001128 <opc_84>:
    1128:	e24f1f7f 	sub	r1, pc, #508	; 0x1fc
    112c:	e8910700 	ldm	r1, {r8, r9, sl}
    1130:	e1a00104 	lsl	r0, r4, #2
    1134:	e28006d1 	add	r0, r0, #219152384	; 0xd100000
    1138:	e1899004 	orr	r9, r9, r4
    113c:	e18aa004 	orr	sl, sl, r4
    1140:	e8a60700 	stmia	r6!, {r8, r9, sl}
    1144:	eb00066e 	bl	2b04 <MAKEBRANCHLINK>
    1148:	ea000503 	b	255c <jitend2byte>

0000114c <opc_85>:
    114c:	e24f1f85 	sub	r1, pc, #532	; 0x214
    1150:	e8910700 	ldm	r1, {r8, r9, sl}
    1154:	e1a00104 	lsl	r0, r4, #2
    1158:	e28006d1 	add	r0, r0, #219152384	; 0xd100000
    115c:	e1888004 	orr	r8, r8, r4
    1160:	e1899004 	orr	r9, r9, r4
    1164:	e8a60700 	stmia	r6!, {r8, r9, sl}
    1168:	eb000665 	bl	2b04 <MAKEBRANCHLINK>
    116c:	ea0004fa 	b	255c <jitend2byte>

00001170 <opc_86>:
    1170:	e24f1f8b 	sub	r1, pc, #556	; 0x22c
    1174:	e8910700 	ldm	r1, {r8, r9, sl}
    1178:	e1a00104 	lsl	r0, r4, #2
    117c:	e28006d1 	add	r0, r0, #219152384	; 0xd100000
    1180:	e1899004 	orr	r9, r9, r4
    1184:	e18aa004 	orr	sl, sl, r4
    1188:	e8a60700 	stmia	r6!, {r8, r9, sl}
    118c:	eb00065c 	bl	2b04 <MAKEBRANCHLINK>
    1190:	ea0004f1 	b	255c <jitend2byte>

00001194 <opc_87>:
    1194:	e24f1f91 	sub	r1, pc, #580	; 0x244
    1198:	e8910f00 	ldm	r1, {r8, r9, sl, fp}
    119c:	e1888004 	orr	r8, r8, r4
    11a0:	e18bb004 	orr	fp, fp, r4
    11a4:	ea0004eb 	b	2558 <jitend2bytestore4>

000011a8 <opc_88>:
    11a8:	e51f8248 	ldr	r8, [pc, #-584]	; f68 <Bopc_88>
    11ac:	e51f9248 	ldr	r9, [pc, #-584]	; f6c <Bopc_88+0x4>
    11b0:	e1c680f0 	strd	r8, [r6]
    11b4:	ea000622 	b	2a44 <jitend1byte>

000011b8 <opc_89>:
    11b8:	e24f1e25 	sub	r1, pc, #592	; 0x250
    11bc:	e8910700 	ldm	r1, {r8, r9, sl}
    11c0:	e59f0ce8 	ldr	r0, [pc, #3304]	; 1eb0 <opc_FF+0x10>
    11c4:	e1888004 	orr	r8, r8, r4
    11c8:	e8a60700 	stmia	r6!, {r8, r9, sl}
    11cc:	eb00064c 	bl	2b04 <MAKEBRANCHLINK>
    11d0:	ea0004e1 	b	255c <jitend2byte>

000011d4 <opc_8A>:
    11d4:	e51f8260 	ldr	r8, [pc, #-608]	; f7c <Bopc_8A>
    11d8:	e51f9260 	ldr	r9, [pc, #-608]	; f80 <Bopc_8A+0x4>
    11dc:	e1c680f0 	strd	r8, [r6]
    11e0:	ea000617 	b	2a44 <jitend1byte>

000011e4 <opc_8C>:
    11e4:	e1d2c0b1 	ldrh	ip, [r2, #1]
    11e8:	e3a000f7 	mov	r0, #247	; 0xf7
    11ec:	e3800c07 	orr	r0, r0, #1792	; 0x700
    11f0:	e15002ac 	cmp	r0, ip, lsr #5
    11f4:	0a000008 	beq	121c <opc_8C+0x38>
    11f8:	e24f1f9f 	sub	r1, pc, #636	; 0x27c
    11fc:	e8910f80 	ldm	r1, {r7, r8, r9, sl, fp}
    1200:	e1a0010c 	lsl	r0, ip, #2
    1204:	e28006d1 	add	r0, r0, #219152384	; 0xd100000
    1208:	e1877005 	orr	r7, r7, r5
    120c:	e18bb004 	orr	fp, fp, r4
    1210:	e8a60f80 	stmia	r6!, {r7, r8, r9, sl, fp}
    1214:	eb00063a 	bl	2b04 <MAKEBRANCHLINK>
    1218:	ea000611 	b	2a64 <jitend3byte>
    121c:	e24f1fa3 	sub	r1, pc, #652	; 0x28c
    1220:	e8910f80 	ldm	r1, {r7, r8, r9, sl, fp}
    1224:	e59f0c88 	ldr	r0, [pc, #3208]	; 1eb4 <opc_FF+0x14>
    1228:	e1877005 	orr	r7, r7, r5
    122c:	e1888004 	orr	r8, r8, r4
    1230:	e8a60f80 	stmia	r6!, {r7, r8, r9, sl, fp}
    1234:	eb000632 	bl	2b04 <MAKEBRANCHLINK>
    1238:	ea000609 	b	2a64 <jitend3byte>

0000123c <opc_8D>:
    123c:	e1d2c0b1 	ldrh	ip, [r2, #1]
    1240:	e3a000f7 	mov	r0, #247	; 0xf7
    1244:	e3800c07 	orr	r0, r0, #1792	; 0x700
    1248:	e15002ac 	cmp	r0, ip, lsr #5
    124c:	0a000008 	beq	1274 <opc_8D+0x38>
    1250:	e24f1fab 	sub	r1, pc, #684	; 0x2ac
    1254:	e8910f80 	ldm	r1, {r7, r8, r9, sl, fp}
    1258:	e1a0010c 	lsl	r0, ip, #2
    125c:	e28006d1 	add	r0, r0, #219152384	; 0xd100000
    1260:	e1877005 	orr	r7, r7, r5
    1264:	e18bb004 	orr	fp, fp, r4
    1268:	e8a60f80 	stmia	r6!, {r7, r8, r9, sl, fp}
    126c:	eb000624 	bl	2b04 <MAKEBRANCHLINK>
    1270:	ea0005fb 	b	2a64 <jitend3byte>
    1274:	e24f1faf 	sub	r1, pc, #700	; 0x2bc
    1278:	e8910f80 	ldm	r1, {r7, r8, r9, sl, fp}
    127c:	e59f0c30 	ldr	r0, [pc, #3120]	; 1eb4 <opc_FF+0x14>
    1280:	e1877005 	orr	r7, r7, r5
    1284:	e1888004 	orr	r8, r8, r4
    1288:	e8a60f80 	stmia	r6!, {r7, r8, r9, sl, fp}
    128c:	eb00061c 	bl	2b04 <MAKEBRANCHLINK>
    1290:	ea0005f3 	b	2a64 <jitend3byte>

00001294 <opc_8E>:
    1294:	e1d2c0b1 	ldrh	ip, [r2, #1]
    1298:	e3a000f7 	mov	r0, #247	; 0xf7
    129c:	e3800c07 	orr	r0, r0, #1792	; 0x700
    12a0:	e15002ac 	cmp	r0, ip, lsr #5
    12a4:	0a000008 	beq	12cc <opc_8E+0x38>
    12a8:	e24f1fb7 	sub	r1, pc, #732	; 0x2dc
    12ac:	e8910f80 	ldm	r1, {r7, r8, r9, sl, fp}
    12b0:	e1a0010c 	lsl	r0, ip, #2
    12b4:	e28006d1 	add	r0, r0, #219152384	; 0xd100000
    12b8:	e1877005 	orr	r7, r7, r5
    12bc:	e18bb004 	orr	fp, fp, r4
    12c0:	e8a60f80 	stmia	r6!, {r7, r8, r9, sl, fp}
    12c4:	eb00060e 	bl	2b04 <MAKEBRANCHLINK>
    12c8:	ea0005e5 	b	2a64 <jitend3byte>
    12cc:	e24f1fbb 	sub	r1, pc, #748	; 0x2ec
    12d0:	e8910f80 	ldm	r1, {r7, r8, r9, sl, fp}
    12d4:	e59f0bd8 	ldr	r0, [pc, #3032]	; 1eb4 <opc_FF+0x14>
    12d8:	e1877005 	orr	r7, r7, r5
    12dc:	e1888004 	orr	r8, r8, r4
    12e0:	e8a60f80 	stmia	r6!, {r7, r8, r9, sl, fp}
    12e4:	eb000606 	bl	2b04 <MAKEBRANCHLINK>
    12e8:	ea0005dd 	b	2a64 <jitend3byte>

000012ec <opc_8F>:
    12ec:	e59f0bc4 	ldr	r0, [pc, #3012]	; 1eb8 <opc_FF+0x18>
    12f0:	e24f1fbf 	sub	r1, pc, #764	; 0x2fc
    12f4:	ea0005e2 	b	2a84 <jitend3byteexitBBRS>

000012f8 <opc_91>:
    12f8:	e24f1fbb 	sub	r1, pc, #748	; 0x2ec
    12fc:	e8910f00 	ldm	r1, {r8, r9, sl, fp}
    1300:	ea000606 	b	2b20 <fixuptype2accessstore4>

00001304 <opc_92>:
    1304:	e24f1fba 	sub	r1, pc, #744	; 0x2e8
    1308:	e8910f00 	ldm	r1, {r8, r9, sl, fp}
    130c:	ea000603 	b	2b20 <fixuptype2accessstore4>

00001310 <opc_94>:
    1310:	e24f1fb9 	sub	r1, pc, #740	; 0x2e4
    1314:	e8910700 	ldm	r1, {r8, r9, sl}
    1318:	e59f0b9c 	ldr	r0, [pc, #2972]	; 1ebc <opc_FF+0x1c>
    131c:	e1888004 	orr	r8, r8, r4
    1320:	e8a60700 	stmia	r6!, {r8, r9, sl}
    1324:	eb0005f6 	bl	2b04 <MAKEBRANCHLINK>
    1328:	ea00048b 	b	255c <jitend2byte>

0000132c <opc_95>:
    132c:	e24f1fbd 	sub	r1, pc, #756	; 0x2f4
    1330:	ea000486 	b	2550 <doublebyteend>

00001334 <opc_96>:
    1334:	e24f1fbb 	sub	r1, pc, #748	; 0x2ec
    1338:	e8910700 	ldm	r1, {r8, r9, sl}
    133c:	e59f0b78 	ldr	r0, [pc, #2936]	; 1ebc <opc_FF+0x1c>
    1340:	e1888004 	orr	r8, r8, r4
    1344:	e8a60700 	stmia	r6!, {r8, r9, sl}
    1348:	eb0005ed 	bl	2b04 <MAKEBRANCHLINK>
    134c:	ea000482 	b	255c <jitend2byte>

00001350 <opc_97>:
    1350:	e24f1fbf 	sub	r1, pc, #764	; 0x2fc
    1354:	e8910f00 	ldm	r1, {r8, r9, sl, fp}
    1358:	e1888004 	orr	r8, r8, r4
    135c:	e18bb004 	orr	fp, fp, r4
    1360:	ea00047c 	b	2558 <jitend2bytestore4>

00001364 <opc_98>:
    1364:	e51f8300 	ldr	r8, [pc, #-768]	; 106c <Bopc_98>
    1368:	e51f9300 	ldr	r9, [pc, #-768]	; 1070 <Bopc_98+0x4>
    136c:	e1c680f0 	strd	r8, [r6]
    1370:	ea0005b3 	b	2a44 <jitend1byte>

00001374 <opc_99>:
    1374:	e24f1fc2 	sub	r1, pc, #776	; 0x308
    1378:	ea0005b5 	b	2a54 <jitend3byteloadstoreoperand>

0000137c <opc_9A>:
    137c:	e51f82f8 	ldr	r8, [pc, #-760]	; 108c <Bopc_9A>
    1380:	e51f92f8 	ldr	r9, [pc, #-760]	; 1090 <Bopc_9A+0x4>
    1384:	e1c680f0 	strd	r8, [r6]
    1388:	ea0005ad 	b	2a44 <jitend1byte>

0000138c <opc_9C>:
    138c:	e1d2c0b1 	ldrh	ip, [r2, #1]
    1390:	e24f1fc1 	sub	r1, pc, #772	; 0x304
    1394:	e8910f80 	ldm	r1, {r7, r8, r9, sl, fp}
    1398:	e1a0010c 	lsl	r0, ip, #2
    139c:	e28006d1 	add	r0, r0, #219152384	; 0xd100000
    13a0:	e1877005 	orr	r7, r7, r5
    13a4:	e18bb004 	orr	fp, fp, r4
    13a8:	e8a60f80 	stmia	r6!, {r7, r8, r9, sl, fp}
    13ac:	eb0005d4 	bl	2b04 <MAKEBRANCHLINK>
    13b0:	ea0005ab 	b	2a64 <jitend3byte>

000013b4 <opc_9D>:
    13b4:	e24f1fc5 	sub	r1, pc, #788	; 0x314
    13b8:	ea0005a5 	b	2a54 <jitend3byteloadstoreoperand>

000013bc <opc_9E>:
    13bc:	e24f1fc1 	sub	r1, pc, #772	; 0x304
    13c0:	ea0005a3 	b	2a54 <jitend3byteloadstoreoperand>

000013c4 <opc_9F>:
    13c4:	e59f0aec 	ldr	r0, [pc, #2796]	; 1eb8 <opc_FF+0x18>
    13c8:	e24f1fbe 	sub	r1, pc, #760	; 0x2f8
    13cc:	ea0005ac 	b	2a84 <jitend3byteexitBBRS>

000013d0 <opc_A0>:
    13d0:	e28f1faf 	add	r1, pc, #700	; 0x2bc
    13d4:	ea00045d 	b	2550 <doublebyteend>

000013d8 <opc_A1>:
    13d8:	e28f1fb1 	add	r1, pc, #708	; 0x2c4
    13dc:	e8910700 	ldm	r1, {r8, r9, sl}
    13e0:	e59f0ad8 	ldr	r0, [pc, #2776]	; 1ec0 <opc_FF+0x20>
    13e4:	e1888004 	orr	r8, r8, r4
    13e8:	e8a60700 	stmia	r6!, {r8, r9, sl}
    13ec:	eb0005c4 	bl	2b04 <MAKEBRANCHLINK>
    13f0:	ea000459 	b	255c <jitend2byte>

000013f4 <opc_A2>:
    13f4:	e28f1fad 	add	r1, pc, #692	; 0x2b4
    13f8:	ea000454 	b	2550 <doublebyteend>

000013fc <opc_A4>:
    13fc:	e28f1faf 	add	r1, pc, #700	; 0x2bc
    1400:	ea000452 	b	2550 <doublebyteend>

00001404 <opc_A5>:
    1404:	e28f1fb1 	add	r1, pc, #708	; 0x2c4
    1408:	e8910f00 	ldm	r1, {r8, r9, sl, fp}
    140c:	ea0005c3 	b	2b20 <fixuptype2accessstore4>

00001410 <opc_A6>:
    1410:	e28f1fb2 	add	r1, pc, #712	; 0x2c8
    1414:	ea00044d 	b	2550 <doublebyteend>

00001418 <opc_A7>:
    1418:	e28f1e2d 	add	r1, pc, #720	; 0x2d0
    141c:	e8910f00 	ldm	r1, {r8, r9, sl, fp}
    1420:	e1888004 	orr	r8, r8, r4
    1424:	e18bb004 	orr	fp, fp, r4
    1428:	ea00044a 	b	2558 <jitend2bytestore4>

0000142c <opc_A8>:
    142c:	e59f82cc 	ldr	r8, [pc, #716]	; 1700 <Bopc_A8>
    1430:	e59f92cc 	ldr	r9, [pc, #716]	; 1704 <Bopc_A8+0x4>
    1434:	e1c680f0 	strd	r8, [r6]
    1438:	ea000581 	b	2a44 <jitend1byte>

0000143c <opc_A9>:
    143c:	e51f8cb0 	ldr	r8, [pc, #-3248]	; 794 <B_NOP>
    1440:	e59fba7c 	ldr	fp, [pc, #2684]	; 1ec4 <opc_FF+0x24>
    1444:	e5868004 	str	r8, [r6, #4]
    1448:	e5868008 	str	r8, [r6, #8]
    144c:	e586800c 	str	r8, [r6, #12]
    1450:	e79bc104 	ldr	ip, [fp, r4, lsl #2]
    1454:	e38cc601 	orr	ip, ip, #1048576	; 0x100000
    1458:	e3ccca0f 	bic	ip, ip, #61440	; 0xf000
    145c:	e38cca0a 	orr	ip, ip, #40960	; 0xa000
    1460:	e586c000 	str	ip, [r6]
    1464:	ea00043c 	b	255c <jitend2byte>

00001468 <opc_AA>:
    1468:	e59f8298 	ldr	r8, [pc, #664]	; 1708 <Bopc_AA>
    146c:	e59f9298 	ldr	r9, [pc, #664]	; 170c <Bopc_AA+0x4>
    1470:	e1c680f0 	strd	r8, [r6]
    1474:	ea000572 	b	2a44 <jitend1byte>

00001478 <opc_AC>:
    1478:	e1d200b1 	ldrh	r0, [r2, #1]
    147c:	e3a0c0f7 	mov	ip, #247	; 0xf7
    1480:	e38ccc07 	orr	ip, ip, #1792	; 0x700
    1484:	e15c02a0 	cmp	ip, r0, lsr #5
    1488:	0a000001 	beq	1494 <opc_AC+0x1c>
    148c:	e28f1f9f 	add	r1, pc, #636	; 0x27c
    1490:	ea00056f 	b	2a54 <jitend3byteloadstoreoperand>
    1494:	e28f1fa3 	add	r1, pc, #652	; 0x28c
    1498:	e8911f80 	ldm	r1, {r7, r8, r9, sl, fp, ip}
    149c:	e59f0a24 	ldr	r0, [pc, #2596]	; 1ec8 <opc_FF+0x28>
    14a0:	e1877005 	orr	r7, r7, r5
    14a4:	e1888004 	orr	r8, r8, r4
    14a8:	e8861f80 	stm	r6, {r7, r8, r9, sl, fp, ip}
    14ac:	e2866008 	add	r6, r6, #8
    14b0:	eb000593 	bl	2b04 <MAKEBRANCHLINK>
    14b4:	ea00056a 	b	2a64 <jitend3byte>

000014b8 <opc_AD>:
    14b8:	e1d200b1 	ldrh	r0, [r2, #1]
    14bc:	e3a0c0f7 	mov	ip, #247	; 0xf7
    14c0:	e38ccc07 	orr	ip, ip, #1792	; 0x700
    14c4:	e15c02a0 	cmp	ip, r0, lsr #5
    14c8:	0a000004 	beq	14e0 <loadio>
    14cc:	e28f1f9b 	add	r1, pc, #620	; 0x26c
    14d0:	e8911f80 	ldm	r1, {r7, r8, r9, sl, fp, ip}
    14d4:	e1877005 	orr	r7, r7, r5
    14d8:	eb000595 	bl	2b34 <fixuptype2accessquick>
    14dc:	ea00055f 	b	2a60 <jitend3bytestore>

000014e0 <loadio>:
    14e0:	e28f1e27 	add	r1, pc, #624	; 0x270
    14e4:	e8911f80 	ldm	r1, {r7, r8, r9, sl, fp, ip}
    14e8:	e59f09d8 	ldr	r0, [pc, #2520]	; 1ec8 <opc_FF+0x28>
    14ec:	e1877005 	orr	r7, r7, r5
    14f0:	e1888004 	orr	r8, r8, r4
    14f4:	e8861f80 	stm	r6, {r7, r8, r9, sl, fp, ip}
    14f8:	e2866008 	add	r6, r6, #8
    14fc:	eb000580 	bl	2b04 <MAKEBRANCHLINK>
    1500:	ea000557 	b	2a64 <jitend3byte>

00001504 <opc_AE>:
    1504:	e1d200b1 	ldrh	r0, [r2, #1]
    1508:	e3a0c0f7 	mov	ip, #247	; 0xf7
    150c:	e38ccc07 	orr	ip, ip, #1792	; 0x700
    1510:	e15c02a0 	cmp	ip, r0, lsr #5
    1514:	0a000001 	beq	1520 <opc_AE+0x1c>
    1518:	e28f1e25 	add	r1, pc, #592	; 0x250
    151c:	ea00054c 	b	2a54 <jitend3byteloadstoreoperand>
    1520:	e28f1e26 	add	r1, pc, #608	; 0x260
    1524:	e8911f80 	ldm	r1, {r7, r8, r9, sl, fp, ip}
    1528:	e59f0998 	ldr	r0, [pc, #2456]	; 1ec8 <opc_FF+0x28>
    152c:	e1877005 	orr	r7, r7, r5
    1530:	e1888004 	orr	r8, r8, r4
    1534:	e8861f80 	stm	r6, {r7, r8, r9, sl, fp, ip}
    1538:	e2866008 	add	r6, r6, #8
    153c:	eb000570 	bl	2b04 <MAKEBRANCHLINK>
    1540:	ea000547 	b	2a64 <jitend3byte>

00001544 <opc_AF>:
    1544:	e59f096c 	ldr	r0, [pc, #2412]	; 1eb8 <opc_FF+0x18>
    1548:	e28f1e25 	add	r1, pc, #592	; 0x250
    154c:	ea00054c 	b	2a84 <jitend3byteexitBBRS>

00001550 <opc_B1>:
    1550:	e28f1e26 	add	r1, pc, #608	; 0x260
    1554:	e8910f00 	ldm	r1, {r8, r9, sl, fp}
    1558:	ea000570 	b	2b20 <fixuptype2accessstore4>

0000155c <opc_B2>:
    155c:	e28f1f99 	add	r1, pc, #612	; 0x264
    1560:	e8910f00 	ldm	r1, {r8, r9, sl, fp}
    1564:	ea00056d 	b	2b20 <fixuptype2accessstore4>

00001568 <opc_B4>:
    1568:	e28f1f9a 	add	r1, pc, #616	; 0x268
    156c:	ea0003f7 	b	2550 <doublebyteend>

00001570 <opc_B5>:
    1570:	e28f1e27 	add	r1, pc, #624	; 0x270
    1574:	ea0003f5 	b	2550 <doublebyteend>

00001578 <opc_B6>:
    1578:	e28f1f9e 	add	r1, pc, #632	; 0x278
    157c:	ea0003f3 	b	2550 <doublebyteend>

00001580 <opc_B7>:
    1580:	e28f1d0a 	add	r1, pc, #640	; 0x280
    1584:	e8910f00 	ldm	r1, {r8, r9, sl, fp}
    1588:	e1888004 	orr	r8, r8, r4
    158c:	e18bb004 	orr	fp, fp, r4
    1590:	ea0003f0 	b	2558 <jitend2bytestore4>

00001594 <opc_B8>:
    1594:	e59f827c 	ldr	r8, [pc, #636]	; 1818 <Bopc_B8>
    1598:	e59f927c 	ldr	r9, [pc, #636]	; 181c <Bopc_B8+0x4>
    159c:	e1c680f0 	strd	r8, [r6]
    15a0:	ea000527 	b	2a44 <jitend1byte>

000015a4 <opc_B9>:
    15a4:	e28f1f9d 	add	r1, pc, #628	; 0x274
    15a8:	ea000529 	b	2a54 <jitend3byteloadstoreoperand>

000015ac <opc_BA>:
    15ac:	e59f8284 	ldr	r8, [pc, #644]	; 1838 <Bopc_BA>
    15b0:	e59f9284 	ldr	r9, [pc, #644]	; 183c <Bopc_BA+0x4>
    15b4:	e1c680f0 	strd	r8, [r6]
    15b8:	ea000521 	b	2a44 <jitend1byte>

000015bc <opc_BC>:
    15bc:	e28f1f9f 	add	r1, pc, #636	; 0x27c
    15c0:	ea000523 	b	2a54 <jitend3byteloadstoreoperand>

000015c4 <opc_BD>:
    15c4:	e28f1fa3 	add	r1, pc, #652	; 0x28c
    15c8:	ea000521 	b	2a54 <jitend3byteloadstoreoperand>

000015cc <opc_BE>:
    15cc:	e28f1fa7 	add	r1, pc, #668	; 0x29c
    15d0:	ea00051f 	b	2a54 <jitend3byteloadstoreoperand>

000015d4 <opc_BF>:
    15d4:	e59f08dc 	ldr	r0, [pc, #2268]	; 1eb8 <opc_FF+0x18>
    15d8:	e28f1faa 	add	r1, pc, #680	; 0x2a8
    15dc:	ea000528 	b	2a84 <jitend3byteexitBBRS>

000015e0 <opc_C0>:
    15e0:	e28f1fae 	add	r1, pc, #696	; 0x2b8
    15e4:	ea0003d9 	b	2550 <doublebyteend>

000015e8 <opc_C1>:
    15e8:	e28f1d0b 	add	r1, pc, #704	; 0x2c0
    15ec:	e8910700 	ldm	r1, {r8, r9, sl}
    15f0:	e59f08d4 	ldr	r0, [pc, #2260]	; 1ecc <opc_FF+0x2c>
    15f4:	e1888004 	orr	r8, r8, r4
    15f8:	e8a60700 	stmia	r6!, {r8, r9, sl}
    15fc:	eb000540 	bl	2b04 <MAKEBRANCHLINK>
    1600:	ea0003d5 	b	255c <jitend2byte>

00001604 <opc_C4>:
    1604:	e28f1e2b 	add	r1, pc, #688	; 0x2b0
    1608:	ea0003d0 	b	2550 <doublebyteend>

0000160c <opc_C5>:
    160c:	e28f1fae 	add	r1, pc, #696	; 0x2b8
    1610:	ea0003ce 	b	2550 <doublebyteend>

00001614 <opc_C6>:
    1614:	e28f1d0b 	add	r1, pc, #704	; 0x2c0
    1618:	e8910700 	ldm	r1, {r8, r9, sl}
    161c:	e59f08ac 	ldr	r0, [pc, #2220]	; 1ed0 <opc_FF+0x30>
    1620:	e1888004 	orr	r8, r8, r4
    1624:	e18aa004 	orr	sl, sl, r4
    1628:	e8a60700 	stmia	r6!, {r8, r9, sl}
    162c:	eb000534 	bl	2b04 <MAKEBRANCHLINK>
    1630:	ea0003c9 	b	255c <jitend2byte>

00001634 <opc_C7>:
    1634:	e28f1fab 	add	r1, pc, #684	; 0x2ac
    1638:	e8910f00 	ldm	r1, {r8, r9, sl, fp}
    163c:	e1888004 	orr	r8, r8, r4
    1640:	e18bb004 	orr	fp, fp, r4
    1644:	ea0003c3 	b	2558 <jitend2bytestore4>

00001648 <opc_C8>:
    1648:	e59f82a8 	ldr	r8, [pc, #680]	; 18f8 <Bopc_C8>
    164c:	e59f92a8 	ldr	r9, [pc, #680]	; 18fc <Bopc_C8+0x4>
    1650:	e1c680f0 	strd	r8, [r6]
    1654:	ea0004fa 	b	2a44 <jitend1byte>

00001658 <opc_C9>:
    1658:	e28f1e2a 	add	r1, pc, #672	; 0x2a0
    165c:	ea0003bb 	b	2550 <doublebyteend>

00001660 <opc_CA>:
    1660:	e59f82a8 	ldr	r8, [pc, #680]	; 1910 <Bopc_CA>
    1664:	e59f92a8 	ldr	r9, [pc, #680]	; 1914 <Bopc_CA+0x4>
    1668:	e1c680f0 	strd	r8, [r6]
    166c:	ea0004f4 	b	2a44 <jitend1byte>

00001670 <opc_CC>:
    1670:	e28f1e2a 	add	r1, pc, #672	; 0x2a0
    1674:	ea0004f6 	b	2a54 <jitend3byteloadstoreoperand>

00001678 <opc_CD>:
    1678:	e28f1e2b 	add	r1, pc, #688	; 0x2b0
    167c:	ea0004f4 	b	2a54 <jitend3byteloadstoreoperand>

00001680 <opc_CE>:
    1680:	e28f1d0b 	add	r1, pc, #704	; 0x2c0
    1684:	ea0004f2 	b	2a54 <jitend3byteloadstoreoperand>

00001688 <opc_CF>:
    1688:	e59f0828 	ldr	r0, [pc, #2088]	; 1eb8 <opc_FF+0x18>
    168c:	e28f1fb3 	add	r1, pc, #716	; 0x2cc
    1690:	ea0004fb 	b	2a84 <jitend3byteexitBBRS>

00001694 <Bopc_A0>:
    1694:	e3a08400 	.word	0xe3a08400
    1698:	e320f000 	nop	{0}
    169c:	e3380000 	teq	r8, #0
    16a0:	e320f000 	nop	{0}

000016a4 <Bopc_A1>:
    16a4:	e28b1400 	.word	0xe28b1400
    16a8:	e1a01c21 	lsr	r1, r1, #24
    16ac:	e1d1c0b0 	ldrh	ip, [r1]

000016b0 <Bopc_A2>:
    16b0:	e3a0b400 	.word	0xe3a0b400
    16b4:	e320f000 	nop	{0}
    16b8:	e33b0000 	teq	fp, #0
    16bc:	e320f000 	nop	{0}

000016c0 <Bopc_A4>:
    16c0:	e5d68000 	ldrb	r8, [r6]
    16c4:	e320f000 	nop	{0}
    16c8:	e1a08c08 	lsl	r8, r8, #24
    16cc:	e3380000 	teq	r8, #0

000016d0 <Bopc_A5>:
    16d0:	e1d6a0d0 	ldrsb	sl, [r6]
    16d4:	e320f000 	nop	{0}
    16d8:	e320f000 	nop	{0}
    16dc:	e33a0000 	teq	sl, #0

000016e0 <Bopc_A6>:
    16e0:	e5d6b000 	ldrb	fp, [r6]
    16e4:	e320f000 	nop	{0}
    16e8:	e1a0bc0b 	lsl	fp, fp, #24
    16ec:	e33b0000 	teq	fp, #0

000016f0 <Bopc_A7>:
    16f0:	e5d6c000 	ldrb	ip, [r6]
    16f4:	e320f000 	nop	{0}
    16f8:	e38cc004 	orr	ip, ip, #4
    16fc:	e5c6c000 	strb	ip, [r6]

00001700 <Bopc_A8>:
    1700:	e1a08c0a 	lsl	r8, sl, #24
    1704:	e33a0000 	teq	sl, #0

00001708 <Bopc_AA>:
    1708:	e1a0bc0a 	lsl	fp, sl, #24
    170c:	e33a0000 	teq	sl, #0

00001710 <Bopc_AC>:
    1710:	e3a01c00 	.word	0xe3a01c00
    1714:	e5d1c000 	ldrb	ip, [r1]
    1718:	e320f000 	nop	{0}
    171c:	e320f000 	nop	{0}
    1720:	e1a08c0c 	lsl	r8, ip, #24
    1724:	e3380000 	teq	r8, #0

00001728 <Bopc_AC_io>:
    1728:	e3a00c00 	.word	0xe3a00c00
    172c:	e3800000 	orr	r0, r0, #0
    1730:	eb00050a 	bl	2b60 <ioload>
    1734:	e1a08c00 	lsl	r8, r0, #24
    1738:	e320f000 	nop	{0}
    173c:	e3380000 	teq	r8, #0

00001740 <Bopc_AD>:
    1740:	e3a01c00 	.word	0xe3a01c00
    1744:	e1d1a0d0 	ldrsb	sl, [r1]
    1748:	e320f000 	nop	{0}
    174c:	e320f000 	nop	{0}
    1750:	e320f000 	nop	{0}
    1754:	e33a0000 	teq	sl, #0

00001758 <Bopc_AD_io>:
    1758:	e3a00c00 	.word	0xe3a00c00
    175c:	e3800000 	orr	r0, r0, #0
    1760:	eb0004fe 	bl	2b60 <ioload>
    1764:	e6afa070 	sxtb	sl, r0
    1768:	e320f000 	nop	{0}
    176c:	e33a0000 	teq	sl, #0

00001770 <Bopc_AE>:
    1770:	e3a01c00 	.word	0xe3a01c00
    1774:	e5d1c000 	ldrb	ip, [r1]
    1778:	e320f000 	nop	{0}
    177c:	e320f000 	nop	{0}
    1780:	e1a0bc0c 	lsl	fp, ip, #24
    1784:	e33b0000 	teq	fp, #0

00001788 <Bopc_AE_io>:
    1788:	e3a00c00 	.word	0xe3a00c00
    178c:	e3800000 	orr	r0, r0, #0
    1790:	eb0004f2 	bl	2b60 <ioload>
    1794:	e1a0bc00 	lsl	fp, r0, #24
    1798:	e320f000 	nop	{0}
    179c:	e33b0000 	teq	fp, #0

000017a0 <Bopc_AF>:
    17a0:	e5d6c000 	ldrb	ip, [r6]
    17a4:	e10f1000 	mrs	r1, CPSR
    17a8:	e31c0004 	tst	ip, #4
    17ac:	eb000000 	bl	17b4 <Bopc_AF+0x14>
    17b0:	ea000000 	b	17b8 <Bopc_B1>
    17b4:	e128f001 	msr	CPSR_f, r1

000017b8 <Bopc_B1>:
    17b8:	e1d6c0b0 	ldrh	ip, [r6]
    17bc:	e1a01c28 	lsr	r1, r8, #24
    17c0:	e191a0dc 	ldrsb	sl, [r1, ip]
    17c4:	e33a0000 	teq	sl, #0

000017c8 <Bopc_B2>:
    17c8:	e1d6c0b0 	ldrh	ip, [r6]
    17cc:	e320f000 	nop	{0}
    17d0:	e1dca0d0 	ldrsb	sl, [ip]
    17d4:	e33a0000 	teq	sl, #0

000017d8 <Bopc_B4>:
    17d8:	e28b1400 	.word	0xe28b1400
    17dc:	e7d6cc21 	ldrb	ip, [r6, r1, lsr #24]
    17e0:	e1a08c0c 	lsl	r8, ip, #24
    17e4:	e3380000 	teq	r8, #0

000017e8 <Bopc_B5>:
    17e8:	e28b1400 	.word	0xe28b1400
    17ec:	e1a01c21 	lsr	r1, r1, #24
    17f0:	e1d1a0d0 	ldrsb	sl, [r1]
    17f4:	e33a0000 	teq	sl, #0

000017f8 <Bopc_B6>:
    17f8:	e2881400 	.word	0xe2881400
    17fc:	e7d6cc21 	ldrb	ip, [r6, r1, lsr #24]
    1800:	e1a0bc0c 	lsl	fp, ip, #24
    1804:	e33b0000 	teq	fp, #0

00001808 <Bopc_B7>:
    1808:	e5d6c000 	ldrb	ip, [r6]
    180c:	e320f000 	nop	{0}
    1810:	e38cc008 	orr	ip, ip, #8
    1814:	e5c6c000 	strb	ip, [r6]

00001818 <Bopc_B8>:
    1818:	e320f000 	nop	{0}
    181c:	e3c77040 	bic	r7, r7, #64	; 0x40

00001820 <Bopc_B9>:
    1820:	e3a01c00 	.word	0xe3a01c00
    1824:	e3811000 	orr	r1, r1, #0
    1828:	e1a0cc28 	lsr	ip, r8, #24
    182c:	e191a0dc 	ldrsb	sl, [r1, ip]
    1830:	e320f000 	nop	{0}
    1834:	e33a0000 	teq	sl, #0

00001838 <Bopc_BA>:
    1838:	e1a0bc09 	lsl	fp, r9, #24
    183c:	e33b0000 	teq	fp, #0

00001840 <Bopc_BC>:
    1840:	e3a01c00 	.word	0xe3a01c00
    1844:	e3811000 	orr	r1, r1, #0
    1848:	e7d18c2b 	ldrb	r8, [r1, fp, lsr #24]
    184c:	e320f000 	nop	{0}
    1850:	e1a08c08 	lsl	r8, r8, #24
    1854:	e3380000 	teq	r8, #0

00001858 <Bopc_BD>:
    1858:	e3a01c00 	.word	0xe3a01c00
    185c:	e3811000 	orr	r1, r1, #0
    1860:	e1a0cc2b 	lsr	ip, fp, #24
    1864:	e191a0dc 	ldrsb	sl, [r1, ip]
    1868:	e320f000 	nop	{0}
    186c:	e33a0000 	teq	sl, #0

00001870 <Bopc_BE>:
    1870:	e3a01c00 	.word	0xe3a01c00
    1874:	e3811000 	orr	r1, r1, #0
    1878:	e7d1bc28 	ldrb	fp, [r1, r8, lsr #24]
    187c:	e320f000 	nop	{0}
    1880:	e1a0bc0b 	lsl	fp, fp, #24
    1884:	e33b0000 	teq	fp, #0

00001888 <Bopc_BF>:
    1888:	e5d6c000 	ldrb	ip, [r6]
    188c:	e10f1000 	mrs	r1, CPSR
    1890:	e31c0008 	tst	ip, #8
    1894:	eb000000 	bl	189c <Bopc_BF+0x14>
    1898:	ea000000 	b	18a0 <Bopc_C0>
    189c:	e128f001 	msr	CPSR_f, r1

000018a0 <Bopc_C0>:
    18a0:	e3580400 	.word	0xe3580400
    18a4:	e320f000 	nop	{0}
    18a8:	e320f000 	nop	{0}
    18ac:	e320f000 	nop	{0}

000018b0 <Bopc_C1>:
    18b0:	e28b1400 	.word	0xe28b1400
    18b4:	e1a01c21 	lsr	r1, r1, #24
    18b8:	e1d110b0 	ldrh	r1, [r1]

000018bc <Bopc_C4>:
    18bc:	e5d6c000 	ldrb	ip, [r6]
    18c0:	e320f000 	nop	{0}
    18c4:	e320f000 	nop	{0}
    18c8:	e1580c0c 	cmp	r8, ip, lsl #24

000018cc <Bopc_C5>:
    18cc:	e5d6c000 	ldrb	ip, [r6]
    18d0:	e1a01c0a 	lsl	r1, sl, #24
    18d4:	e320f000 	nop	{0}
    18d8:	e1510c0c 	cmp	r1, ip, lsl #24

000018dc <Bopc_C6>:
    18dc:	e5d6c000 	ldrb	ip, [r6]
    18e0:	e24cc001 	sub	ip, ip, #1
    18e4:	e5c6c000 	strb	ip, [r6]

000018e8 <Bopc_C7>:
    18e8:	e5d6c000 	ldrb	ip, [r6]
    18ec:	e320f000 	nop	{0}
    18f0:	e38cc010 	orr	ip, ip, #16
    18f4:	e5c6c000 	strb	ip, [r6]

000018f8 <Bopc_C8>:
    18f8:	e2888401 	add	r8, r8, #16777216	; 0x1000000
    18fc:	e3380000 	teq	r8, #0

00001900 <Bopc_C9>:
    1900:	e3a01400 	.word	0xe3a01400
    1904:	e320f000 	nop	{0}
    1908:	e0711c0a 	rsbs	r1, r1, sl, lsl #24
    190c:	e320f000 	nop	{0}

00001910 <Bopc_CA>:
    1910:	e24bb401 	sub	fp, fp, #16777216	; 0x1000000
    1914:	e33b0000 	teq	fp, #0

00001918 <Bopc_CC>:
    1918:	e3a01c00 	.word	0xe3a01c00
    191c:	e5d1c000 	ldrb	ip, [r1]
    1920:	e320f000 	nop	{0}
    1924:	e320f000 	nop	{0}
    1928:	e320f000 	nop	{0}
    192c:	e1580c0c 	cmp	r8, ip, lsl #24

00001930 <Bopc_CD>:
    1930:	e3a01c00 	.word	0xe3a01c00
    1934:	e5d1c000 	ldrb	ip, [r1]
    1938:	e320f000 	nop	{0}
    193c:	e1a01c0a 	lsl	r1, sl, #24
    1940:	e320f000 	nop	{0}
    1944:	e1510c0c 	cmp	r1, ip, lsl #24

00001948 <Bopc_CE>:
    1948:	e3a01c00 	.word	0xe3a01c00
    194c:	e5f1c000 	ldrb	ip, [r1, #0]!
    1950:	e24cc001 	sub	ip, ip, #1
    1954:	e5c1c000 	strb	ip, [r1]
    1958:	e6afc07c 	sxtb	ip, ip
    195c:	e33c0000 	teq	ip, #0

00001960 <Bopc_CF>:
    1960:	e5d6c000 	ldrb	ip, [r6]
    1964:	e10f1000 	mrs	r1, CPSR
    1968:	e31c0010 	tst	ip, #16
    196c:	eb000000 	bl	1974 <Bopc_CF+0x14>
    1970:	ea000000 	b	1978 <Bopc_D1>
    1974:	e128f001 	msr	CPSR_f, r1

00001978 <Bopc_D1>:
    1978:	e1d6c0b0 	ldrh	ip, [r6]
    197c:	e7dccc28 	ldrb	ip, [ip, r8, lsr #24]
    1980:	e1a01c0a 	lsl	r1, sl, #24
    1984:	e1510c0c 	cmp	r1, ip, lsl #24

00001988 <Bopc_D2>:
    1988:	e1d6c0b0 	ldrh	ip, [r6]
    198c:	e5dcc000 	ldrb	ip, [ip]
    1990:	e1a01c0a 	lsl	r1, sl, #24
    1994:	e1510c0c 	cmp	r1, ip, lsl #24

00001998 <Bopc_D5>:
    1998:	e28b1400 	.word	0xe28b1400
    199c:	e7d6cc21 	ldrb	ip, [r6, r1, lsr #24]
    19a0:	e1a01c0a 	lsl	r1, sl, #24
    19a4:	e1510c0c 	cmp	r1, ip, lsl #24

000019a8 <Bopc_D6>:
    19a8:	e28b1400 	.word	0xe28b1400
    19ac:	e7d6cc21 	ldrb	ip, [r6, r1, lsr #24]
    19b0:	e24cc001 	sub	ip, ip, #1

000019b4 <Bopc_D7>:
    19b4:	e5d6c000 	ldrb	ip, [r6]
    19b8:	e320f000 	nop	{0}
    19bc:	e38cc020 	orr	ip, ip, #32
    19c0:	e5c6c000 	strb	ip, [r6]

000019c4 <Bopc_D8>:
    19c4:	e320f000 	nop	{0}
    19c8:	e3c77008 	bic	r7, r7, #8

000019cc <Bopc_D9>:
    19cc:	e3a01c00 	.word	0xe3a01c00
    19d0:	e3811000 	orr	r1, r1, #0
    19d4:	e7d1cc28 	ldrb	ip, [r1, r8, lsr #24]
    19d8:	e320f000 	nop	{0}
    19dc:	e1a01c0a 	lsl	r1, sl, #24
    19e0:	e1510c0c 	cmp	r1, ip, lsl #24

000019e4 <Bopc_DA>:
    19e4:	e1a0cc2b 	lsr	ip, fp, #24

000019e8 <Bopc_DD>:
    19e8:	e3a01c00 	.word	0xe3a01c00
    19ec:	e3811000 	orr	r1, r1, #0
    19f0:	e7d1cc2b 	ldrb	ip, [r1, fp, lsr #24]
    19f4:	e320f000 	nop	{0}
    19f8:	e1a01c0a 	lsl	r1, sl, #24
    19fc:	e1510c0c 	cmp	r1, ip, lsl #24

00001a00 <Bopc_DE>:
    1a00:	e3a01c00 	.word	0xe3a01c00
    1a04:	e3811000 	orr	r1, r1, #0
    1a08:	e7f1cc2b 	ldrb	ip, [r1, fp, lsr #24]!
    1a0c:	e24cc001 	sub	ip, ip, #1
    1a10:	e5c1c000 	strb	ip, [r1]

00001a14 <Bopc_DF>:
    1a14:	e5d6c000 	ldrb	ip, [r6]
    1a18:	e10f1000 	mrs	r1, CPSR
    1a1c:	e31c0020 	tst	ip, #32
    1a20:	eb000000 	bl	1a28 <Bopc_DF+0x14>
    1a24:	ea000000 	b	1a2c <Bopc_E0>
    1a28:	e128f001 	msr	CPSR_f, r1

00001a2c <Bopc_E0>:
    1a2c:	e35b0400 	.word	0xe35b0400
    1a30:	e320f000 	nop	{0}
    1a34:	e320f000 	nop	{0}
    1a38:	e320f000 	nop	{0}

00001a3c <Bopc_E1>:
    1a3c:	e28b1400 	.word	0xe28b1400
    1a40:	e1a01c21 	lsr	r1, r1, #24
    1a44:	e1d110b0 	ldrh	r1, [r1]

00001a48 <Bopc_E3>:
    1a48:	e3a0c001 	mov	ip, #1

00001a4c <Bopc_E4>:
    1a4c:	e5d6c000 	ldrb	ip, [r6]
    1a50:	e320f000 	nop	{0}
    1a54:	e320f000 	nop	{0}
    1a58:	e15b0c0c 	cmp	fp, ip, lsl #24

00001a5c <Bopc_E5>:
    1a5c:	e5d6c000 	ldrb	ip, [r6]
    1a60:	e3170008 	tst	r7, #8
    1a64:	e3c77040 	bic	r7, r7, #64	; 0x40

00001a68 <Bopc_E6>:
    1a68:	e5d6c000 	ldrb	ip, [r6]
    1a6c:	e28cc001 	add	ip, ip, #1
    1a70:	e5c6c000 	strb	ip, [r6]

00001a74 <Bopc_E7>:
    1a74:	e5d6c000 	ldrb	ip, [r6]
    1a78:	e320f000 	nop	{0}
    1a7c:	e38cc040 	orr	ip, ip, #64	; 0x40
    1a80:	e5c6c000 	strb	ip, [r6]

00001a84 <Bopc_E8>:
    1a84:	e28bb401 	add	fp, fp, #16777216	; 0x1000000
    1a88:	e33b0000 	teq	fp, #0

00001a8c <Bopc_E9>:
    1a8c:	e3a0c000 	mov	ip, #0
    1a90:	e3170008 	tst	r7, #8
    1a94:	e3c77040 	bic	r7, r7, #64	; 0x40

00001a98 <Bopc_EB>:
    1a98:	ee1f0f3c 	mrc	15, 0, r0, cr15, cr12, {1}
    1a9c:	e58600e0 	str	r0, [r6, #224]	; 0xe0

00001aa0 <Bopc_EC>:
    1aa0:	e3a01c00 	.word	0xe3a01c00
    1aa4:	e5d1c000 	ldrb	ip, [r1]
    1aa8:	e320f000 	nop	{0}
    1aac:	e320f000 	nop	{0}
    1ab0:	e320f000 	nop	{0}
    1ab4:	e15b0c0c 	cmp	fp, ip, lsl #24

00001ab8 <Bopc_ED>:
    1ab8:	e3a01c00 	.word	0xe3a01c00
    1abc:	e5d1c000 	ldrb	ip, [r1]
    1ac0:	e3170008 	tst	r7, #8
    1ac4:	e3c77040 	bic	r7, r7, #64	; 0x40
    1ac8:	e1a0ac0a 	lsl	sl, sl, #24

00001acc <Bopc_EE>:
    1acc:	e3a01c00 	.word	0xe3a01c00
    1ad0:	e5f1c000 	ldrb	ip, [r1, #0]!
    1ad4:	eb000000 	bl	1adc <Bopc_EE+0x10>
    1ad8:	e6afc07c 	sxtb	ip, ip
    1adc:	e33c0000 	teq	ip, #0

00001ae0 <Bopc_EF>:
    1ae0:	e5d6c000 	ldrb	ip, [r6]
    1ae4:	e10f1000 	mrs	r1, CPSR
    1ae8:	e31c0040 	tst	ip, #64	; 0x40
    1aec:	eb000000 	bl	1af4 <Bopc_EF+0x14>
    1af0:	ea000000 	b	1af8 <Bopc_F1>
    1af4:	e128f001 	msr	CPSR_f, r1

00001af8 <Bopc_F1>:
    1af8:	e1d610b0 	ldrh	r1, [r6]
    1afc:	e3170008 	tst	r7, #8
    1b00:	e7d1cc28 	ldrb	ip, [r1, r8, lsr #24]

00001b04 <Bopc_F2>:
    1b04:	e1d610b0 	ldrh	r1, [r6]
    1b08:	e3170008 	tst	r7, #8
    1b0c:	e5d1c000 	ldrb	ip, [r1]

00001b10 <Bopc_F3>:
    1b10:	e320f000 	nop	{0}

00001b14 <Bopc_F5>:
    1b14:	e28b1400 	.word	0xe28b1400
    1b18:	e3170008 	tst	r7, #8
    1b1c:	e7d6cc21 	ldrb	ip, [r6, r1, lsr #24]

00001b20 <Bopc_F6>:
    1b20:	e28b1400 	.word	0xe28b1400
    1b24:	e7d6cc21 	ldrb	ip, [r6, r1, lsr #24]
    1b28:	e28cc001 	add	ip, ip, #1

00001b2c <Bopc_F7>:
    1b2c:	e5d6c000 	ldrb	ip, [r6]
    1b30:	e320f000 	nop	{0}
    1b34:	e38cc080 	orr	ip, ip, #128	; 0x80
    1b38:	e5c6c000 	strb	ip, [r6]

00001b3c <Bopc_F8>:
    1b3c:	e320f000 	nop	{0}
    1b40:	e3877008 	orr	r7, r7, #8

00001b44 <Bopc_F9>:
    1b44:	e3a01c00 	.word	0xe3a01c00
    1b48:	e3811000 	orr	r1, r1, #0
    1b4c:	e7d1cc28 	ldrb	ip, [r1, r8, lsr #24]
    1b50:	e3170008 	tst	r7, #8
    1b54:	e3c77040 	bic	r7, r7, #64	; 0x40

00001b58 <Bopc_FA>:
    1b58:	e3a0c001 	mov	ip, #1

00001b5c <Bopc_FB>:
    1b5c:	ee1f0f3c 	mrc	15, 0, r0, cr15, cr12, {1}
    1b60:	e58600e4 	str	r0, [r6, #228]	; 0xe4

00001b64 <Bopc_FD>:
    1b64:	e3a01c00 	.word	0xe3a01c00
    1b68:	e3811000 	orr	r1, r1, #0
    1b6c:	e7d1cc2b 	ldrb	ip, [r1, fp, lsr #24]
    1b70:	e3170008 	tst	r7, #8
    1b74:	e3c77040 	bic	r7, r7, #64	; 0x40

00001b78 <Bopc_FE>:
    1b78:	e3a01c00 	.word	0xe3a01c00
    1b7c:	e3811000 	orr	r1, r1, #0
    1b80:	e7f1cc2b 	ldrb	ip, [r1, fp, lsr #24]!
    1b84:	eb000000 	bl	1b8c <Bopc_FE+0x14>
    1b88:	e6afc07c 	sxtb	ip, ip
    1b8c:	e33c0000 	teq	ip, #0

00001b90 <Bopc_FF>:
    1b90:	e5d6c000 	ldrb	ip, [r6]
    1b94:	e10f1000 	mrs	r1, CPSR
    1b98:	e31c0080 	tst	ip, #128	; 0x80
    1b9c:	eb000000 	bl	1ba4 <Bopc_FF+0x14>
    1ba0:	ea000000 	b	1ba8 <opc_D1>
    1ba4:	e128f001 	msr	CPSR_f, r1

00001ba8 <opc_D1>:
    1ba8:	e24f1f8e 	sub	r1, pc, #568	; 0x238
    1bac:	e8910f00 	ldm	r1, {r8, r9, sl, fp}
    1bb0:	ea0003da 	b	2b20 <fixuptype2accessstore4>

00001bb4 <opc_D2>:
    1bb4:	e24f1f8d 	sub	r1, pc, #564	; 0x234
    1bb8:	e8910f00 	ldm	r1, {r8, r9, sl, fp}
    1bbc:	ea0003d7 	b	2b20 <fixuptype2accessstore4>

00001bc0 <opc_D5>:
    1bc0:	e24f1e23 	sub	r1, pc, #560	; 0x230
    1bc4:	ea000261 	b	2550 <doublebyteend>

00001bc8 <opc_D6>:
    1bc8:	e24f1f8a 	sub	r1, pc, #552	; 0x228
    1bcc:	e8910700 	ldm	r1, {r8, r9, sl}
    1bd0:	e59f02fc 	ldr	r0, [pc, #764]	; 1ed4 <opc_FF+0x34>
    1bd4:	e1888004 	orr	r8, r8, r4
    1bd8:	e8a60700 	stmia	r6!, {r8, r9, sl}
    1bdc:	eb0003c8 	bl	2b04 <MAKEBRANCHLINK>
    1be0:	ea00025d 	b	255c <jitend2byte>

00001be4 <opc_D7>:
    1be4:	e24f1f8e 	sub	r1, pc, #568	; 0x238
    1be8:	e8910f00 	ldm	r1, {r8, r9, sl, fp}
    1bec:	e1888004 	orr	r8, r8, r4
    1bf0:	e18bb004 	orr	fp, fp, r4
    1bf4:	ea000257 	b	2558 <jitend2bytestore4>

00001bf8 <opc_D8>:
    1bf8:	e51f823c 	ldr	r8, [pc, #-572]	; 19c4 <Bopc_D8>
    1bfc:	e51f923c 	ldr	r9, [pc, #-572]	; 19c8 <Bopc_D8+0x4>
    1c00:	e1c680f0 	strd	r8, [r6]
    1c04:	ea00038e 	b	2a44 <jitend1byte>

00001c08 <opc_D9>:
    1c08:	e24f1f91 	sub	r1, pc, #580	; 0x244
    1c0c:	ea000390 	b	2a54 <jitend3byteloadstoreoperand>

00001c10 <opc_DA>:
    1c10:	e51fc234 	ldr	ip, [pc, #-564]	; 19e4 <Bopc_DA>
    1c14:	e59f02bc 	ldr	r0, [pc, #700]	; 1ed8 <opc_FF+0x38>
    1c18:	ea000387 	b	2a3c <singleopcodeend>

00001c1c <opc_DD>:
    1c1c:	e24f1f8f 	sub	r1, pc, #572	; 0x23c
    1c20:	ea00038b 	b	2a54 <jitend3byteloadstoreoperand>

00001c24 <opc_DE>:
    1c24:	e24f1f8b 	sub	r1, pc, #556	; 0x22c
    1c28:	e8910f80 	ldm	r1, {r7, r8, r9, sl, fp}
    1c2c:	e59f029c 	ldr	r0, [pc, #668]	; 1ed0 <opc_FF+0x30>
    1c30:	e1877005 	orr	r7, r7, r5
    1c34:	e1888004 	orr	r8, r8, r4
    1c38:	e8a60f80 	stmia	r6!, {r7, r8, r9, sl, fp}
    1c3c:	eb0003b0 	bl	2b04 <MAKEBRANCHLINK>
    1c40:	ea000387 	b	2a64 <jitend3byte>

00001c44 <opc_DF>:
    1c44:	e59f026c 	ldr	r0, [pc, #620]	; 1eb8 <opc_FF+0x18>
    1c48:	e24f1f8f 	sub	r1, pc, #572	; 0x23c
    1c4c:	ea00038c 	b	2a84 <jitend3byteexitBBRS>

00001c50 <opc_E0>:
    1c50:	e24f1f8b 	sub	r1, pc, #556	; 0x22c
    1c54:	ea00023d 	b	2550 <doublebyteend>

00001c58 <opc_E1>:
    1c58:	e24f1f89 	sub	r1, pc, #548	; 0x224
    1c5c:	e8910700 	ldm	r1, {r8, r9, sl}
    1c60:	e59f0274 	ldr	r0, [pc, #628]	; 1edc <opc_FF+0x3c>
    1c64:	e1888004 	orr	r8, r8, r4
    1c68:	e8a60700 	stmia	r6!, {r8, r9, sl}
    1c6c:	eb0003a4 	bl	2b04 <MAKEBRANCHLINK>
    1c70:	ea000239 	b	255c <jitend2byte>

00001c74 <opc_E3>:
    1c74:	e51fc234 	ldr	ip, [pc, #-564]	; 1a48 <Bopc_E3>
    1c78:	e59f0260 	ldr	r0, [pc, #608]	; 1ee0 <opc_FF+0x40>
    1c7c:	ea00036e 	b	2a3c <singleopcodeend>

00001c80 <opc_E4>:
    1c80:	e24f1f8f 	sub	r1, pc, #572	; 0x23c
    1c84:	ea000231 	b	2550 <doublebyteend>

00001c88 <opc_E5>:
    1c88:	e24f1f8d 	sub	r1, pc, #564	; 0x234
    1c8c:	e8910700 	ldm	r1, {r8, r9, sl}
    1c90:	e59f024c 	ldr	r0, [pc, #588]	; 1ee4 <opc_FF+0x44>
    1c94:	e1888004 	orr	r8, r8, r4
    1c98:	e8a60700 	stmia	r6!, {r8, r9, sl}
    1c9c:	eb000398 	bl	2b04 <MAKEBRANCHLINK>
    1ca0:	ea00022d 	b	255c <jitend2byte>

00001ca4 <opc_E6>:
    1ca4:	e24f1f91 	sub	r1, pc, #580	; 0x244
    1ca8:	e8910700 	ldm	r1, {r8, r9, sl}
    1cac:	e59f021c 	ldr	r0, [pc, #540]	; 1ed0 <opc_FF+0x30>
    1cb0:	e1888004 	orr	r8, r8, r4
    1cb4:	e18aa004 	orr	sl, sl, r4
    1cb8:	e8a60700 	stmia	r6!, {r8, r9, sl}
    1cbc:	eb000390 	bl	2b04 <MAKEBRANCHLINK>
    1cc0:	ea000225 	b	255c <jitend2byte>

00001cc4 <opc_E7>:
    1cc4:	e24f1f96 	sub	r1, pc, #600	; 0x258
    1cc8:	e8910f00 	ldm	r1, {r8, r9, sl, fp}
    1ccc:	e1888004 	orr	r8, r8, r4
    1cd0:	e18bb004 	orr	fp, fp, r4
    1cd4:	ea00021f 	b	2558 <jitend2bytestore4>

00001cd8 <opc_E8>:
    1cd8:	e51f825c 	ldr	r8, [pc, #-604]	; 1a84 <Bopc_E8>
    1cdc:	e51f925c 	ldr	r9, [pc, #-604]	; 1a88 <Bopc_E8+0x4>
    1ce0:	e1c680f0 	strd	r8, [r6]
    1ce4:	ea000356 	b	2a44 <jitend1byte>

00001ce8 <opc_E9>:
    1ce8:	e24f1f99 	sub	r1, pc, #612	; 0x264
    1cec:	e8910700 	ldm	r1, {r8, r9, sl}
    1cf0:	e59f01ec 	ldr	r0, [pc, #492]	; 1ee4 <opc_FF+0x44>
    1cf4:	e1888004 	orr	r8, r8, r4
    1cf8:	e8a60700 	stmia	r6!, {r8, r9, sl}
    1cfc:	eb000380 	bl	2b04 <MAKEBRANCHLINK>
    1d00:	ea000215 	b	255c <jitend2byte>

00001d04 <opc_EB>:
    1d04:	e51f8274 	ldr	r8, [pc, #-628]	; 1a98 <Bopc_EB>
    1d08:	e51f9274 	ldr	r9, [pc, #-628]	; 1a9c <Bopc_EB+0x4>
    1d0c:	e1c680f0 	strd	r8, [r6]
    1d10:	ea00034b 	b	2a44 <jitend1byte>

00001d14 <opc_EC>:
    1d14:	e24f1f9f 	sub	r1, pc, #636	; 0x27c
    1d18:	ea00034d 	b	2a54 <jitend3byteloadstoreoperand>

00001d1c <opc_ED>:
    1d1c:	e24f1f9b 	sub	r1, pc, #620	; 0x26c
    1d20:	e8910f80 	ldm	r1, {r7, r8, r9, sl, fp}
    1d24:	e59f01bc 	ldr	r0, [pc, #444]	; 1ee8 <opc_FF+0x48>
    1d28:	e1877005 	orr	r7, r7, r5
    1d2c:	e1888004 	orr	r8, r8, r4
    1d30:	e8a60f80 	stmia	r6!, {r7, r8, r9, sl, fp}
    1d34:	eb000372 	bl	2b04 <MAKEBRANCHLINK>
    1d38:	ea000349 	b	2a64 <jitend3byte>

00001d3c <opc_EE>:
    1d3c:	e1d2c0b1 	ldrh	ip, [r2, #1]
    1d40:	e59f01a4 	ldr	r0, [pc, #420]	; 1eec <opc_FF+0x4c>
    1d44:	e24f1d0a 	sub	r1, pc, #640	; 0x280
    1d48:	e8910f80 	ldm	r1, {r7, r8, r9, sl, fp}
    1d4c:	e1877005 	orr	r7, r7, r5
    1d50:	e1888004 	orr	r8, r8, r4
    1d54:	e8860f80 	stm	r6, {r7, r8, r9, sl, fp}
    1d58:	e2866008 	add	r6, r6, #8
    1d5c:	eb000368 	bl	2b04 <MAKEBRANCHLINK>
    1d60:	e286600c 	add	r6, r6, #12
    1d64:	e1a0010c 	lsl	r0, ip, #2
    1d68:	e28006d1 	add	r0, r0, #219152384	; 0xd100000
    1d6c:	eb000364 	bl	2b04 <MAKEBRANCHLINK>
    1d70:	ea00033b 	b	2a64 <jitend3byte>

00001d74 <opc_EF>:
    1d74:	e59f013c 	ldr	r0, [pc, #316]	; 1eb8 <opc_FF+0x18>
    1d78:	e24f1e2a 	sub	r1, pc, #672	; 0x2a0
    1d7c:	ea000340 	b	2a84 <jitend3byteexitBBRS>

00001d80 <opc_F1>:
    1d80:	e24f1e29 	sub	r1, pc, #656	; 0x290
    1d84:	e8910700 	ldm	r1, {r8, r9, sl}
    1d88:	e59f0160 	ldr	r0, [pc, #352]	; 1ef0 <opc_FF+0x50>
    1d8c:	eb000368 	bl	2b34 <fixuptype2accessquick>
    1d90:	e8a60700 	stmia	r6!, {r8, r9, sl}
    1d94:	eb00035a 	bl	2b04 <MAKEBRANCHLINK>
    1d98:	ea0001ef 	b	255c <jitend2byte>

00001d9c <opc_F2>:
    1d9c:	e24f1e2a 	sub	r1, pc, #672	; 0x2a0
    1da0:	e8910700 	ldm	r1, {r8, r9, sl}
    1da4:	e59f0144 	ldr	r0, [pc, #324]	; 1ef0 <opc_FF+0x50>
    1da8:	eb000361 	bl	2b34 <fixuptype2accessquick>
    1dac:	e8a60700 	stmia	r6!, {r8, r9, sl}
    1db0:	eb000353 	bl	2b04 <MAKEBRANCHLINK>
    1db4:	ea0001e8 	b	255c <jitend2byte>

00001db8 <opc_F3>:
    1db8:	e51fc2b0 	ldr	ip, [pc, #-688]	; 1b10 <Bopc_F3>
    1dbc:	e59f0130 	ldr	r0, [pc, #304]	; 1ef4 <opc_FF+0x54>
    1dc0:	ea00031d 	b	2a3c <singleopcodeend>

00001dc4 <opc_F5>:
    1dc4:	e24f1fae 	sub	r1, pc, #696	; 0x2b8
    1dc8:	e8910700 	ldm	r1, {r8, r9, sl}
    1dcc:	e59f011c 	ldr	r0, [pc, #284]	; 1ef0 <opc_FF+0x50>
    1dd0:	e1888004 	orr	r8, r8, r4
    1dd4:	e8a60700 	stmia	r6!, {r8, r9, sl}
    1dd8:	eb000349 	bl	2b04 <MAKEBRANCHLINK>
    1ddc:	ea0001de 	b	255c <jitend2byte>

00001de0 <opc_F6>:
    1de0:	e24f1fb2 	sub	r1, pc, #712	; 0x2c8
    1de4:	e8910700 	ldm	r1, {r8, r9, sl}
    1de8:	e59f00e4 	ldr	r0, [pc, #228]	; 1ed4 <opc_FF+0x34>
    1dec:	e1888004 	orr	r8, r8, r4
    1df0:	e8a60700 	stmia	r6!, {r8, r9, sl}
    1df4:	eb000342 	bl	2b04 <MAKEBRANCHLINK>
    1df8:	ea0001d7 	b	255c <jitend2byte>

00001dfc <opc_F7>:
    1dfc:	e24f1fb6 	sub	r1, pc, #728	; 0x2d8
    1e00:	e8910f00 	ldm	r1, {r8, r9, sl, fp}
    1e04:	e1888004 	orr	r8, r8, r4
    1e08:	e18bb004 	orr	fp, fp, r4
    1e0c:	ea0001d1 	b	2558 <jitend2bytestore4>

00001e10 <opc_F8>:
    1e10:	e51f82dc 	ldr	r8, [pc, #-732]	; 1b3c <Bopc_F8>
    1e14:	e51f92dc 	ldr	r9, [pc, #-732]	; 1b40 <Bopc_F8+0x4>
    1e18:	e1c680f0 	strd	r8, [r6]
    1e1c:	ea000308 	b	2a44 <jitend1byte>

00001e20 <opc_F9>:
    1e20:	e24f1fb9 	sub	r1, pc, #740	; 0x2e4
    1e24:	e8910f80 	ldm	r1, {r7, r8, r9, sl, fp}
    1e28:	e59f00b4 	ldr	r0, [pc, #180]	; 1ee4 <opc_FF+0x44>
    1e2c:	e1877005 	orr	r7, r7, r5
    1e30:	e1888004 	orr	r8, r8, r4
    1e34:	e8a60f80 	stmia	r6!, {r7, r8, r9, sl, fp}
    1e38:	eb000331 	bl	2b04 <MAKEBRANCHLINK>
    1e3c:	ea000308 	b	2a64 <jitend3byte>

00001e40 <opc_FA>:
    1e40:	e51fc2f0 	ldr	ip, [pc, #-752]	; 1b58 <Bopc_FA>
    1e44:	e59f00ac 	ldr	r0, [pc, #172]	; 1ef8 <opc_FF+0x58>
    1e48:	ea0002fb 	b	2a3c <singleopcodeend>

00001e4c <opc_FB>:
    1e4c:	e51f82f8 	ldr	r8, [pc, #-760]	; 1b5c <Bopc_FB>
    1e50:	e51f92f8 	ldr	r9, [pc, #-760]	; 1b60 <Bopc_FB+0x4>
    1e54:	e1c680f0 	strd	r8, [r6]
    1e58:	ea0002f9 	b	2a44 <jitend1byte>

00001e5c <opc_FD>:
    1e5c:	e24f1c03 	sub	r1, pc, #768	; 0x300
    1e60:	e8910f80 	ldm	r1, {r7, r8, r9, sl, fp}
    1e64:	e59f0078 	ldr	r0, [pc, #120]	; 1ee4 <opc_FF+0x44>
    1e68:	e1877005 	orr	r7, r7, r5
    1e6c:	e1888004 	orr	r8, r8, r4
    1e70:	e8a60f80 	stmia	r6!, {r7, r8, r9, sl, fp}
    1e74:	eb000322 	bl	2b04 <MAKEBRANCHLINK>
    1e78:	ea0002f9 	b	2a64 <jitend3byte>

00001e7c <opc_FE>:
    1e7c:	e24f1fc3 	sub	r1, pc, #780	; 0x30c
    1e80:	e8911f80 	ldm	r1, {r7, r8, r9, sl, fp, ip}
    1e84:	e59f0060 	ldr	r0, [pc, #96]	; 1eec <opc_FF+0x4c>
    1e88:	e1877005 	orr	r7, r7, r5
    1e8c:	e1888004 	orr	r8, r8, r4
    1e90:	e8861f80 	stm	r6, {r7, r8, r9, sl, fp, ip}
    1e94:	e286600c 	add	r6, r6, #12
    1e98:	eb000319 	bl	2b04 <MAKEBRANCHLINK>
    1e9c:	ea0002f0 	b	2a64 <jitend3byte>

00001ea0 <opc_FF>:
    1ea0:	e59f0010 	ldr	r0, [pc, #16]	; 1eb8 <opc_FF+0x18>
    1ea4:	e24f1fc7 	sub	r1, pc, #796	; 0x31c
    1ea8:	ea0002f5 	b	2a84 <jitend3byteexitBBRS>
    1eac:	00002db0 	.word	0x00002db0
    1eb0:	00002d98 	.word	0x00002d98
    1eb4:	00002b78 	.word	0x00002b78
    1eb8:	00002d8c 	.word	0x00002d8c
    1ebc:	00002da8 	.word	0x00002da8
    1ec0:	00002edc 	.word	0x00002edc
    1ec4:	0000303c 	.word	0x0000303c
    1ec8:	00002b60 	.word	0x00002b60
    1ecc:	00002ecc 	.word	0x00002ecc
    1ed0:	00002dc0 	.word	0x00002dc0
    1ed4:	00002dbc 	.word	0x00002dbc
    1ed8:	00002f10 	.word	0x00002f10
    1edc:	00002fd0 	.word	0x00002fd0
    1ee0:	00002d4c 	.word	0x00002d4c
    1ee4:	00002fdc 	.word	0x00002fdc
    1ee8:	00002fe0 	.word	0x00002fe0
    1eec:	00002dcc 	.word	0x00002dcc
    1ef0:	00002fd8 	.word	0x00002fd8
    1ef4:	00002d30 	.word	0x00002d30
    1ef8:	00002de4 	.word	0x00002de4

00001efc <exec_65tubejit>:
    1efc:	e92d4ff0 	push	{r4, r5, r6, r7, r8, r9, sl, fp, lr}
    1f00:	e58fd0d8 	str	sp, [pc, #216]	; 1fe0 <stackptr>
    1f04:	e1a06000 	mov	r6, r0
    1f08:	e58f60d8 	str	r6, [pc, #216]	; 1fe8 <ram6502store>
    1f0c:	e59fc0ac 	ldr	ip, [pc, #172]	; 1fc0 <exec_65tube_exit+0x14>
    1f10:	e59c0000 	ldr	r0, [ip]
    1f14:	e58f00b8 	str	r0, [pc, #184]	; 1fd4 <old_fiq_vector>
    1f18:	e59f00a4 	ldr	r0, [pc, #164]	; 1fc4 <exec_65tube_exit+0x18>
    1f1c:	e58c0000 	str	r0, [ip]
    1f20:	ee1f0f1c 	mrc	15, 0, r0, cr15, cr12, {0}
    1f24:	e3c00008 	bic	r0, r0, #8
    1f28:	ee0f0f1c 	mcr	15, 0, r0, cr15, cr12, {0}
    1f2c:	ee1f0f3c 	mrc	15, 0, r0, cr15, cr12, {1}
    1f30:	e59f2090 	ldr	r2, [pc, #144]	; 1fc8 <exec_65tube_exit+0x1c>
    1f34:	e1a02122 	lsr	r2, r2, #2
    1f38:	e28224eb 	add	r2, r2, #-352321536	; 0xeb000000
    1f3c:	e3a0040d 	mov	r0, #218103808	; 0xd000000
    1f40:	e59fc084 	ldr	ip, [pc, #132]	; 1fcc <exec_65tube_exit+0x20>
    1f44:	e3a046d1 	mov	r4, #219152384	; 0xd100000
    1f48:	e3a03801 	mov	r3, #65536	; 0x10000

00001f4c <loopdejitsetup>:
    1f4c:	e2533001 	subs	r3, r3, #1
    1f50:	e4802008 	str	r2, [r0], #8
    1f54:	e2422002 	sub	r2, r2, #2
    1f58:	e484c004 	str	ip, [r4], #4
    1f5c:	1afffffa 	bne	1f4c <loopdejitsetup>
    1f60:	e3a0c000 	mov	ip, #0
    1f64:	ee07cf1a 	mcr	15, 0, ip, cr7, cr10, {0}
    1f68:	e3a0c000 	mov	ip, #0
    1f6c:	ee07cf15 	mcr	15, 0, ip, cr7, cr5, {0}
    1f70:	e3a00801 	mov	r0, #65536	; 0x10000
    1f74:	e15000b4 	ldrh	r0, [r0, #-4]
    1f78:	e2869e1f 	add	r9, r6, #496	; 0x1f0
    1f7c:	e3a07000 	mov	r7, #0
    1f80:	e1a00180 	lsl	r0, r0, #3
    1f84:	e280040d 	add	r0, r0, #218103808	; 0xd000000
    1f88:	e3a056d1 	mov	r5, #219152384	; 0xd100000
    1f8c:	e12fff10 	bx	r0

00001f90 <reset_handler>:
    1f90:	f10c00c0 	cpsid	if
    1f94:	e8bd0007 	pop	{r0, r1, r2}
    1f98:	e58f003c 	str	r0, [pc, #60]	; 1fdc <fiq_spsr_temp>
    1f9c:	e58f1034 	str	r1, [pc, #52]	; 1fd8 <fiq_lr_temp>
    1fa0:	e128f002 	msr	CPSR_f, r2
    1fa4:	e8bd5fff 	pop	{r0, r1, r2, r3, r4, r5, r6, r7, r8, r9, sl, fp, ip, lr}
    1fa8:	f10800c0 	cpsie	if

00001fac <exec_65tube_exit>:
    1fac:	e59fc00c 	ldr	ip, [pc, #12]	; 1fc0 <exec_65tube_exit+0x14>
    1fb0:	e59f001c 	ldr	r0, [pc, #28]	; 1fd4 <old_fiq_vector>
    1fb4:	e58c0000 	str	r0, [ip]
    1fb8:	e59fd020 	ldr	sp, [pc, #32]	; 1fe0 <stackptr>
    1fbc:	e8bd8ff0 	pop	{r4, r5, r6, r7, r8, r9, sl, fp, pc}
    1fc0:	00000000 	.word	0x00000000
    1fc4:	00002000 	.word	0x00002000
    1fc8:	f300251c 	.word	0xf300251c
    1fcc:	e12fff1e 	.word	0xe12fff1e

00001fd0 <debugflag>:
    1fd0:	00000000 	.word	0x00000000

00001fd4 <old_fiq_vector>:
    1fd4:	00000000 	.word	0x00000000

00001fd8 <fiq_lr_temp>:
    1fd8:	00000000 	.word	0x00000000

00001fdc <fiq_spsr_temp>:
    1fdc:	00000000 	.word	0x00000000

00001fe0 <stackptr>:
    1fe0:	00000000 	.word	0x00000000

00001fe4 <cacheline>:
    1fe4:	00000000 	.word	0x00000000

00001fe8 <ram6502store>:
    1fe8:	00000000 	.word	0x00000000
    1fec:	e320f000 	nop	{0}
    1ff0:	e320f000 	nop	{0}
    1ff4:	e320f000 	nop	{0}
    1ff8:	e320f000 	nop	{0}
    1ffc:	e320f000 	nop	{0}

00002000 <arm_fiq_handler_jit>:
    2000:	e59fc1d4 	ldr	ip, [pc, #468]	; 21dc <handle_nmi+0x5c>
    2004:	e59fa1d4 	ldr	sl, [pc, #468]	; 21e0 <handle_nmi+0x60>
    2008:	e59fb1d4 	ldr	fp, [pc, #468]	; 21e4 <handle_nmi+0x64>
    200c:	e92d400f 	push	{r0, r1, r2, r3, lr}
    2010:	e59c0000 	ldr	r0, [ip]
    2014:	e59b0000 	ldr	r0, [fp]
    2018:	ebfffffe 	bl	0 <tube_io_handler>
    201c:	e59ac000 	ldr	ip, [sl]
    2020:	e8bd400f 	pop	{r0, r1, r2, r3, lr}
    2024:	e31c0007 	tst	ip, #7
    2028:	025ef004 	subseq	pc, lr, #4
    202c:	e50fe05c 	str	lr, [pc, #-92]	; 1fd8 <fiq_lr_temp>
    2030:	e14fc000 	mrs	ip, SPSR
    2034:	e50fc060 	str	ip, [pc, #-96]	; 1fdc <fiq_spsr_temp>
    2038:	e321f0d3 	msr	CPSR_c, #211	; 0xd3
    203c:	e92d5fff 	push	{r0, r1, r2, r3, r4, r5, r6, r7, r8, r9, sl, fp, ip, lr}
    2040:	e51f006c 	ldr	r0, [pc, #-108]	; 1fdc <fiq_spsr_temp>
    2044:	e51f1074 	ldr	r1, [pc, #-116]	; 1fd8 <fiq_lr_temp>
    2048:	e10f2000 	mrs	r2, CPSR
    204c:	e92d0007 	push	{r0, r1, r2}
    2050:	e1a01009 	mov	r1, r9
    2054:	e200001f 	and	r0, r0, #31
    2058:	e3500012 	cmp	r0, #18
    205c:	059f0184 	ldreq	r0, [pc, #388]	; 21e8 <handle_nmi+0x68>
    2060:	05901000 	ldreq	r1, [r0]
    2064:	e3510000 	cmp	r1, #0
    2068:	11a09001 	movne	r9, r1
    206c:	e3a056d1 	mov	r5, #219152384	; 0xd100000
    2070:	e51f6090 	ldr	r6, [pc, #-144]	; 1fe8 <ram6502store>
    2074:	e59f1164 	ldr	r1, [pc, #356]	; 21e0 <handle_nmi+0x60>
    2078:	e5910000 	ldr	r0, [r1]
    207c:	e3100004 	tst	r0, #4
    2080:	1affffc2 	bne	1f90 <reset_handler>
    2084:	e3100002 	tst	r0, #2
    2088:	1a00003c 	bne	2180 <handle_nmi>
    208c:	e3170004 	tst	r7, #4
    2090:	1a000001 	bne	209c <noirq>
    2094:	e3100001 	tst	r0, #1
    2098:	1a000024 	bne	2130 <handle_irq_fake>

0000209c <noirq>:
    209c:	e8bd0007 	pop	{r0, r1, r2}
    20a0:	e50f00cc 	str	r0, [pc, #-204]	; 1fdc <fiq_spsr_temp>
    20a4:	e50f10d4 	str	r1, [pc, #-212]	; 1fd8 <fiq_lr_temp>
    20a8:	e128f002 	msr	CPSR_f, r2
    20ac:	e8bd5fff 	pop	{r0, r1, r2, r3, r4, r5, r6, r7, r8, r9, sl, fp, ip, lr}
    20b0:	e321f0d1 	msr	CPSR_c, #209	; 0xd1
    20b4:	e51fc0e0 	ldr	ip, [pc, #-224]	; 1fdc <fiq_spsr_temp>
    20b8:	e51fe0e8 	ldr	lr, [pc, #-232]	; 1fd8 <fiq_lr_temp>
    20bc:	e169f00c 	msr	SPSR_fc, ip
    20c0:	e25ef004 	subs	pc, lr, #4

000020c4 <CHECK_IRQ>:
    20c4:	e59f0114 	ldr	r0, [pc, #276]	; 21e0 <handle_nmi+0x60>
    20c8:	e5900000 	ldr	r0, [r0]
    20cc:	e3170004 	tst	r7, #4
    20d0:	02200001 	eoreq	r0, r0, #1
    20d4:	03100001 	tsteq	r0, #1
    20d8:	0a000003 	beq	20ec <handle_irq>
    20dc:	e128f00c 	msr	CPSR_f, ip
    20e0:	e1a01181 	lsl	r1, r1, #3
    20e4:	e281140d 	add	r1, r1, #218103808	; 0xd000000
    20e8:	e12fff11 	bx	r1

000020ec <handle_irq>:
    20ec:	e128f00c 	msr	CPSR_f, ip
    20f0:	e2499002 	sub	r9, r9, #2
    20f4:	e3a0c801 	mov	ip, #65536	; 0x10000
    20f8:	e1c910b1 	strh	r1, [r9, #1]
    20fc:	e3899c01 	orr	r9, r9, #256	; 0x100
    2100:	e15c00b2 	ldrh	r0, [ip, #-2]
    2104:	e387c020 	orr	ip, r7, #32
    2108:	438cc080 	orrmi	ip, ip, #128	; 0x80
    210c:	238cc001 	orrcs	ip, ip, #1
    2110:	038cc002 	orreq	ip, ip, #2
    2114:	e449c001 	strb	ip, [r9], #-1
    2118:	e3899c01 	orr	r9, r9, #256	; 0x100
    211c:	e3877004 	orr	r7, r7, #4
    2120:	e3c77008 	bic	r7, r7, #8
    2124:	e1a00180 	lsl	r0, r0, #3
    2128:	e280040d 	add	r0, r0, #218103808	; 0xd000000
    212c:	e12fff10 	bx	r0

00002130 <handle_irq_fake>:
    2130:	e128f002 	msr	CPSR_f, r2
    2134:	e2499002 	sub	r9, r9, #2
    2138:	e3a0c801 	mov	ip, #65536	; 0x10000
    213c:	e3a010ff 	mov	r1, #255	; 0xff
    2140:	e3811cff 	orr	r1, r1, #65280	; 0xff00
    2144:	e1c910b1 	strh	r1, [r9, #1]
    2148:	e3899c01 	orr	r9, r9, #256	; 0x100
    214c:	e15c00b2 	ldrh	r0, [ip, #-2]
    2150:	e387c020 	orr	ip, r7, #32
    2154:	438cc080 	orrmi	ip, ip, #128	; 0x80
    2158:	238cc001 	orrcs	ip, ip, #1
    215c:	038cc002 	orreq	ip, ip, #2
    2160:	e449c001 	strb	ip, [r9], #-1
    2164:	e3899c01 	orr	r9, r9, #256	; 0x100
    2168:	e3877004 	orr	r7, r7, #4
    216c:	e3c77008 	bic	r7, r7, #8
    2170:	e1a00180 	lsl	r0, r0, #3
    2174:	e280040d 	add	r0, r0, #218103808	; 0xd000000
    2178:	f1080040 	cpsie	f
    217c:	e12fff10 	bx	r0

00002180 <handle_nmi>:
    2180:	e5910000 	ldr	r0, [r1]
    2184:	e3c00002 	bic	r0, r0, #2
    2188:	e5810000 	str	r0, [r1]
    218c:	e128f002 	msr	CPSR_f, r2
    2190:	e2499002 	sub	r9, r9, #2
    2194:	e3a0c801 	mov	ip, #65536	; 0x10000
    2198:	e3a010ff 	mov	r1, #255	; 0xff
    219c:	e3811cff 	orr	r1, r1, #65280	; 0xff00
    21a0:	e1c910b1 	strh	r1, [r9, #1]
    21a4:	e3899c01 	orr	r9, r9, #256	; 0x100
    21a8:	e15c00b6 	ldrh	r0, [ip, #-6]
    21ac:	e387c020 	orr	ip, r7, #32
    21b0:	438cc080 	orrmi	ip, ip, #128	; 0x80
    21b4:	238cc001 	orrcs	ip, ip, #1
    21b8:	038cc002 	orreq	ip, ip, #2
    21bc:	e449c001 	strb	ip, [r9], #-1
    21c0:	e3899c01 	orr	r9, r9, #256	; 0x100
    21c4:	e3877004 	orr	r7, r7, #4
    21c8:	e3c77008 	bic	r7, r7, #8
    21cc:	e1a00180 	lsl	r0, r0, #3
    21d0:	e280040d 	add	r0, r0, #218103808	; 0xd000000
    21d4:	f1080040 	cpsie	f
    21d8:	e12fff10 	bx	r0
    21dc:	2000b844 	.word	0x2000b844
    21e0:	00000000 	.word	0x00000000
    21e4:	2020c014 	.word	0x2020c014
    21e8:	00000000 	.word	0x00000000

000021ec <dejit16bit1>:
    21ec:	e59f279c 	ldr	r2, [pc, #1948]	; 2990 <opcode_table+0x400>
    21f0:	e59f079c 	ldr	r0, [pc, #1948]	; 2994 <opcode_table+0x404>
    21f4:	e3a0c40d 	mov	ip, #218103808	; 0xd000000
    21f8:	e0422181 	sub	r2, r2, r1, lsl #3
    21fc:	e3a03000 	mov	r3, #0
    2200:	e1a02122 	lsr	r2, r2, #2
    2204:	e28224eb 	add	r2, r2, #-352321536	; 0xeb000000
    2208:	e7ac2181 	str	r2, [ip, r1, lsl #3]!
    220c:	ee07cf3a 	mcr	15, 0, ip, cr7, cr10, {1}
    2210:	ee07cf35 	mcr	15, 0, ip, cr7, cr5, {1}
    2214:	ee07cff5 	mcr	15, 0, ip, cr7, cr5, {7}
    2218:	ee073f9a 	mcr	15, 0, r3, cr7, cr10, {4}
    221c:	ee07cf35 	mcr	15, 0, ip, cr7, cr5, {1}
    2220:	e3a0c6d1 	mov	ip, #219152384	; 0xd100000
    2224:	e7ac0101 	str	r0, [ip, r1, lsl #2]!
    2228:	ee07cf3a 	mcr	15, 0, ip, cr7, cr10, {1}
    222c:	ee07cf35 	mcr	15, 0, ip, cr7, cr5, {1}
    2230:	ee07cff5 	mcr	15, 0, ip, cr7, cr5, {7}
    2234:	ee073f9a 	mcr	15, 0, r3, cr7, cr10, {4}
    2238:	ee07cf35 	mcr	15, 0, ip, cr7, cr5, {1}
    223c:	e12fff1e 	bx	lr

00002240 <dejit16bit21>:
    2240:	e59f2748 	ldr	r2, [pc, #1864]	; 2990 <opcode_table+0x400>
    2244:	e59f0748 	ldr	r0, [pc, #1864]	; 2994 <opcode_table+0x404>
    2248:	e3a0c40d 	mov	ip, #218103808	; 0xd000000
    224c:	e0422181 	sub	r2, r2, r1, lsl #3
    2250:	e3a03000 	mov	r3, #0
    2254:	e1a02122 	lsr	r2, r2, #2
    2258:	e28224eb 	add	r2, r2, #-352321536	; 0xeb000000
    225c:	e7ac2181 	str	r2, [ip, r1, lsl #3]!
    2260:	ee07cf3a 	mcr	15, 0, ip, cr7, cr10, {1}
    2264:	ee07cf35 	mcr	15, 0, ip, cr7, cr5, {1}
    2268:	ee07cff5 	mcr	15, 0, ip, cr7, cr5, {7}
    226c:	ee073f9a 	mcr	15, 0, r3, cr7, cr10, {4}
    2270:	ee07cf35 	mcr	15, 0, ip, cr7, cr5, {1}
    2274:	e2422002 	sub	r2, r2, #2
    2278:	e5ac2008 	str	r2, [ip, #8]!
    227c:	ee07cf3a 	mcr	15, 0, ip, cr7, cr10, {1}
    2280:	ee07cf35 	mcr	15, 0, ip, cr7, cr5, {1}
    2284:	ee07cff5 	mcr	15, 0, ip, cr7, cr5, {7}
    2288:	ee073f9a 	mcr	15, 0, r3, cr7, cr10, {4}
    228c:	ee07cf35 	mcr	15, 0, ip, cr7, cr5, {1}
    2290:	e3a0c6d1 	mov	ip, #219152384	; 0xd100000
    2294:	e7ac0101 	str	r0, [ip, r1, lsl #2]!
    2298:	ee07cf3a 	mcr	15, 0, ip, cr7, cr10, {1}
    229c:	ee07cf35 	mcr	15, 0, ip, cr7, cr5, {1}
    22a0:	ee07cff5 	mcr	15, 0, ip, cr7, cr5, {7}
    22a4:	ee073f9a 	mcr	15, 0, r3, cr7, cr10, {4}
    22a8:	ee07cf35 	mcr	15, 0, ip, cr7, cr5, {1}
    22ac:	e5ac0004 	str	r0, [ip, #4]!
    22b0:	ee07cf3a 	mcr	15, 0, ip, cr7, cr10, {1}
    22b4:	ee07cf35 	mcr	15, 0, ip, cr7, cr5, {1}
    22b8:	ee07cff5 	mcr	15, 0, ip, cr7, cr5, {7}
    22bc:	ee073f9a 	mcr	15, 0, r3, cr7, cr10, {4}
    22c0:	ee07cf35 	mcr	15, 0, ip, cr7, cr5, {1}
    22c4:	e12fff1e 	bx	lr

000022c8 <dejit16bit22>:
    22c8:	e59f26c0 	ldr	r2, [pc, #1728]	; 2990 <opcode_table+0x400>
    22cc:	e59f06c0 	ldr	r0, [pc, #1728]	; 2994 <opcode_table+0x404>
    22d0:	e3a0c40d 	mov	ip, #218103808	; 0xd000000
    22d4:	e0422181 	sub	r2, r2, r1, lsl #3
    22d8:	e3a03000 	mov	r3, #0
    22dc:	e1a02122 	lsr	r2, r2, #2
    22e0:	e28224eb 	add	r2, r2, #-352321536	; 0xeb000000
    22e4:	e7ac2181 	str	r2, [ip, r1, lsl #3]!
    22e8:	ee07cf3a 	mcr	15, 0, ip, cr7, cr10, {1}
    22ec:	ee07cf35 	mcr	15, 0, ip, cr7, cr5, {1}
    22f0:	ee07cff5 	mcr	15, 0, ip, cr7, cr5, {7}
    22f4:	ee073f9a 	mcr	15, 0, r3, cr7, cr10, {4}
    22f8:	ee07cf35 	mcr	15, 0, ip, cr7, cr5, {1}
    22fc:	e2822002 	add	r2, r2, #2
    2300:	e52c2008 	str	r2, [ip, #-8]!
    2304:	ee07cf3a 	mcr	15, 0, ip, cr7, cr10, {1}
    2308:	ee07cf35 	mcr	15, 0, ip, cr7, cr5, {1}
    230c:	ee07cff5 	mcr	15, 0, ip, cr7, cr5, {7}
    2310:	ee073f9a 	mcr	15, 0, r3, cr7, cr10, {4}
    2314:	ee07cf35 	mcr	15, 0, ip, cr7, cr5, {1}
    2318:	e3a0c6d1 	mov	ip, #219152384	; 0xd100000
    231c:	e7ac0101 	str	r0, [ip, r1, lsl #2]!
    2320:	ee07cf3a 	mcr	15, 0, ip, cr7, cr10, {1}
    2324:	ee07cf35 	mcr	15, 0, ip, cr7, cr5, {1}
    2328:	ee07cff5 	mcr	15, 0, ip, cr7, cr5, {7}
    232c:	ee073f9a 	mcr	15, 0, r3, cr7, cr10, {4}
    2330:	ee07cf35 	mcr	15, 0, ip, cr7, cr5, {1}
    2334:	e52c0004 	str	r0, [ip, #-4]!
    2338:	ee07cf3a 	mcr	15, 0, ip, cr7, cr10, {1}
    233c:	ee07cf35 	mcr	15, 0, ip, cr7, cr5, {1}
    2340:	ee07cff5 	mcr	15, 0, ip, cr7, cr5, {7}
    2344:	ee073f9a 	mcr	15, 0, r3, cr7, cr10, {4}
    2348:	ee07cf35 	mcr	15, 0, ip, cr7, cr5, {1}
    234c:	e12fff1e 	bx	lr

00002350 <dejit16bit31>:
    2350:	e59f2638 	ldr	r2, [pc, #1592]	; 2990 <opcode_table+0x400>
    2354:	e59f0638 	ldr	r0, [pc, #1592]	; 2994 <opcode_table+0x404>
    2358:	e3a0c40d 	mov	ip, #218103808	; 0xd000000
    235c:	e0422181 	sub	r2, r2, r1, lsl #3
    2360:	e3a03000 	mov	r3, #0
    2364:	e1a02122 	lsr	r2, r2, #2
    2368:	e28224eb 	add	r2, r2, #-352321536	; 0xeb000000
    236c:	e7ac2181 	str	r2, [ip, r1, lsl #3]!
    2370:	ee07cf3a 	mcr	15, 0, ip, cr7, cr10, {1}
    2374:	ee07cf35 	mcr	15, 0, ip, cr7, cr5, {1}
    2378:	ee07cff5 	mcr	15, 0, ip, cr7, cr5, {7}
    237c:	ee073f9a 	mcr	15, 0, r3, cr7, cr10, {4}
    2380:	ee07cf35 	mcr	15, 0, ip, cr7, cr5, {1}
    2384:	e2422002 	sub	r2, r2, #2
    2388:	e5ac2008 	str	r2, [ip, #8]!
    238c:	ee07cff5 	mcr	15, 0, ip, cr7, cr5, {7}
    2390:	e2422002 	sub	r2, r2, #2
    2394:	e5ac2008 	str	r2, [ip, #8]!
    2398:	ee07cf3a 	mcr	15, 0, ip, cr7, cr10, {1}
    239c:	ee07cf35 	mcr	15, 0, ip, cr7, cr5, {1}
    23a0:	ee07cff5 	mcr	15, 0, ip, cr7, cr5, {7}
    23a4:	ee073f9a 	mcr	15, 0, r3, cr7, cr10, {4}
    23a8:	ee07cf35 	mcr	15, 0, ip, cr7, cr5, {1}
    23ac:	e3a0c6d1 	mov	ip, #219152384	; 0xd100000
    23b0:	e7ac0101 	str	r0, [ip, r1, lsl #2]!
    23b4:	ee07cf3a 	mcr	15, 0, ip, cr7, cr10, {1}
    23b8:	ee07cf35 	mcr	15, 0, ip, cr7, cr5, {1}
    23bc:	ee07cff5 	mcr	15, 0, ip, cr7, cr5, {7}
    23c0:	ee073f9a 	mcr	15, 0, r3, cr7, cr10, {4}
    23c4:	ee07cf35 	mcr	15, 0, ip, cr7, cr5, {1}
    23c8:	e5ac0004 	str	r0, [ip, #4]!
    23cc:	ee07cff5 	mcr	15, 0, ip, cr7, cr5, {7}
    23d0:	e5ac0004 	str	r0, [ip, #4]!
    23d4:	ee07cf3a 	mcr	15, 0, ip, cr7, cr10, {1}
    23d8:	ee07cf35 	mcr	15, 0, ip, cr7, cr5, {1}
    23dc:	ee07cff5 	mcr	15, 0, ip, cr7, cr5, {7}
    23e0:	ee073f9a 	mcr	15, 0, r3, cr7, cr10, {4}
    23e4:	ee07cf35 	mcr	15, 0, ip, cr7, cr5, {1}
    23e8:	e12fff1e 	bx	lr

000023ec <dejit16bit32>:
    23ec:	e59f259c 	ldr	r2, [pc, #1436]	; 2990 <opcode_table+0x400>
    23f0:	e59f059c 	ldr	r0, [pc, #1436]	; 2994 <opcode_table+0x404>
    23f4:	e3a0c40d 	mov	ip, #218103808	; 0xd000000
    23f8:	e0422181 	sub	r2, r2, r1, lsl #3
    23fc:	e3a03000 	mov	r3, #0
    2400:	e1a02122 	lsr	r2, r2, #2
    2404:	e28224eb 	add	r2, r2, #-352321536	; 0xeb000000
    2408:	e7ac2181 	str	r2, [ip, r1, lsl #3]!
    240c:	ee07cff5 	mcr	15, 0, ip, cr7, cr5, {7}
    2410:	e2822002 	add	r2, r2, #2
    2414:	e52c2008 	str	r2, [ip, #-8]!
    2418:	ee07cf3a 	mcr	15, 0, ip, cr7, cr10, {1}
    241c:	ee07cf35 	mcr	15, 0, ip, cr7, cr5, {1}
    2420:	ee07cff5 	mcr	15, 0, ip, cr7, cr5, {7}
    2424:	ee073f9a 	mcr	15, 0, r3, cr7, cr10, {4}
    2428:	ee07cf35 	mcr	15, 0, ip, cr7, cr5, {1}
    242c:	e2422004 	sub	r2, r2, #4
    2430:	e5ac2010 	str	r2, [ip, #16]!
    2434:	ee07cf3a 	mcr	15, 0, ip, cr7, cr10, {1}
    2438:	ee07cf35 	mcr	15, 0, ip, cr7, cr5, {1}
    243c:	ee07cff5 	mcr	15, 0, ip, cr7, cr5, {7}
    2440:	ee073f9a 	mcr	15, 0, r3, cr7, cr10, {4}
    2444:	ee07cf35 	mcr	15, 0, ip, cr7, cr5, {1}
    2448:	e3a0c6d1 	mov	ip, #219152384	; 0xd100000
    244c:	e7ac0101 	str	r0, [ip, r1, lsl #2]!
    2450:	ee07cff5 	mcr	15, 0, ip, cr7, cr5, {7}
    2454:	e52c0004 	str	r0, [ip, #-4]!
    2458:	ee07cf3a 	mcr	15, 0, ip, cr7, cr10, {1}
    245c:	ee07cf35 	mcr	15, 0, ip, cr7, cr5, {1}
    2460:	ee07cff5 	mcr	15, 0, ip, cr7, cr5, {7}
    2464:	ee073f9a 	mcr	15, 0, r3, cr7, cr10, {4}
    2468:	ee07cf35 	mcr	15, 0, ip, cr7, cr5, {1}
    246c:	e5ac0008 	str	r0, [ip, #8]!
    2470:	ee07cf3a 	mcr	15, 0, ip, cr7, cr10, {1}
    2474:	ee07cf35 	mcr	15, 0, ip, cr7, cr5, {1}
    2478:	ee07cff5 	mcr	15, 0, ip, cr7, cr5, {7}
    247c:	ee073f9a 	mcr	15, 0, r3, cr7, cr10, {4}
    2480:	ee07cf35 	mcr	15, 0, ip, cr7, cr5, {1}
    2484:	e12fff1e 	bx	lr

00002488 <dejit16bit33>:
    2488:	e59f2500 	ldr	r2, [pc, #1280]	; 2990 <opcode_table+0x400>
    248c:	e59f0500 	ldr	r0, [pc, #1280]	; 2994 <opcode_table+0x404>
    2490:	e3a0c40d 	mov	ip, #218103808	; 0xd000000
    2494:	e0422181 	sub	r2, r2, r1, lsl #3
    2498:	e3a03000 	mov	r3, #0
    249c:	e1a02122 	lsr	r2, r2, #2
    24a0:	e28224eb 	add	r2, r2, #-352321536	; 0xeb000000
    24a4:	e7ac2181 	str	r2, [ip, r1, lsl #3]!
    24a8:	ee07cf3a 	mcr	15, 0, ip, cr7, cr10, {1}
    24ac:	ee07cf35 	mcr	15, 0, ip, cr7, cr5, {1}
    24b0:	ee07cff5 	mcr	15, 0, ip, cr7, cr5, {7}
    24b4:	ee073f9a 	mcr	15, 0, r3, cr7, cr10, {4}
    24b8:	ee07cf35 	mcr	15, 0, ip, cr7, cr5, {1}
    24bc:	e2822002 	add	r2, r2, #2
    24c0:	e52c2008 	str	r2, [ip, #-8]!
    24c4:	ee07cff5 	mcr	15, 0, ip, cr7, cr5, {7}
    24c8:	e2822002 	add	r2, r2, #2
    24cc:	e52c2008 	str	r2, [ip, #-8]!
    24d0:	ee07cf3a 	mcr	15, 0, ip, cr7, cr10, {1}
    24d4:	ee07cf35 	mcr	15, 0, ip, cr7, cr5, {1}
    24d8:	ee07cff5 	mcr	15, 0, ip, cr7, cr5, {7}
    24dc:	ee073f9a 	mcr	15, 0, r3, cr7, cr10, {4}
    24e0:	ee07cf35 	mcr	15, 0, ip, cr7, cr5, {1}
    24e4:	e3a0c6d1 	mov	ip, #219152384	; 0xd100000
    24e8:	e7ac0101 	str	r0, [ip, r1, lsl #2]!
    24ec:	ee07cf3a 	mcr	15, 0, ip, cr7, cr10, {1}
    24f0:	ee07cf35 	mcr	15, 0, ip, cr7, cr5, {1}
    24f4:	ee07cff5 	mcr	15, 0, ip, cr7, cr5, {7}
    24f8:	ee073f9a 	mcr	15, 0, r3, cr7, cr10, {4}
    24fc:	ee07cf35 	mcr	15, 0, ip, cr7, cr5, {1}
    2500:	e52c0004 	str	r0, [ip, #-4]!
    2504:	ee07cff5 	mcr	15, 0, ip, cr7, cr5, {7}
    2508:	e52c0004 	str	r0, [ip, #-4]!
    250c:	ee07cf3a 	mcr	15, 0, ip, cr7, cr10, {1}
    2510:	ee07cf35 	mcr	15, 0, ip, cr7, cr5, {1}
    2514:	ee07cff5 	mcr	15, 0, ip, cr7, cr5, {7}
    2518:	ee073f9a 	mcr	15, 0, r3, cr7, cr10, {4}
    251c:	ee07cf35 	mcr	15, 0, ip, cr7, cr5, {1}
    2520:	e12fff1e 	bx	lr

00002524 <dojit>:
    2524:	e10f4000 	mrs	r4, CPSR
    2528:	f10c00c0 	cpsid	if
    252c:	e24ee004 	sub	lr, lr, #4
    2530:	e92d5fff 	push	{r0, r1, r2, r3, r4, r5, r6, r7, r8, r9, sl, fp, ip, lr}
    2534:	e59f845c 	ldr	r8, [pc, #1116]	; 2998 <opcode_table+0x408>
    2538:	e3a07601 	mov	r7, #1048576	; 0x100000
    253c:	e5887000 	str	r7, [r8]
    2540:	e24e240d 	sub	r2, lr, #218103808	; 0xd000000
    2544:	e1a0300e 	mov	r3, lr
    2548:	e1a021a2 	lsr	r2, r2, #3
    254c:	ea000007 	b	2570 <dojitloop>

00002550 <doublebyteend>:
    2550:	e8910f00 	ldm	r1, {r8, r9, sl, fp}
    2554:	e1888004 	orr	r8, r8, r4

00002558 <jitend2bytestore4>:
    2558:	e8860f00 	stm	r6, {r8, r9, sl, fp}

0000255c <jitend2byte>:
    255c:	e59f0438 	ldr	r0, [pc, #1080]	; 299c <opcode_table+0x40c>
    2560:	eb000158 	bl	2ac8 <MAKEBRANCHFILLINJITTEDTABLES>
    2564:	e2800021 	add	r0, r0, #33	; 0x21
    2568:	e2822002 	add	r2, r2, #2
    256c:	e5810004 	str	r0, [r1, #4]

00002570 <dojitloop>:
    2570:	e5d27000 	ldrb	r7, [r2]
    2574:	e1a06182 	lsl	r6, r2, #3
    2578:	e28f0010 	add	r0, pc, #16
    257c:	e286640d 	add	r6, r6, #218103808	; 0xd000000
    2580:	e7900107 	ldr	r0, [r0, r7, lsl #2]
    2584:	e5d24001 	ldrb	r4, [r2, #1]
    2588:	e5d25002 	ldrb	r5, [r2, #2]
    258c:	e12fff10 	bx	r0

00002590 <opcode_table>:
    2590:	000000f0 	.word	0x000000f0
    2594:	000000fc 	.word	0x000000fc
    2598:	00000010 	.word	0x00000010
    259c:	00000000 	.word	0x00000000
    25a0:	0000011c 	.word	0x0000011c
    25a4:	00000138 	.word	0x00000138
    25a8:	00000144 	.word	0x00000144
    25ac:	00000158 	.word	0x00000158
    25b0:	0000016c 	.word	0x0000016c
    25b4:	00000178 	.word	0x00000178
    25b8:	00000194 	.word	0x00000194
    25bc:	00000000 	.word	0x00000000
    25c0:	000001a4 	.word	0x000001a4
    25c4:	000001c4 	.word	0x000001c4
    25c8:	000001d8 	.word	0x000001d8
    25cc:	000001e0 	.word	0x000001e0
    25d0:	00000048 	.word	0x00000048
    25d4:	000001ec 	.word	0x000001ec
    25d8:	000001f8 	.word	0x000001f8
    25dc:	00000000 	.word	0x00000000
    25e0:	00000204 	.word	0x00000204
    25e4:	00000220 	.word	0x00000220
    25e8:	00000228 	.word	0x00000228
    25ec:	00000244 	.word	0x00000244
    25f0:	00000258 	.word	0x00000258
    25f4:	00000278 	.word	0x00000278
    25f8:	00000280 	.word	0x00000280
    25fc:	00000000 	.word	0x00000000
    2600:	0000028c 	.word	0x0000028c
    2604:	000002ac 	.word	0x000002ac
    2608:	000002b4 	.word	0x000002b4
    260c:	000002bc 	.word	0x000002bc
    2610:	000002c8 	.word	0x000002c8
    2614:	000002f0 	.word	0x000002f0
    2618:	00000010 	.word	0x00000010
    261c:	00000000 	.word	0x00000000
    2620:	00000310 	.word	0x00000310
    2624:	0000032c 	.word	0x0000032c
    2628:	00000338 	.word	0x00000338
    262c:	0000034c 	.word	0x0000034c
    2630:	00000360 	.word	0x00000360
    2634:	0000036c 	.word	0x0000036c
    2638:	00000388 	.word	0x00000388
    263c:	00000000 	.word	0x00000000
    2640:	00000394 	.word	0x00000394
    2644:	000003f4 	.word	0x000003f4
    2648:	00000408 	.word	0x00000408
    264c:	00000410 	.word	0x00000410
    2650:	00000064 	.word	0x00000064
    2654:	00000874 	.word	0x00000874
    2658:	00000880 	.word	0x00000880
    265c:	00000000 	.word	0x00000000
    2660:	0000088c 	.word	0x0000088c
    2664:	000008a8 	.word	0x000008a8
    2668:	000008b0 	.word	0x000008b0
    266c:	000008cc 	.word	0x000008cc
    2670:	000008e0 	.word	0x000008e0
    2674:	00000900 	.word	0x00000900
    2678:	00000908 	.word	0x00000908
    267c:	00000000 	.word	0x00000000
    2680:	00000914 	.word	0x00000914
    2684:	00000934 	.word	0x00000934
    2688:	0000093c 	.word	0x0000093c
    268c:	00000944 	.word	0x00000944
    2690:	00000950 	.word	0x00000950
    2694:	0000095c 	.word	0x0000095c
    2698:	00000010 	.word	0x00000010
    269c:	00000000 	.word	0x00000000
    26a0:	00000010 	.word	0x00000010
    26a4:	0000097c 	.word	0x0000097c
    26a8:	00000988 	.word	0x00000988
    26ac:	0000099c 	.word	0x0000099c
    26b0:	000009b0 	.word	0x000009b0
    26b4:	000009c0 	.word	0x000009c0
    26b8:	000009dc 	.word	0x000009dc
    26bc:	00000000 	.word	0x00000000
    26c0:	000009ec 	.word	0x000009ec
    26c4:	000009f8 	.word	0x000009f8
    26c8:	00000a0c 	.word	0x00000a0c
    26cc:	00000a14 	.word	0x00000a14
    26d0:	00000a20 	.word	0x00000a20
    26d4:	00000a4c 	.word	0x00000a4c
    26d8:	00000a58 	.word	0x00000a58
    26dc:	00000000 	.word	0x00000000
    26e0:	00000010 	.word	0x00000010
    26e4:	00000a64 	.word	0x00000a64
    26e8:	00000a6c 	.word	0x00000a6c
    26ec:	00000a74 	.word	0x00000a74
    26f0:	00000a88 	.word	0x00000a88
    26f4:	00000a94 	.word	0x00000a94
    26f8:	00000a9c 	.word	0x00000a9c
    26fc:	00000000 	.word	0x00000000
    2700:	0000002c 	.word	0x0000002c
    2704:	00000aa8 	.word	0x00000aa8
    2708:	00000ab0 	.word	0x00000ab0
    270c:	00000ab8 	.word	0x00000ab8
    2710:	00000ac4 	.word	0x00000ac4
    2714:	00000ad8 	.word	0x00000ad8
    2718:	00000010 	.word	0x00000010
    271c:	00000000 	.word	0x00000000
    2720:	00000af4 	.word	0x00000af4
    2724:	00000b18 	.word	0x00000b18
    2728:	00000b34 	.word	0x00000b34
    272c:	00000b48 	.word	0x00000b48
    2730:	00000b5c 	.word	0x00000b5c
    2734:	00000b68 	.word	0x00000b68
    2738:	00000b84 	.word	0x00000b84
    273c:	00000000 	.word	0x00000000
    2740:	00000b90 	.word	0x00000b90
    2744:	00000ba8 	.word	0x00000ba8
    2748:	00000bc8 	.word	0x00000bc8
    274c:	00000bd0 	.word	0x00000bd0
    2750:	00000bdc 	.word	0x00000bdc
    2754:	00000c08 	.word	0x00000c08
    2758:	00000c24 	.word	0x00000c24
    275c:	00000000 	.word	0x00000000
    2760:	00000c40 	.word	0x00000c40
    2764:	00000c48 	.word	0x00000c48
    2768:	00000c64 	.word	0x00000c64
    276c:	00000c80 	.word	0x00000c80
    2770:	00000c94 	.word	0x00000c94
    2774:	00000ca4 	.word	0x00000ca4
    2778:	00000cc4 	.word	0x00000cc4
    277c:	00000000 	.word	0x00000000
    2780:	00000cd0 	.word	0x00000cd0
    2784:	00000ce8 	.word	0x00000ce8
    2788:	00000d08 	.word	0x00000d08
    278c:	00000d10 	.word	0x00000d10
    2790:	000010f0 	.word	0x000010f0
    2794:	0000110c 	.word	0x0000110c
    2798:	00000010 	.word	0x00000010
    279c:	00000000 	.word	0x00000000
    27a0:	00001128 	.word	0x00001128
    27a4:	0000114c 	.word	0x0000114c
    27a8:	00001170 	.word	0x00001170
    27ac:	00001194 	.word	0x00001194
    27b0:	000011a8 	.word	0x000011a8
    27b4:	000011b8 	.word	0x000011b8
    27b8:	000011d4 	.word	0x000011d4
    27bc:	00000000 	.word	0x00000000
    27c0:	000011e4 	.word	0x000011e4
    27c4:	0000123c 	.word	0x0000123c
    27c8:	00001294 	.word	0x00001294
    27cc:	000012ec 	.word	0x000012ec
    27d0:	00000080 	.word	0x00000080
    27d4:	000012f8 	.word	0x000012f8
    27d8:	00001304 	.word	0x00001304
    27dc:	00000000 	.word	0x00000000
    27e0:	00001310 	.word	0x00001310
    27e4:	0000132c 	.word	0x0000132c
    27e8:	00001334 	.word	0x00001334
    27ec:	00001350 	.word	0x00001350
    27f0:	00001364 	.word	0x00001364
    27f4:	00001374 	.word	0x00001374
    27f8:	0000137c 	.word	0x0000137c
    27fc:	00000000 	.word	0x00000000
    2800:	0000138c 	.word	0x0000138c
    2804:	000013b4 	.word	0x000013b4
    2808:	000013bc 	.word	0x000013bc
    280c:	000013c4 	.word	0x000013c4
    2810:	000013d0 	.word	0x000013d0
    2814:	000013d8 	.word	0x000013d8
    2818:	000013f4 	.word	0x000013f4
    281c:	00000000 	.word	0x00000000
    2820:	000013fc 	.word	0x000013fc
    2824:	00001404 	.word	0x00001404
    2828:	00001410 	.word	0x00001410
    282c:	00001418 	.word	0x00001418
    2830:	0000142c 	.word	0x0000142c
    2834:	0000143c 	.word	0x0000143c
    2838:	00001468 	.word	0x00001468
    283c:	00000000 	.word	0x00000000
    2840:	00001478 	.word	0x00001478
    2844:	000014b8 	.word	0x000014b8
    2848:	00001504 	.word	0x00001504
    284c:	00001544 	.word	0x00001544
    2850:	0000009c 	.word	0x0000009c
    2854:	00001550 	.word	0x00001550
    2858:	0000155c 	.word	0x0000155c
    285c:	00000000 	.word	0x00000000
    2860:	00001568 	.word	0x00001568
    2864:	00001570 	.word	0x00001570
    2868:	00001578 	.word	0x00001578
    286c:	00001580 	.word	0x00001580
    2870:	00001594 	.word	0x00001594
    2874:	000015a4 	.word	0x000015a4
    2878:	000015ac 	.word	0x000015ac
    287c:	00000000 	.word	0x00000000
    2880:	000015bc 	.word	0x000015bc
    2884:	000015c4 	.word	0x000015c4
    2888:	000015cc 	.word	0x000015cc
    288c:	000015d4 	.word	0x000015d4
    2890:	000015e0 	.word	0x000015e0
    2894:	000015e8 	.word	0x000015e8
    2898:	00000010 	.word	0x00000010
    289c:	00000000 	.word	0x00000000
    28a0:	00001604 	.word	0x00001604
    28a4:	0000160c 	.word	0x0000160c
    28a8:	00001614 	.word	0x00001614
    28ac:	00001634 	.word	0x00001634
    28b0:	00001648 	.word	0x00001648
    28b4:	00001658 	.word	0x00001658
    28b8:	00001660 	.word	0x00001660
    28bc:	00000000 	.word	0x00000000
    28c0:	00001670 	.word	0x00001670
    28c4:	00001678 	.word	0x00001678
    28c8:	00001680 	.word	0x00001680
    28cc:	00001688 	.word	0x00001688
    28d0:	000000b8 	.word	0x000000b8
    28d4:	00001ba8 	.word	0x00001ba8
    28d8:	00001bb4 	.word	0x00001bb4
    28dc:	00000000 	.word	0x00000000
    28e0:	00000010 	.word	0x00000010
    28e4:	00001bc0 	.word	0x00001bc0
    28e8:	00001bc8 	.word	0x00001bc8
    28ec:	00001be4 	.word	0x00001be4
    28f0:	00001bf8 	.word	0x00001bf8
    28f4:	00001c08 	.word	0x00001c08
    28f8:	00001c10 	.word	0x00001c10
    28fc:	00000000 	.word	0x00000000
    2900:	0000002c 	.word	0x0000002c
    2904:	00001c1c 	.word	0x00001c1c
    2908:	00001c24 	.word	0x00001c24
    290c:	00001c44 	.word	0x00001c44
    2910:	00001c50 	.word	0x00001c50
    2914:	00001c58 	.word	0x00001c58
    2918:	00000010 	.word	0x00000010
    291c:	00001c74 	.word	0x00001c74
    2920:	00001c80 	.word	0x00001c80
    2924:	00001c88 	.word	0x00001c88
    2928:	00001ca4 	.word	0x00001ca4
    292c:	00001cc4 	.word	0x00001cc4
    2930:	00001cd8 	.word	0x00001cd8
    2934:	00001ce8 	.word	0x00001ce8
    2938:	00000000 	.word	0x00000000
    293c:	00001d04 	.word	0x00001d04
    2940:	00001d14 	.word	0x00001d14
    2944:	00001d1c 	.word	0x00001d1c
    2948:	00001d3c 	.word	0x00001d3c
    294c:	00001d74 	.word	0x00001d74
    2950:	000000d4 	.word	0x000000d4
    2954:	00001d80 	.word	0x00001d80
    2958:	00001d9c 	.word	0x00001d9c
    295c:	00001db8 	.word	0x00001db8
    2960:	00000010 	.word	0x00000010
    2964:	00001dc4 	.word	0x00001dc4
    2968:	00001de0 	.word	0x00001de0
    296c:	00001dfc 	.word	0x00001dfc
    2970:	00001e10 	.word	0x00001e10
    2974:	00001e20 	.word	0x00001e20
    2978:	00001e40 	.word	0x00001e40
    297c:	00001e4c 	.word	0x00001e4c
    2980:	0000002c 	.word	0x0000002c
    2984:	00001e5c 	.word	0x00001e5c
    2988:	00001e7c 	.word	0x00001e7c
    298c:	00001ea0 	.word	0x00001ea0
    2990:	f300251c 	.word	0xf300251c
    2994:	e12fff1e 	.word	0xe12fff1e
    2998:	2020001c 	.word	0x2020001c
    299c:	f2f02238 	.word	0xf2f02238

000029a0 <branchsavewords>:
    29a0:	e5860000 	str	r0, [r6]
    29a4:	e586c004 	str	ip, [r6, #4]
    29a8:	e586c008 	str	ip, [r6, #8]
    29ac:	e586c00c 	str	ip, [r6, #12]

000029b0 <jitend2byteexit>:
    29b0:	e59f066c 	ldr	r0, [pc, #1644]	; 3024 <decimal_mode_sbc+0x2c>
    29b4:	eb000043 	bl	2ac8 <MAKEBRANCHFILLINJITTEDTABLES>
    29b8:	e2800021 	add	r0, r0, #33	; 0x21
    29bc:	e2822002 	add	r2, r2, #2
    29c0:	e5810004 	str	r0, [r1, #4]

000029c4 <dojitexit>:
    29c4:	e1a02182 	lsl	r2, r2, #3
    29c8:	e282740d 	add	r7, r2, #218103808	; 0xd000000
    29cc:	e3a0c000 	mov	ip, #0
    29d0:	ec437f0c 	mcrr	15, 0, r7, r3, cr12
    29d4:	ec437f05 	mcrr	15, 0, r7, r3, cr5
    29d8:	ee07cf9a 	mcr	15, 0, ip, cr7, cr10, {4}
    29dc:	ec437f05 	mcrr	15, 0, r7, r3, cr5
    29e0:	e243440d 	sub	r4, r3, #218103808	; 0xd000000
    29e4:	e1a040a4 	lsr	r4, r4, #1
    29e8:	e1a020a2 	lsr	r2, r2, #1
    29ec:	e28446d1 	add	r4, r4, #219152384	; 0xd100000
    29f0:	e28226d1 	add	r2, r2, #219152384	; 0xd100000
    29f4:	ec442f0c 	mcrr	15, 0, r2, r4, cr12
    29f8:	ec442f05 	mcrr	15, 0, r2, r4, cr5
    29fc:	ee07cf9a 	mcr	15, 0, ip, cr7, cr10, {4}
    2a00:	ec442f05 	mcrr	15, 0, r2, r4, cr5
    2a04:	ee07cfd5 	mcr	15, 0, ip, cr7, cr5, {6}
    2a08:	ee07cf95 	mcr	15, 0, ip, cr7, cr5, {4}
    2a0c:	e59f8614 	ldr	r8, [pc, #1556]	; 3028 <decimal_mode_sbc+0x30>
    2a10:	e3a07601 	mov	r7, #1048576	; 0x100000
    2a14:	e5887000 	str	r7, [r8]
    2a18:	e8bd5fff 	pop	{r0, r1, r2, r3, r4, r5, r6, r7, r8, r9, sl, fp, ip, lr}
    2a1c:	e129f004 	msr	CPSR_fc, r4
    2a20:	e12fff1e 	bx	lr

00002a24 <singleopcodeexit>:
    2a24:	e486c004 	str	ip, [r6], #4
    2a28:	eb000035 	bl	2b04 <MAKEBRANCHLINK>

00002a2c <jitend1byteexit>:
    2a2c:	e59f05f8 	ldr	r0, [pc, #1528]	; 302c <decimal_mode_sbc+0x34>
    2a30:	eb000024 	bl	2ac8 <MAKEBRANCHFILLINJITTEDTABLES>
    2a34:	e2822001 	add	r2, r2, #1
    2a38:	eaffffe1 	b	29c4 <dojitexit>

00002a3c <singleopcodeend>:
    2a3c:	e486c004 	str	ip, [r6], #4
    2a40:	eb00002f 	bl	2b04 <MAKEBRANCHLINK>

00002a44 <jitend1byte>:
    2a44:	e59f05e0 	ldr	r0, [pc, #1504]	; 302c <decimal_mode_sbc+0x34>
    2a48:	eb00001e 	bl	2ac8 <MAKEBRANCHFILLINJITTEDTABLES>
    2a4c:	e2822001 	add	r2, r2, #1
    2a50:	eafffec6 	b	2570 <dojitloop>

00002a54 <jitend3byteloadstoreoperand>:
    2a54:	e8911f80 	ldm	r1, {r7, r8, r9, sl, fp, ip}
    2a58:	e1877005 	orr	r7, r7, r5
    2a5c:	e1888004 	orr	r8, r8, r4

00002a60 <jitend3bytestore>:
    2a60:	e8861f80 	stm	r6, {r7, r8, r9, sl, fp, ip}

00002a64 <jitend3byte>:
    2a64:	e59f05c4 	ldr	r0, [pc, #1476]	; 3030 <decimal_mode_sbc+0x38>
    2a68:	eb000016 	bl	2ac8 <MAKEBRANCHFILLINJITTEDTABLES>
    2a6c:	e2800026 	add	r0, r0, #38	; 0x26
    2a70:	e2822003 	add	r2, r2, #3
    2a74:	e5810004 	str	r0, [r1, #4]
    2a78:	e2800026 	add	r0, r0, #38	; 0x26
    2a7c:	e5810008 	str	r0, [r1, #8]
    2a80:	eafffeba 	b	2570 <dojitloop>

00002a84 <jitend3byteexitBBRS>:
    2a84:	e8911f80 	ldm	r1, {r7, r8, r9, sl, fp, ip}
    2a88:	e6af5075 	sxtb	r5, r5
    2a8c:	e1a05085 	lsl	r5, r5, #1
    2a90:	e3c554ff 	bic	r5, r5, #-16777216	; 0xff000000
    2a94:	e385b4ea 	orr	fp, r5, #-369098752	; 0xea000000
    2a98:	e1877004 	orr	r7, r7, r4
    2a9c:	e8861f80 	stm	r6, {r7, r8, r9, sl, fp, ip}
    2aa0:	e286600c 	add	r6, r6, #12
    2aa4:	eb000016 	bl	2b04 <MAKEBRANCHLINK>

00002aa8 <jitend3byteexit>:
    2aa8:	e59f0580 	ldr	r0, [pc, #1408]	; 3030 <decimal_mode_sbc+0x38>
    2aac:	eb000005 	bl	2ac8 <MAKEBRANCHFILLINJITTEDTABLES>
    2ab0:	e2800026 	add	r0, r0, #38	; 0x26
    2ab4:	e2822003 	add	r2, r2, #3
    2ab8:	e5810004 	str	r0, [r1, #4]
    2abc:	e2800026 	add	r0, r0, #38	; 0x26
    2ac0:	e5810008 	str	r0, [r1, #8]
    2ac4:	eaffffbe 	b	29c4 <dojitexit>

00002ac8 <MAKEBRANCHFILLINJITTEDTABLES>:
    2ac8:	e0400102 	sub	r0, r0, r2, lsl #2
    2acc:	e3a016d1 	mov	r1, #219152384	; 0xd100000
    2ad0:	e1a00120 	lsr	r0, r0, #2
    2ad4:	e38004ea 	orr	r0, r0, #-369098752	; 0xea000000
    2ad8:	e7a10102 	str	r0, [r1, r2, lsl #2]!
    2adc:	e12fff1e 	bx	lr

00002ae0 <MAKEBRANCHTOJITLET>:
    2ae0:	e1a0018c 	lsl	r0, ip, #3
    2ae4:	e280040d 	add	r0, r0, #218103808	; 0xd000000

00002ae8 <MAKEBRANCH>:
    2ae8:	e0400006 	sub	r0, r0, r6
    2aec:	e2400008 	sub	r0, r0, #8
    2af0:	e1a00120 	lsr	r0, r0, #2
    2af4:	e3c004ff 	bic	r0, r0, #-16777216	; 0xff000000
    2af8:	e38004ea 	orr	r0, r0, #-369098752	; 0xea000000
    2afc:	e5860000 	str	r0, [r6]
    2b00:	e12fff1e 	bx	lr

00002b04 <MAKEBRANCHLINK>:
    2b04:	e0400006 	sub	r0, r0, r6
    2b08:	e2400008 	sub	r0, r0, #8
    2b0c:	e1a00120 	lsr	r0, r0, #2
    2b10:	e3c004ff 	bic	r0, r0, #-16777216	; 0xff000000
    2b14:	e38004eb 	orr	r0, r0, #-352321536	; 0xeb000000
    2b18:	e5860000 	str	r0, [r6]
    2b1c:	e12fff1e 	bx	lr

00002b20 <fixuptype2accessstore4>:
    2b20:	e20410f0 	and	r1, r4, #240	; 0xf0
    2b24:	e204c00f 	and	ip, r4, #15
    2b28:	e1888201 	orr	r8, r8, r1, lsl #4
    2b2c:	e188800c 	orr	r8, r8, ip
    2b30:	eafffe88 	b	2558 <jitend2bytestore4>

00002b34 <fixuptype2accessquick>:
    2b34:	e20410f0 	and	r1, r4, #240	; 0xf0
    2b38:	e204c00f 	and	ip, r4, #15
    2b3c:	e1888201 	orr	r8, r8, r1, lsl #4
    2b40:	e188800c 	orr	r8, r8, ip
    2b44:	e12fff1e 	bx	lr

00002b48 <fixuptype2access>:
    2b48:	e20410f0 	and	r1, r4, #240	; 0xf0
    2b4c:	e204c00f 	and	ip, r4, #15
    2b50:	e1888201 	orr	r8, r8, r1, lsl #4
    2b54:	e188800c 	orr	r8, r8, ip
    2b58:	e5868000 	str	r8, [r6]
    2b5c:	e12fff1e 	bx	lr

00002b60 <ioload>:
    2b60:	e92d5040 	push	{r6, ip, lr}
    2b64:	e10f6000 	mrs	r6, CPSR
    2b68:	f10c00c0 	cpsid	if
    2b6c:	ebfffffe 	bl	0 <tube_parasite_read>
    2b70:	e129f006 	msr	CPSR_fc, r6
    2b74:	e8bd9040 	pop	{r6, ip, pc}

00002b78 <iostore>:
    2b78:	e92d5040 	push	{r6, ip, lr}
    2b7c:	e10f6000 	mrs	r6, CPSR
    2b80:	f10c00c0 	cpsid	if
    2b84:	ebfffffe 	bl	0 <tube_parasite_write_banksel>
    2b88:	e129f006 	msr	CPSR_fc, r6
    2b8c:	e8bd9040 	pop	{r6, ip, pc}

00002b90 <brk>:
    2b90:	e24e140d 	sub	r1, lr, #218103808	; 0xd000000
    2b94:	e1a011a1 	lsr	r1, r1, #3
    2b98:	e2811001 	add	r1, r1, #1
    2b9c:	e2499002 	sub	r9, r9, #2
    2ba0:	e3a0c801 	mov	ip, #65536	; 0x10000
    2ba4:	e1c910b1 	strh	r1, [r9, #1]
    2ba8:	e3899c01 	orr	r9, r9, #256	; 0x100
    2bac:	e15c00b2 	ldrh	r0, [ip, #-2]
    2bb0:	e387c030 	orr	ip, r7, #48	; 0x30
    2bb4:	438cc080 	orrmi	ip, ip, #128	; 0x80
    2bb8:	238cc001 	orrcs	ip, ip, #1
    2bbc:	038cc002 	orreq	ip, ip, #2
    2bc0:	e449c001 	strb	ip, [r9], #-1
    2bc4:	e3899c01 	orr	r9, r9, #256	; 0x100
    2bc8:	e3877004 	orr	r7, r7, #4
    2bcc:	e3c77008 	bic	r7, r7, #8
    2bd0:	e1a00180 	lsl	r0, r0, #3
    2bd4:	e280040d 	add	r0, r0, #218103808	; 0xd000000
    2bd8:	f10800c0 	cpsie	if
    2bdc:	e12fff10 	bx	r0

00002be0 <rti>:
    2be0:	e3a0c001 	mov	ip, #1
    2be4:	e6592f9c 	uadd8	r2, r9, ip
    2be8:	e5d22000 	ldrb	r2, [r2]
    2bec:	e6599f9c 	uadd8	r9, r9, ip
    2bf0:	e3c7c0ff 	bic	ip, r7, #255	; 0xff
    2bf4:	e18cc002 	orr	ip, ip, r2
    2bf8:	e3cc70b3 	bic	r7, ip, #179	; 0xb3
    2bfc:	e202c080 	and	ip, r2, #128	; 0x80
    2c00:	e2022003 	and	r2, r2, #3
    2c04:	e1a0cc0c 	lsl	ip, ip, #24
    2c08:	e18cce82 	orr	ip, ip, r2, lsl #29
    2c0c:	e1d910b1 	ldrh	r1, [r9, #1]
    2c10:	e3a02002 	mov	r2, #2
    2c14:	e6599f92 	uadd8	r9, r9, r2
    2c18:	e3a020ff 	mov	r2, #255	; 0xff
    2c1c:	e3822cff 	orr	r2, r2, #65280	; 0xff00
    2c20:	e1510002 	cmp	r1, r2
    2c24:	0afffd1c 	beq	209c <noirq>
    2c28:	e59f0404 	ldr	r0, [pc, #1028]	; 3034 <decimal_mode_sbc+0x3c>
    2c2c:	e5900000 	ldr	r0, [r0]
    2c30:	e3170004 	tst	r7, #4
    2c34:	02200001 	eoreq	r0, r0, #1
    2c38:	03100001 	tsteq	r0, #1
    2c3c:	0a000003 	beq	2c50 <handle_irqrti>
    2c40:	e128f00c 	msr	CPSR_f, ip
    2c44:	e1a01181 	lsl	r1, r1, #3
    2c48:	e281140d 	add	r1, r1, #218103808	; 0xd000000
    2c4c:	e12fff11 	bx	r1

00002c50 <handle_irqrti>:
    2c50:	e128f00c 	msr	CPSR_f, ip
    2c54:	e2499002 	sub	r9, r9, #2
    2c58:	e3a0c801 	mov	ip, #65536	; 0x10000
    2c5c:	e1c910b1 	strh	r1, [r9, #1]
    2c60:	e3899c01 	orr	r9, r9, #256	; 0x100
    2c64:	e15c00b2 	ldrh	r0, [ip, #-2]
    2c68:	e387c020 	orr	ip, r7, #32
    2c6c:	438cc080 	orrmi	ip, ip, #128	; 0x80
    2c70:	238cc001 	orrcs	ip, ip, #1
    2c74:	038cc002 	orreq	ip, ip, #2
    2c78:	e449c001 	strb	ip, [r9], #-1
    2c7c:	e3899c01 	orr	r9, r9, #256	; 0x100
    2c80:	e3877004 	orr	r7, r7, #4
    2c84:	e3c77008 	bic	r7, r7, #8
    2c88:	e1a00180 	lsl	r0, r0, #3
    2c8c:	e280040d 	add	r0, r0, #218103808	; 0xd000000
    2c90:	e12fff10 	bx	r0

00002c94 <cli>:
    2c94:	e10fc000 	mrs	ip, CPSR
    2c98:	ea000009 	b	2cc4 <check_irq_plp>

00002c9c <plp>:
    2c9c:	e6592f9c 	uadd8	r2, r9, ip
    2ca0:	e5d22000 	ldrb	r2, [r2]
    2ca4:	e6599f9c 	uadd8	r9, r9, ip
    2ca8:	e3c7c0ff 	bic	ip, r7, #255	; 0xff
    2cac:	e18cc002 	orr	ip, ip, r2
    2cb0:	e3cc70b3 	bic	r7, ip, #179	; 0xb3
    2cb4:	e202c080 	and	ip, r2, #128	; 0x80
    2cb8:	e2022003 	and	r2, r2, #3
    2cbc:	e1a0cc0c 	lsl	ip, ip, #24
    2cc0:	e18cce82 	orr	ip, ip, r2, lsl #29

00002cc4 <check_irq_plp>:
    2cc4:	e59f0368 	ldr	r0, [pc, #872]	; 3034 <decimal_mode_sbc+0x3c>
    2cc8:	e5900000 	ldr	r0, [r0]
    2ccc:	e3170004 	tst	r7, #4
    2cd0:	02200001 	eoreq	r0, r0, #1
    2cd4:	03100001 	tsteq	r0, #1
    2cd8:	0a000001 	beq	2ce4 <handle_irqplp>
    2cdc:	e128f00c 	msr	CPSR_f, ip
    2ce0:	e12fff1e 	bx	lr

00002ce4 <handle_irqplp>:
    2ce4:	e24e140d 	sub	r1, lr, #218103808	; 0xd000000
    2ce8:	e1a011a1 	lsr	r1, r1, #3
    2cec:	e128f00c 	msr	CPSR_f, ip
    2cf0:	e2499002 	sub	r9, r9, #2
    2cf4:	e3a0c801 	mov	ip, #65536	; 0x10000
    2cf8:	e1c910b1 	strh	r1, [r9, #1]
    2cfc:	e3899c01 	orr	r9, r9, #256	; 0x100
    2d00:	e15c00b2 	ldrh	r0, [ip, #-2]
    2d04:	e387c020 	orr	ip, r7, #32
    2d08:	438cc080 	orrmi	ip, ip, #128	; 0x80
    2d0c:	238cc001 	orrcs	ip, ip, #1
    2d10:	038cc002 	orreq	ip, ip, #2
    2d14:	e449c001 	strb	ip, [r9], #-1
    2d18:	e3899c01 	orr	r9, r9, #256	; 0x100
    2d1c:	e3877004 	orr	r7, r7, #4
    2d20:	e3c77008 	bic	r7, r7, #8
    2d24:	e1a00180 	lsl	r0, r0, #3
    2d28:	e280040d 	add	r0, r0, #218103808	; 0xd000000
    2d2c:	e12fff10 	bx	r0

00002d30 <putcharopcode>:
    2d30:	e92d5200 	push	{r9, ip, lr}
    2d34:	e10f9000 	mrs	r9, CPSR
    2d38:	e59fc2f8 	ldr	ip, [pc, #760]	; 3038 <decimal_mode_sbc+0x40>
    2d3c:	e1a0000a 	mov	r0, sl
    2d40:	e12fff3c 	blx	ip
    2d44:	e128f009 	msr	CPSR_f, r9
    2d48:	e8bd9200 	pop	{r9, ip, pc}

00002d4c <debugopcode>:
    2d4c:	e12fff1e 	bx	lr

00002d50 <invertcarry>:
    2d50:	e10f0000 	mrs	r0, CPSR
    2d54:	e2200202 	eor	r0, r0, #536870912	; 0x20000000
    2d58:	e128f000 	msr	CPSR_f, r0
    2d5c:	e12fff1e 	bx	lr

00002d60 <testvflagC>:
    2d60:	e10f1000 	mrs	r1, CPSR
    2d64:	e3170040 	tst	r7, #64	; 0x40
    2d68:	128ef008 	addne	pc, lr, #8
    2d6c:	e12fff1e 	bx	lr

00002d70 <testvflagS>:
    2d70:	e10f1000 	mrs	r1, CPSR
    2d74:	e3170040 	tst	r7, #64	; 0x40
    2d78:	028ef008 	addeq	pc, lr, #8
    2d7c:	e12fff1e 	bx	lr

00002d80 <bbrreturn>:
    2d80:	128ef004 	addne	pc, lr, #4
    2d84:	e128f001 	msr	CPSR_f, r1
    2d88:	e12fff1e 	bx	lr

00002d8c <bbsreturn>:
    2d8c:	028ef004 	addeq	pc, lr, #4
    2d90:	e128f001 	msr	CPSR_f, r1
    2d94:	e12fff1e 	bx	lr

00002d98 <bitimm>:
    2d98:	13c11101 	bicne	r1, r1, #1073741824	; 0x40000000
    2d9c:	03811101 	orreq	r1, r1, #1073741824	; 0x40000000
    2da0:	e128f001 	msr	CPSR_f, r1
    2da4:	e12fff1e 	bx	lr

00002da8 <jitstxytable>:
    2da8:	e085cb21 	add	ip, r5, r1, lsr #22
    2dac:	e12fff1c 	bx	ip

00002db0 <jitstatable>:
    2db0:	e5c1a000 	strb	sl, [r1]
    2db4:	e085c101 	add	ip, r5, r1, lsl #2
    2db8:	e12fff1c 	bx	ip

00002dbc <storeXflags>:
    2dbc:	e7c6cc21 	strb	ip, [r6, r1, lsr #24]

00002dc0 <tempflags>:
    2dc0:	e6afc07c 	sxtb	ip, ip
    2dc4:	e33c0000 	teq	ip, #0
    2dc8:	e12fff1e 	bx	lr

00002dcc <incstore>:
    2dcc:	e28cc001 	add	ip, ip, #1
    2dd0:	e5c1c000 	strb	ip, [r1]
    2dd4:	e12fff1e 	bx	lr

00002dd8 <decstore>:
    2dd8:	e24cc001 	sub	ip, ip, #1
    2ddc:	e5c1c000 	strb	ip, [r1]
    2de0:	e12fff1e 	bx	lr

00002de4 <plx>:
    2de4:	e659bf9c 	uadd8	fp, r9, ip
    2de8:	e5dbb000 	ldrb	fp, [fp]
    2dec:	e6599f9c 	uadd8	r9, r9, ip
    2df0:	e1a0bc0b 	lsl	fp, fp, #24
    2df4:	e33b0000 	teq	fp, #0
    2df8:	e12fff1e 	bx	lr

00002dfc <ply>:
    2dfc:	e6598f9c 	uadd8	r8, r9, ip
    2e00:	e5d88000 	ldrb	r8, [r8]
    2e04:	e6599f9c 	uadd8	r9, r9, ip
    2e08:	e1a08c08 	lsl	r8, r8, #24
    2e0c:	e3380000 	teq	r8, #0
    2e10:	e12fff1e 	bx	lr

00002e14 <pla>:
    2e14:	e659af9c 	uadd8	sl, r9, ip
    2e18:	e1daa0d0 	ldrsb	sl, [sl]
    2e1c:	e6599f9c 	uadd8	r9, r9, ip
    2e20:	e33a0000 	teq	sl, #0
    2e24:	e12fff1e 	bx	lr

00002e28 <rts>:
    2e28:	e3a01002 	mov	r1, #2
    2e2c:	e3a0c40d 	mov	ip, #218103808	; 0xd000000
    2e30:	e6599f91 	uadd8	r9, r9, r1
    2e34:	e28c1008 	add	r1, ip, #8
    2e38:	e0811180 	add	r1, r1, r0, lsl #3
    2e3c:	e12fff11 	bx	r1

00002e40 <rora>:
    2e40:	224aac01 	subcs	sl, sl, #256	; 0x100
    2e44:	e1b0a06a 	rrxs	sl, sl
    2e48:	e12fff1e 	bx	lr

00002e4c <ror>:
    2e4c:	238ccc01 	orrcs	ip, ip, #256	; 0x100
    2e50:	e1b0c06c 	rrxs	ip, ip
    2e54:	e5c1c000 	strb	ip, [r1]
    2e58:	e12fff1e 	bx	lr

00002e5c <rol>:
    2e5c:	e0acc00c 	adc	ip, ip, ip
    2e60:	e5c1c000 	strb	ip, [r1]
    2e64:	e1b0cc0c 	lsls	ip, ip, #24
    2e68:	e12fff1e 	bx	lr

00002e6c <rola>:
    2e6c:	e1b01c0a 	lsls	r1, sl, #24
    2e70:	e6afa07a 	sxtb	sl, sl
    2e74:	e12fff1e 	bx	lr

00002e78 <bitioload>:
    2e78:	e52de004 	push	{lr}		; (str lr, [sp, #-4]!)
    2e7c:	ebffff37 	bl	2b60 <ioload>
    2e80:	e49de004 	pop	{lr}		; (ldr lr, [sp], #4)

00002e84 <bitadjustr14>:
    2e84:	e28e2010 	add	r2, lr, #16
    2e88:	e3c77040 	bic	r7, r7, #64	; 0x40
    2e8c:	e110000a 	tst	r0, sl
    2e90:	e10fc000 	mrs	ip, CPSR
    2e94:	e2001080 	and	r1, r0, #128	; 0x80
    2e98:	e2000040 	and	r0, r0, #64	; 0x40
    2e9c:	e1877000 	orr	r7, r7, r0
    2ea0:	e18ccc01 	orr	ip, ip, r1, lsl #24
    2ea4:	e128f00c 	msr	CPSR_f, ip
    2ea8:	e12fff12 	bx	r2

00002eac <bit>:
    2eac:	e11c000a 	tst	ip, sl

00002eb0 <bit2>:
    2eb0:	e10f0000 	mrs	r0, CPSR
    2eb4:	e20c1080 	and	r1, ip, #128	; 0x80
    2eb8:	e20cc040 	and	ip, ip, #64	; 0x40
    2ebc:	e187700c 	orr	r7, r7, ip
    2ec0:	e1800c01 	orr	r0, r0, r1, lsl #24
    2ec4:	e128f000 	msr	CPSR_f, r0
    2ec8:	e12fff1e 	bx	lr

00002ecc <cmpa>:
    2ecc:	e5d1c000 	ldrb	ip, [r1]
    2ed0:	e1a01c0a 	lsl	r1, sl, #24
    2ed4:	e1510c0c 	cmp	r1, ip, lsl #24
    2ed8:	e12fff1e 	bx	lr

00002edc <loada>:
    2edc:	e1dca0d0 	ldrsb	sl, [ip]
    2ee0:	e33a0000 	teq	sl, #0
    2ee4:	e12fff1e 	bx	lr

00002ee8 <aflags>:
    2ee8:	e6afa07a 	sxtb	sl, sl
    2eec:	e33a0000 	teq	sl, #0
    2ef0:	e12fff1e 	bx	lr

00002ef4 <asl>:
    2ef4:	e08cc00c 	add	ip, ip, ip
    2ef8:	e5c1c000 	strb	ip, [r1]
    2efc:	e1b0cc0c 	lsls	ip, ip, #24
    2f00:	e12fff1e 	bx	lr

00002f04 <php>:
    2f04:	438cc080 	orrmi	ip, ip, #128	; 0x80
    2f08:	238cc001 	orrcs	ip, ip, #1
    2f0c:	038cc002 	orreq	ip, ip, #2

00002f10 <pushtemp>:
    2f10:	e449c001 	strb	ip, [r9], #-1
    2f14:	e3899c01 	orr	r9, r9, #256	; 0x100
    2f18:	e12fff1e 	bx	lr

00002f1c <trb>:
    2f1c:	e3c00101 	bic	r0, r0, #1073741824	; 0x40000000
    2f20:	e11c000a 	tst	ip, sl

00002f24 <trb2>:
    2f24:	e1ccc00a 	bic	ip, ip, sl
    2f28:	e5c1c000 	strb	ip, [r1]
    2f2c:	03800101 	orreq	r0, r0, #1073741824	; 0x40000000
    2f30:	e128f000 	msr	CPSR_f, r0
    2f34:	e12fff1e 	bx	lr

00002f38 <tsb>:
    2f38:	e3c00101 	bic	r0, r0, #1073741824	; 0x40000000
    2f3c:	e11c000a 	tst	ip, sl

00002f40 <tsb2>:
    2f40:	e18cc00a 	orr	ip, ip, sl
    2f44:	e5c1c000 	strb	ip, [r1]
    2f48:	03800101 	orreq	r0, r0, #1073741824	; 0x40000000
    2f4c:	e128f000 	msr	CPSR_f, r0
    2f50:	e12fff1e 	bx	lr

00002f54 <ldrhldrsb>:
    2f54:	e1d1c0b0 	ldrh	ip, [r1]
    2f58:	e1dcc0d0 	ldrsb	ip, [ip]
    2f5c:	e12fff1e 	bx	lr

00002f60 <ADCload>:
    2f60:	e5d1c000 	ldrb	ip, [r1]

00002f64 <ADC0>:
    2f64:	e3170008 	tst	r7, #8

00002f68 <ADC1>:
    2f68:	e3c77040 	bic	r7, r7, #64	; 0x40

00002f6c <ADC2>:
    2f6c:	e1a0ac0a 	lsl	sl, sl, #24

00002f70 <ADC3>:
    2f70:	224ccc01 	subcs	ip, ip, #256	; 0x100
    2f74:	1a000003 	bne	2f88 <decimal_mode_adc>
    2f78:	e0baa46c 	adcs	sl, sl, ip, ror #8
    2f7c:	63877040 	orrvs	r7, r7, #64	; 0x40
    2f80:	e6afac7a 	sxtb	sl, sl, ror #24
    2f84:	e12fff1e 	bx	lr

00002f88 <decimal_mode_adc>:
    2f88:	e20a040f 	and	r0, sl, #251658240	; 0xf000000
    2f8c:	e20c100f 	and	r1, ip, #15
    2f90:	e0a11c20 	adc	r1, r1, r0, lsr #24
    2f94:	e351000a 	cmp	r1, #10
    2f98:	2241100a 	subcs	r1, r1, #10
    2f9c:	e201100f 	and	r1, r1, #15
    2fa0:	238cc00f 	orrcs	ip, ip, #15
    2fa4:	e20aa20f 	and	sl, sl, #-268435456	; 0xf0000000
    2fa8:	238aa40f 	orrcs	sl, sl, #251658240	; 0xf000000
    2fac:	e0baa46c 	adcs	sl, sl, ip, ror #8
    2fb0:	63877040 	orrvs	r7, r7, #64	; 0x40
    2fb4:	335a020a 	cmpcc	sl, #-1610612736	; 0xa0000000
    2fb8:	224aa20a 	subcs	sl, sl, #-1610612736	; 0xa0000000
    2fbc:	e20aa20f 	and	sl, sl, #-268435456	; 0xf0000000
    2fc0:	e18aac01 	orr	sl, sl, r1, lsl #24
    2fc4:	e6afac7a 	sxtb	sl, sl, ror #24
    2fc8:	e33a0000 	teq	sl, #0
    2fcc:	e12fff1e 	bx	lr

00002fd0 <SBCload>:
    2fd0:	e5d1c000 	ldrb	ip, [r1]

00002fd4 <SBC0>:
    2fd4:	e3170008 	tst	r7, #8

00002fd8 <SBC1>:
    2fd8:	e3c77040 	bic	r7, r7, #64	; 0x40

00002fdc <SBC2>:
    2fdc:	e1a0ac0a 	lsl	sl, sl, #24

00002fe0 <SBC3>:
    2fe0:	1a000004 	bne	2ff8 <decimal_mode_sbc>
    2fe4:	324ccc01 	subcc	ip, ip, #256	; 0x100
    2fe8:	e0daa46c 	sbcs	sl, sl, ip, ror #8
    2fec:	63877040 	orrvs	r7, r7, #64	; 0x40
    2ff0:	e6afac7a 	sxtb	sl, sl, ror #24
    2ff4:	e12fff1e 	bx	lr

00002ff8 <decimal_mode_sbc>:
    2ff8:	e3cc00f0 	bic	r0, ip, #240	; 0xf0
    2ffc:	e20a140f 	and	r1, sl, #251658240	; 0xf000000
    3000:	e0c11460 	sbc	r1, r1, r0, ror #8
    3004:	e0daa46c 	sbcs	sl, sl, ip, ror #8
    3008:	63877040 	orrvs	r7, r7, #64	; 0x40
    300c:	324aa206 	subcc	sl, sl, #1610612736	; 0x60000000
    3010:	e3310000 	teq	r1, #0
    3014:	424aa406 	submi	sl, sl, #100663296	; 0x6000000
    3018:	e6afac7a 	sxtb	sl, sl, ror #24
    301c:	e33a0000 	teq	sl, #0
    3020:	e12fff1e 	bx	lr
    3024:	f2f02238 	.word	0xf2f02238
    3028:	20200028 	.word	0x20200028
    302c:	f2f021e4 	.word	0xf2f021e4
    3030:	f2f02348 	.word	0xf2f02348
	...

0000303c <immediatesignextenedtable>:
    303c:	e3a0c000 	mov	ip, #0
    3040:	e3a0c001 	mov	ip, #1
    3044:	e3a0c002 	mov	ip, #2
    3048:	e3a0c003 	mov	ip, #3
    304c:	e3a0c004 	mov	ip, #4
    3050:	e3a0c005 	mov	ip, #5
    3054:	e3a0c006 	mov	ip, #6
    3058:	e3a0c007 	mov	ip, #7
    305c:	e3a0c008 	mov	ip, #8
    3060:	e3a0c009 	mov	ip, #9
    3064:	e3a0c00a 	mov	ip, #10
    3068:	e3a0c00b 	mov	ip, #11
    306c:	e3a0c00c 	mov	ip, #12
    3070:	e3a0c00d 	mov	ip, #13
    3074:	e3a0c00e 	mov	ip, #14
    3078:	e3a0c00f 	mov	ip, #15
    307c:	e3a0c010 	mov	ip, #16
    3080:	e3a0c011 	mov	ip, #17
    3084:	e3a0c012 	mov	ip, #18
    3088:	e3a0c013 	mov	ip, #19
    308c:	e3a0c014 	mov	ip, #20
    3090:	e3a0c015 	mov	ip, #21
    3094:	e3a0c016 	mov	ip, #22
    3098:	e3a0c017 	mov	ip, #23
    309c:	e3a0c018 	mov	ip, #24
    30a0:	e3a0c019 	mov	ip, #25
    30a4:	e3a0c01a 	mov	ip, #26
    30a8:	e3a0c01b 	mov	ip, #27
    30ac:	e3a0c01c 	mov	ip, #28
    30b0:	e3a0c01d 	mov	ip, #29
    30b4:	e3a0c01e 	mov	ip, #30
    30b8:	e3a0c01f 	mov	ip, #31
    30bc:	e3a0c020 	mov	ip, #32
    30c0:	e3a0c021 	mov	ip, #33	; 0x21
    30c4:	e3a0c022 	mov	ip, #34	; 0x22
    30c8:	e3a0c023 	mov	ip, #35	; 0x23
    30cc:	e3a0c024 	mov	ip, #36	; 0x24
    30d0:	e3a0c025 	mov	ip, #37	; 0x25
    30d4:	e3a0c026 	mov	ip, #38	; 0x26
    30d8:	e3a0c027 	mov	ip, #39	; 0x27
    30dc:	e3a0c028 	mov	ip, #40	; 0x28
    30e0:	e3a0c029 	mov	ip, #41	; 0x29
    30e4:	e3a0c02a 	mov	ip, #42	; 0x2a
    30e8:	e3a0c02b 	mov	ip, #43	; 0x2b
    30ec:	e3a0c02c 	mov	ip, #44	; 0x2c
    30f0:	e3a0c02d 	mov	ip, #45	; 0x2d
    30f4:	e3a0c02e 	mov	ip, #46	; 0x2e
    30f8:	e3a0c02f 	mov	ip, #47	; 0x2f
    30fc:	e3a0c030 	mov	ip, #48	; 0x30
    3100:	e3a0c031 	mov	ip, #49	; 0x31
    3104:	e3a0c032 	mov	ip, #50	; 0x32
    3108:	e3a0c033 	mov	ip, #51	; 0x33
    310c:	e3a0c034 	mov	ip, #52	; 0x34
    3110:	e3a0c035 	mov	ip, #53	; 0x35
    3114:	e3a0c036 	mov	ip, #54	; 0x36
    3118:	e3a0c037 	mov	ip, #55	; 0x37
    311c:	e3a0c038 	mov	ip, #56	; 0x38
    3120:	e3a0c039 	mov	ip, #57	; 0x39
    3124:	e3a0c03a 	mov	ip, #58	; 0x3a
    3128:	e3a0c03b 	mov	ip, #59	; 0x3b
    312c:	e3a0c03c 	mov	ip, #60	; 0x3c
    3130:	e3a0c03d 	mov	ip, #61	; 0x3d
    3134:	e3a0c03e 	mov	ip, #62	; 0x3e
    3138:	e3a0c03f 	mov	ip, #63	; 0x3f
    313c:	e3a0c040 	mov	ip, #64	; 0x40
    3140:	e3a0c041 	mov	ip, #65	; 0x41
    3144:	e3a0c042 	mov	ip, #66	; 0x42
    3148:	e3a0c043 	mov	ip, #67	; 0x43
    314c:	e3a0c044 	mov	ip, #68	; 0x44
    3150:	e3a0c045 	mov	ip, #69	; 0x45
    3154:	e3a0c046 	mov	ip, #70	; 0x46
    3158:	e3a0c047 	mov	ip, #71	; 0x47
    315c:	e3a0c048 	mov	ip, #72	; 0x48
    3160:	e3a0c049 	mov	ip, #73	; 0x49
    3164:	e3a0c04a 	mov	ip, #74	; 0x4a
    3168:	e3a0c04b 	mov	ip, #75	; 0x4b
    316c:	e3a0c04c 	mov	ip, #76	; 0x4c
    3170:	e3a0c04d 	mov	ip, #77	; 0x4d
    3174:	e3a0c04e 	mov	ip, #78	; 0x4e
    3178:	e3a0c04f 	mov	ip, #79	; 0x4f
    317c:	e3a0c050 	mov	ip, #80	; 0x50
    3180:	e3a0c051 	mov	ip, #81	; 0x51
    3184:	e3a0c052 	mov	ip, #82	; 0x52
    3188:	e3a0c053 	mov	ip, #83	; 0x53
    318c:	e3a0c054 	mov	ip, #84	; 0x54
    3190:	e3a0c055 	mov	ip, #85	; 0x55
    3194:	e3a0c056 	mov	ip, #86	; 0x56
    3198:	e3a0c057 	mov	ip, #87	; 0x57
    319c:	e3a0c058 	mov	ip, #88	; 0x58
    31a0:	e3a0c059 	mov	ip, #89	; 0x59
    31a4:	e3a0c05a 	mov	ip, #90	; 0x5a
    31a8:	e3a0c05b 	mov	ip, #91	; 0x5b
    31ac:	e3a0c05c 	mov	ip, #92	; 0x5c
    31b0:	e3a0c05d 	mov	ip, #93	; 0x5d
    31b4:	e3a0c05e 	mov	ip, #94	; 0x5e
    31b8:	e3a0c05f 	mov	ip, #95	; 0x5f
    31bc:	e3a0c060 	mov	ip, #96	; 0x60
    31c0:	e3a0c061 	mov	ip, #97	; 0x61
    31c4:	e3a0c062 	mov	ip, #98	; 0x62
    31c8:	e3a0c063 	mov	ip, #99	; 0x63
    31cc:	e3a0c064 	mov	ip, #100	; 0x64
    31d0:	e3a0c065 	mov	ip, #101	; 0x65
    31d4:	e3a0c066 	mov	ip, #102	; 0x66
    31d8:	e3a0c067 	mov	ip, #103	; 0x67
    31dc:	e3a0c068 	mov	ip, #104	; 0x68
    31e0:	e3a0c069 	mov	ip, #105	; 0x69
    31e4:	e3a0c06a 	mov	ip, #106	; 0x6a
    31e8:	e3a0c06b 	mov	ip, #107	; 0x6b
    31ec:	e3a0c06c 	mov	ip, #108	; 0x6c
    31f0:	e3a0c06d 	mov	ip, #109	; 0x6d
    31f4:	e3a0c06e 	mov	ip, #110	; 0x6e
    31f8:	e3a0c06f 	mov	ip, #111	; 0x6f
    31fc:	e3a0c070 	mov	ip, #112	; 0x70
    3200:	e3a0c071 	mov	ip, #113	; 0x71
    3204:	e3a0c072 	mov	ip, #114	; 0x72
    3208:	e3a0c073 	mov	ip, #115	; 0x73
    320c:	e3a0c074 	mov	ip, #116	; 0x74
    3210:	e3a0c075 	mov	ip, #117	; 0x75
    3214:	e3a0c076 	mov	ip, #118	; 0x76
    3218:	e3a0c077 	mov	ip, #119	; 0x77
    321c:	e3a0c078 	mov	ip, #120	; 0x78
    3220:	e3a0c079 	mov	ip, #121	; 0x79
    3224:	e3a0c07a 	mov	ip, #122	; 0x7a
    3228:	e3a0c07b 	mov	ip, #123	; 0x7b
    322c:	e3a0c07c 	mov	ip, #124	; 0x7c
    3230:	e3a0c07d 	mov	ip, #125	; 0x7d
    3234:	e3a0c07e 	mov	ip, #126	; 0x7e
    3238:	e3a0c07f 	mov	ip, #127	; 0x7f
    323c:	e3e0c07f 	mvn	ip, #127	; 0x7f
    3240:	e3e0c07e 	mvn	ip, #126	; 0x7e
    3244:	e3e0c07d 	mvn	ip, #125	; 0x7d
    3248:	e3e0c07c 	mvn	ip, #124	; 0x7c
    324c:	e3e0c07b 	mvn	ip, #123	; 0x7b
    3250:	e3e0c07a 	mvn	ip, #122	; 0x7a
    3254:	e3e0c079 	mvn	ip, #121	; 0x79
    3258:	e3e0c078 	mvn	ip, #120	; 0x78
    325c:	e3e0c077 	mvn	ip, #119	; 0x77
    3260:	e3e0c076 	mvn	ip, #118	; 0x76
    3264:	e3e0c075 	mvn	ip, #117	; 0x75
    3268:	e3e0c074 	mvn	ip, #116	; 0x74
    326c:	e3e0c073 	mvn	ip, #115	; 0x73
    3270:	e3e0c072 	mvn	ip, #114	; 0x72
    3274:	e3e0c071 	mvn	ip, #113	; 0x71
    3278:	e3e0c070 	mvn	ip, #112	; 0x70
    327c:	e3e0c06f 	mvn	ip, #111	; 0x6f
    3280:	e3e0c06e 	mvn	ip, #110	; 0x6e
    3284:	e3e0c06d 	mvn	ip, #109	; 0x6d
    3288:	e3e0c06c 	mvn	ip, #108	; 0x6c
    328c:	e3e0c06b 	mvn	ip, #107	; 0x6b
    3290:	e3e0c06a 	mvn	ip, #106	; 0x6a
    3294:	e3e0c069 	mvn	ip, #105	; 0x69
    3298:	e3e0c068 	mvn	ip, #104	; 0x68
    329c:	e3e0c067 	mvn	ip, #103	; 0x67
    32a0:	e3e0c066 	mvn	ip, #102	; 0x66
    32a4:	e3e0c065 	mvn	ip, #101	; 0x65
    32a8:	e3e0c064 	mvn	ip, #100	; 0x64
    32ac:	e3e0c063 	mvn	ip, #99	; 0x63
    32b0:	e3e0c062 	mvn	ip, #98	; 0x62
    32b4:	e3e0c061 	mvn	ip, #97	; 0x61
    32b8:	e3e0c060 	mvn	ip, #96	; 0x60
    32bc:	e3e0c05f 	mvn	ip, #95	; 0x5f
    32c0:	e3e0c05e 	mvn	ip, #94	; 0x5e
    32c4:	e3e0c05d 	mvn	ip, #93	; 0x5d
    32c8:	e3e0c05c 	mvn	ip, #92	; 0x5c
    32cc:	e3e0c05b 	mvn	ip, #91	; 0x5b
    32d0:	e3e0c05a 	mvn	ip, #90	; 0x5a
    32d4:	e3e0c059 	mvn	ip, #89	; 0x59
    32d8:	e3e0c058 	mvn	ip, #88	; 0x58
    32dc:	e3e0c057 	mvn	ip, #87	; 0x57
    32e0:	e3e0c056 	mvn	ip, #86	; 0x56
    32e4:	e3e0c055 	mvn	ip, #85	; 0x55
    32e8:	e3e0c054 	mvn	ip, #84	; 0x54
    32ec:	e3e0c053 	mvn	ip, #83	; 0x53
    32f0:	e3e0c052 	mvn	ip, #82	; 0x52
    32f4:	e3e0c051 	mvn	ip, #81	; 0x51
    32f8:	e3e0c050 	mvn	ip, #80	; 0x50
    32fc:	e3e0c04f 	mvn	ip, #79	; 0x4f
    3300:	e3e0c04e 	mvn	ip, #78	; 0x4e
    3304:	e3e0c04d 	mvn	ip, #77	; 0x4d
    3308:	e3e0c04c 	mvn	ip, #76	; 0x4c
    330c:	e3e0c04b 	mvn	ip, #75	; 0x4b
    3310:	e3e0c04a 	mvn	ip, #74	; 0x4a
    3314:	e3e0c049 	mvn	ip, #73	; 0x49
    3318:	e3e0c048 	mvn	ip, #72	; 0x48
    331c:	e3e0c047 	mvn	ip, #71	; 0x47
    3320:	e3e0c046 	mvn	ip, #70	; 0x46
    3324:	e3e0c045 	mvn	ip, #69	; 0x45
    3328:	e3e0c044 	mvn	ip, #68	; 0x44
    332c:	e3e0c043 	mvn	ip, #67	; 0x43
    3330:	e3e0c042 	mvn	ip, #66	; 0x42
    3334:	e3e0c041 	mvn	ip, #65	; 0x41
    3338:	e3e0c040 	mvn	ip, #64	; 0x40
    333c:	e3e0c03f 	mvn	ip, #63	; 0x3f
    3340:	e3e0c03e 	mvn	ip, #62	; 0x3e
    3344:	e3e0c03d 	mvn	ip, #61	; 0x3d
    3348:	e3e0c03c 	mvn	ip, #60	; 0x3c
    334c:	e3e0c03b 	mvn	ip, #59	; 0x3b
    3350:	e3e0c03a 	mvn	ip, #58	; 0x3a
    3354:	e3e0c039 	mvn	ip, #57	; 0x39
    3358:	e3e0c038 	mvn	ip, #56	; 0x38
    335c:	e3e0c037 	mvn	ip, #55	; 0x37
    3360:	e3e0c036 	mvn	ip, #54	; 0x36
    3364:	e3e0c035 	mvn	ip, #53	; 0x35
    3368:	e3e0c034 	mvn	ip, #52	; 0x34
    336c:	e3e0c033 	mvn	ip, #51	; 0x33
    3370:	e3e0c032 	mvn	ip, #50	; 0x32
    3374:	e3e0c031 	mvn	ip, #49	; 0x31
    3378:	e3e0c030 	mvn	ip, #48	; 0x30
    337c:	e3e0c02f 	mvn	ip, #47	; 0x2f
    3380:	e3e0c02e 	mvn	ip, #46	; 0x2e
    3384:	e3e0c02d 	mvn	ip, #45	; 0x2d
    3388:	e3e0c02c 	mvn	ip, #44	; 0x2c
    338c:	e3e0c02b 	mvn	ip, #43	; 0x2b
    3390:	e3e0c02a 	mvn	ip, #42	; 0x2a
    3394:	e3e0c029 	mvn	ip, #41	; 0x29
    3398:	e3e0c028 	mvn	ip, #40	; 0x28
    339c:	e3e0c027 	mvn	ip, #39	; 0x27
    33a0:	e3e0c026 	mvn	ip, #38	; 0x26
    33a4:	e3e0c025 	mvn	ip, #37	; 0x25
    33a8:	e3e0c024 	mvn	ip, #36	; 0x24
    33ac:	e3e0c023 	mvn	ip, #35	; 0x23
    33b0:	e3e0c022 	mvn	ip, #34	; 0x22
    33b4:	e3e0c021 	mvn	ip, #33	; 0x21
    33b8:	e3e0c020 	mvn	ip, #32
    33bc:	e3e0c01f 	mvn	ip, #31
    33c0:	e3e0c01e 	mvn	ip, #30
    33c4:	e3e0c01d 	mvn	ip, #29
    33c8:	e3e0c01c 	mvn	ip, #28
    33cc:	e3e0c01b 	mvn	ip, #27
    33d0:	e3e0c01a 	mvn	ip, #26
    33d4:	e3e0c019 	mvn	ip, #25
    33d8:	e3e0c018 	mvn	ip, #24
    33dc:	e3e0c017 	mvn	ip, #23
    33e0:	e3e0c016 	mvn	ip, #22
    33e4:	e3e0c015 	mvn	ip, #21
    33e8:	e3e0c014 	mvn	ip, #20
    33ec:	e3e0c013 	mvn	ip, #19
    33f0:	e3e0c012 	mvn	ip, #18
    33f4:	e3e0c011 	mvn	ip, #17
    33f8:	e3e0c010 	mvn	ip, #16
    33fc:	e3e0c00f 	mvn	ip, #15
    3400:	e3e0c00e 	mvn	ip, #14
    3404:	e3e0c00d 	mvn	ip, #13
    3408:	e3e0c00c 	mvn	ip, #12
    340c:	e3e0c00b 	mvn	ip, #11
    3410:	e3e0c00a 	mvn	ip, #10
    3414:	e3e0c009 	mvn	ip, #9
    3418:	e3e0c008 	mvn	ip, #8
    341c:	e3e0c007 	mvn	ip, #7
    3420:	e3e0c006 	mvn	ip, #6
    3424:	e3e0c005 	mvn	ip, #5
    3428:	e3e0c004 	mvn	ip, #4
    342c:	e3e0c003 	mvn	ip, #3
    3430:	e3e0c002 	mvn	ip, #2
    3434:	e3e0c001 	mvn	ip, #1
    3438:	e3e0c000 	mvn	ip, #0

0000343c <bitabstable>:
    343c:	e5d10000 	ldrb	r0, [r1]
    3440:	eafffe8f 	b	2e84 <bitadjustr14>
    3444:	e5d10001 	ldrb	r0, [r1, #1]
    3448:	eafffe8d 	b	2e84 <bitadjustr14>
    344c:	e5d10002 	ldrb	r0, [r1, #2]
    3450:	eafffe8b 	b	2e84 <bitadjustr14>
    3454:	e5d10003 	ldrb	r0, [r1, #3]
    3458:	eafffe89 	b	2e84 <bitadjustr14>
    345c:	e5d10004 	ldrb	r0, [r1, #4]
    3460:	eafffe87 	b	2e84 <bitadjustr14>
    3464:	e5d10005 	ldrb	r0, [r1, #5]
    3468:	eafffe85 	b	2e84 <bitadjustr14>
    346c:	e5d10006 	ldrb	r0, [r1, #6]
    3470:	eafffe83 	b	2e84 <bitadjustr14>
    3474:	e5d10007 	ldrb	r0, [r1, #7]
    3478:	eafffe81 	b	2e84 <bitadjustr14>
    347c:	e5d10008 	ldrb	r0, [r1, #8]
    3480:	eafffe7f 	b	2e84 <bitadjustr14>
    3484:	e5d10009 	ldrb	r0, [r1, #9]
    3488:	eafffe7d 	b	2e84 <bitadjustr14>
    348c:	e5d1000a 	ldrb	r0, [r1, #10]
    3490:	eafffe7b 	b	2e84 <bitadjustr14>
    3494:	e5d1000b 	ldrb	r0, [r1, #11]
    3498:	eafffe79 	b	2e84 <bitadjustr14>
    349c:	e5d1000c 	ldrb	r0, [r1, #12]
    34a0:	eafffe77 	b	2e84 <bitadjustr14>
    34a4:	e5d1000d 	ldrb	r0, [r1, #13]
    34a8:	eafffe75 	b	2e84 <bitadjustr14>
    34ac:	e5d1000e 	ldrb	r0, [r1, #14]
    34b0:	eafffe73 	b	2e84 <bitadjustr14>
    34b4:	e5d1000f 	ldrb	r0, [r1, #15]
    34b8:	eafffe71 	b	2e84 <bitadjustr14>
    34bc:	e5d10010 	ldrb	r0, [r1, #16]
    34c0:	eafffe6f 	b	2e84 <bitadjustr14>
    34c4:	e5d10011 	ldrb	r0, [r1, #17]
    34c8:	eafffe6d 	b	2e84 <bitadjustr14>
    34cc:	e5d10012 	ldrb	r0, [r1, #18]
    34d0:	eafffe6b 	b	2e84 <bitadjustr14>
    34d4:	e5d10013 	ldrb	r0, [r1, #19]
    34d8:	eafffe69 	b	2e84 <bitadjustr14>
    34dc:	e5d10014 	ldrb	r0, [r1, #20]
    34e0:	eafffe67 	b	2e84 <bitadjustr14>
    34e4:	e5d10015 	ldrb	r0, [r1, #21]
    34e8:	eafffe65 	b	2e84 <bitadjustr14>
    34ec:	e5d10016 	ldrb	r0, [r1, #22]
    34f0:	eafffe63 	b	2e84 <bitadjustr14>
    34f4:	e5d10017 	ldrb	r0, [r1, #23]
    34f8:	eafffe61 	b	2e84 <bitadjustr14>
    34fc:	e5d10018 	ldrb	r0, [r1, #24]
    3500:	eafffe5f 	b	2e84 <bitadjustr14>
    3504:	e5d10019 	ldrb	r0, [r1, #25]
    3508:	eafffe5d 	b	2e84 <bitadjustr14>
    350c:	e5d1001a 	ldrb	r0, [r1, #26]
    3510:	eafffe5b 	b	2e84 <bitadjustr14>
    3514:	e5d1001b 	ldrb	r0, [r1, #27]
    3518:	eafffe59 	b	2e84 <bitadjustr14>
    351c:	e5d1001c 	ldrb	r0, [r1, #28]
    3520:	eafffe57 	b	2e84 <bitadjustr14>
    3524:	e5d1001d 	ldrb	r0, [r1, #29]
    3528:	eafffe55 	b	2e84 <bitadjustr14>
    352c:	e5d1001e 	ldrb	r0, [r1, #30]
    3530:	eafffe53 	b	2e84 <bitadjustr14>
    3534:	e5d1001f 	ldrb	r0, [r1, #31]
    3538:	eafffe51 	b	2e84 <bitadjustr14>
    353c:	e5d10020 	ldrb	r0, [r1, #32]
    3540:	eafffe4f 	b	2e84 <bitadjustr14>
    3544:	e5d10021 	ldrb	r0, [r1, #33]	; 0x21
    3548:	eafffe4d 	b	2e84 <bitadjustr14>
    354c:	e5d10022 	ldrb	r0, [r1, #34]	; 0x22
    3550:	eafffe4b 	b	2e84 <bitadjustr14>
    3554:	e5d10023 	ldrb	r0, [r1, #35]	; 0x23
    3558:	eafffe49 	b	2e84 <bitadjustr14>
    355c:	e5d10024 	ldrb	r0, [r1, #36]	; 0x24
    3560:	eafffe47 	b	2e84 <bitadjustr14>
    3564:	e5d10025 	ldrb	r0, [r1, #37]	; 0x25
    3568:	eafffe45 	b	2e84 <bitadjustr14>
    356c:	e5d10026 	ldrb	r0, [r1, #38]	; 0x26
    3570:	eafffe43 	b	2e84 <bitadjustr14>
    3574:	e5d10027 	ldrb	r0, [r1, #39]	; 0x27
    3578:	eafffe41 	b	2e84 <bitadjustr14>
    357c:	e5d10028 	ldrb	r0, [r1, #40]	; 0x28
    3580:	eafffe3f 	b	2e84 <bitadjustr14>
    3584:	e5d10029 	ldrb	r0, [r1, #41]	; 0x29
    3588:	eafffe3d 	b	2e84 <bitadjustr14>
    358c:	e5d1002a 	ldrb	r0, [r1, #42]	; 0x2a
    3590:	eafffe3b 	b	2e84 <bitadjustr14>
    3594:	e5d1002b 	ldrb	r0, [r1, #43]	; 0x2b
    3598:	eafffe39 	b	2e84 <bitadjustr14>
    359c:	e5d1002c 	ldrb	r0, [r1, #44]	; 0x2c
    35a0:	eafffe37 	b	2e84 <bitadjustr14>
    35a4:	e5d1002d 	ldrb	r0, [r1, #45]	; 0x2d
    35a8:	eafffe35 	b	2e84 <bitadjustr14>
    35ac:	e5d1002e 	ldrb	r0, [r1, #46]	; 0x2e
    35b0:	eafffe33 	b	2e84 <bitadjustr14>
    35b4:	e5d1002f 	ldrb	r0, [r1, #47]	; 0x2f
    35b8:	eafffe31 	b	2e84 <bitadjustr14>
    35bc:	e5d10030 	ldrb	r0, [r1, #48]	; 0x30
    35c0:	eafffe2f 	b	2e84 <bitadjustr14>
    35c4:	e5d10031 	ldrb	r0, [r1, #49]	; 0x31
    35c8:	eafffe2d 	b	2e84 <bitadjustr14>
    35cc:	e5d10032 	ldrb	r0, [r1, #50]	; 0x32
    35d0:	eafffe2b 	b	2e84 <bitadjustr14>
    35d4:	e5d10033 	ldrb	r0, [r1, #51]	; 0x33
    35d8:	eafffe29 	b	2e84 <bitadjustr14>
    35dc:	e5d10034 	ldrb	r0, [r1, #52]	; 0x34
    35e0:	eafffe27 	b	2e84 <bitadjustr14>
    35e4:	e5d10035 	ldrb	r0, [r1, #53]	; 0x35
    35e8:	eafffe25 	b	2e84 <bitadjustr14>
    35ec:	e5d10036 	ldrb	r0, [r1, #54]	; 0x36
    35f0:	eafffe23 	b	2e84 <bitadjustr14>
    35f4:	e5d10037 	ldrb	r0, [r1, #55]	; 0x37
    35f8:	eafffe21 	b	2e84 <bitadjustr14>
    35fc:	e5d10038 	ldrb	r0, [r1, #56]	; 0x38
    3600:	eafffe1f 	b	2e84 <bitadjustr14>
    3604:	e5d10039 	ldrb	r0, [r1, #57]	; 0x39
    3608:	eafffe1d 	b	2e84 <bitadjustr14>
    360c:	e5d1003a 	ldrb	r0, [r1, #58]	; 0x3a
    3610:	eafffe1b 	b	2e84 <bitadjustr14>
    3614:	e5d1003b 	ldrb	r0, [r1, #59]	; 0x3b
    3618:	eafffe19 	b	2e84 <bitadjustr14>
    361c:	e5d1003c 	ldrb	r0, [r1, #60]	; 0x3c
    3620:	eafffe17 	b	2e84 <bitadjustr14>
    3624:	e5d1003d 	ldrb	r0, [r1, #61]	; 0x3d
    3628:	eafffe15 	b	2e84 <bitadjustr14>
    362c:	e5d1003e 	ldrb	r0, [r1, #62]	; 0x3e
    3630:	eafffe13 	b	2e84 <bitadjustr14>
    3634:	e5d1003f 	ldrb	r0, [r1, #63]	; 0x3f
    3638:	eafffe11 	b	2e84 <bitadjustr14>
    363c:	e5d10040 	ldrb	r0, [r1, #64]	; 0x40
    3640:	eafffe0f 	b	2e84 <bitadjustr14>
    3644:	e5d10041 	ldrb	r0, [r1, #65]	; 0x41
    3648:	eafffe0d 	b	2e84 <bitadjustr14>
    364c:	e5d10042 	ldrb	r0, [r1, #66]	; 0x42
    3650:	eafffe0b 	b	2e84 <bitadjustr14>
    3654:	e5d10043 	ldrb	r0, [r1, #67]	; 0x43
    3658:	eafffe09 	b	2e84 <bitadjustr14>
    365c:	e5d10044 	ldrb	r0, [r1, #68]	; 0x44
    3660:	eafffe07 	b	2e84 <bitadjustr14>
    3664:	e5d10045 	ldrb	r0, [r1, #69]	; 0x45
    3668:	eafffe05 	b	2e84 <bitadjustr14>
    366c:	e5d10046 	ldrb	r0, [r1, #70]	; 0x46
    3670:	eafffe03 	b	2e84 <bitadjustr14>
    3674:	e5d10047 	ldrb	r0, [r1, #71]	; 0x47
    3678:	eafffe01 	b	2e84 <bitadjustr14>
    367c:	e5d10048 	ldrb	r0, [r1, #72]	; 0x48
    3680:	eafffdff 	b	2e84 <bitadjustr14>
    3684:	e5d10049 	ldrb	r0, [r1, #73]	; 0x49
    3688:	eafffdfd 	b	2e84 <bitadjustr14>
    368c:	e5d1004a 	ldrb	r0, [r1, #74]	; 0x4a
    3690:	eafffdfb 	b	2e84 <bitadjustr14>
    3694:	e5d1004b 	ldrb	r0, [r1, #75]	; 0x4b
    3698:	eafffdf9 	b	2e84 <bitadjustr14>
    369c:	e5d1004c 	ldrb	r0, [r1, #76]	; 0x4c
    36a0:	eafffdf7 	b	2e84 <bitadjustr14>
    36a4:	e5d1004d 	ldrb	r0, [r1, #77]	; 0x4d
    36a8:	eafffdf5 	b	2e84 <bitadjustr14>
    36ac:	e5d1004e 	ldrb	r0, [r1, #78]	; 0x4e
    36b0:	eafffdf3 	b	2e84 <bitadjustr14>
    36b4:	e5d1004f 	ldrb	r0, [r1, #79]	; 0x4f
    36b8:	eafffdf1 	b	2e84 <bitadjustr14>
    36bc:	e5d10050 	ldrb	r0, [r1, #80]	; 0x50
    36c0:	eafffdef 	b	2e84 <bitadjustr14>
    36c4:	e5d10051 	ldrb	r0, [r1, #81]	; 0x51
    36c8:	eafffded 	b	2e84 <bitadjustr14>
    36cc:	e5d10052 	ldrb	r0, [r1, #82]	; 0x52
    36d0:	eafffdeb 	b	2e84 <bitadjustr14>
    36d4:	e5d10053 	ldrb	r0, [r1, #83]	; 0x53
    36d8:	eafffde9 	b	2e84 <bitadjustr14>
    36dc:	e5d10054 	ldrb	r0, [r1, #84]	; 0x54
    36e0:	eafffde7 	b	2e84 <bitadjustr14>
    36e4:	e5d10055 	ldrb	r0, [r1, #85]	; 0x55
    36e8:	eafffde5 	b	2e84 <bitadjustr14>
    36ec:	e5d10056 	ldrb	r0, [r1, #86]	; 0x56
    36f0:	eafffde3 	b	2e84 <bitadjustr14>
    36f4:	e5d10057 	ldrb	r0, [r1, #87]	; 0x57
    36f8:	eafffde1 	b	2e84 <bitadjustr14>
    36fc:	e5d10058 	ldrb	r0, [r1, #88]	; 0x58
    3700:	eafffddf 	b	2e84 <bitadjustr14>
    3704:	e5d10059 	ldrb	r0, [r1, #89]	; 0x59
    3708:	eafffddd 	b	2e84 <bitadjustr14>
    370c:	e5d1005a 	ldrb	r0, [r1, #90]	; 0x5a
    3710:	eafffddb 	b	2e84 <bitadjustr14>
    3714:	e5d1005b 	ldrb	r0, [r1, #91]	; 0x5b
    3718:	eafffdd9 	b	2e84 <bitadjustr14>
    371c:	e5d1005c 	ldrb	r0, [r1, #92]	; 0x5c
    3720:	eafffdd7 	b	2e84 <bitadjustr14>
    3724:	e5d1005d 	ldrb	r0, [r1, #93]	; 0x5d
    3728:	eafffdd5 	b	2e84 <bitadjustr14>
    372c:	e5d1005e 	ldrb	r0, [r1, #94]	; 0x5e
    3730:	eafffdd3 	b	2e84 <bitadjustr14>
    3734:	e5d1005f 	ldrb	r0, [r1, #95]	; 0x5f
    3738:	eafffdd1 	b	2e84 <bitadjustr14>
    373c:	e5d10060 	ldrb	r0, [r1, #96]	; 0x60
    3740:	eafffdcf 	b	2e84 <bitadjustr14>
    3744:	e5d10061 	ldrb	r0, [r1, #97]	; 0x61
    3748:	eafffdcd 	b	2e84 <bitadjustr14>
    374c:	e5d10062 	ldrb	r0, [r1, #98]	; 0x62
    3750:	eafffdcb 	b	2e84 <bitadjustr14>
    3754:	e5d10063 	ldrb	r0, [r1, #99]	; 0x63
    3758:	eafffdc9 	b	2e84 <bitadjustr14>
    375c:	e5d10064 	ldrb	r0, [r1, #100]	; 0x64
    3760:	eafffdc7 	b	2e84 <bitadjustr14>
    3764:	e5d10065 	ldrb	r0, [r1, #101]	; 0x65
    3768:	eafffdc5 	b	2e84 <bitadjustr14>
    376c:	e5d10066 	ldrb	r0, [r1, #102]	; 0x66
    3770:	eafffdc3 	b	2e84 <bitadjustr14>
    3774:	e5d10067 	ldrb	r0, [r1, #103]	; 0x67
    3778:	eafffdc1 	b	2e84 <bitadjustr14>
    377c:	e5d10068 	ldrb	r0, [r1, #104]	; 0x68
    3780:	eafffdbf 	b	2e84 <bitadjustr14>
    3784:	e5d10069 	ldrb	r0, [r1, #105]	; 0x69
    3788:	eafffdbd 	b	2e84 <bitadjustr14>
    378c:	e5d1006a 	ldrb	r0, [r1, #106]	; 0x6a
    3790:	eafffdbb 	b	2e84 <bitadjustr14>
    3794:	e5d1006b 	ldrb	r0, [r1, #107]	; 0x6b
    3798:	eafffdb9 	b	2e84 <bitadjustr14>
    379c:	e5d1006c 	ldrb	r0, [r1, #108]	; 0x6c
    37a0:	eafffdb7 	b	2e84 <bitadjustr14>
    37a4:	e5d1006d 	ldrb	r0, [r1, #109]	; 0x6d
    37a8:	eafffdb5 	b	2e84 <bitadjustr14>
    37ac:	e5d1006e 	ldrb	r0, [r1, #110]	; 0x6e
    37b0:	eafffdb3 	b	2e84 <bitadjustr14>
    37b4:	e5d1006f 	ldrb	r0, [r1, #111]	; 0x6f
    37b8:	eafffdb1 	b	2e84 <bitadjustr14>
    37bc:	e5d10070 	ldrb	r0, [r1, #112]	; 0x70
    37c0:	eafffdaf 	b	2e84 <bitadjustr14>
    37c4:	e5d10071 	ldrb	r0, [r1, #113]	; 0x71
    37c8:	eafffdad 	b	2e84 <bitadjustr14>
    37cc:	e5d10072 	ldrb	r0, [r1, #114]	; 0x72
    37d0:	eafffdab 	b	2e84 <bitadjustr14>
    37d4:	e5d10073 	ldrb	r0, [r1, #115]	; 0x73
    37d8:	eafffda9 	b	2e84 <bitadjustr14>
    37dc:	e5d10074 	ldrb	r0, [r1, #116]	; 0x74
    37e0:	eafffda7 	b	2e84 <bitadjustr14>
    37e4:	e5d10075 	ldrb	r0, [r1, #117]	; 0x75
    37e8:	eafffda5 	b	2e84 <bitadjustr14>
    37ec:	e5d10076 	ldrb	r0, [r1, #118]	; 0x76
    37f0:	eafffda3 	b	2e84 <bitadjustr14>
    37f4:	e5d10077 	ldrb	r0, [r1, #119]	; 0x77
    37f8:	eafffda1 	b	2e84 <bitadjustr14>
    37fc:	e5d10078 	ldrb	r0, [r1, #120]	; 0x78
    3800:	eafffd9f 	b	2e84 <bitadjustr14>
    3804:	e5d10079 	ldrb	r0, [r1, #121]	; 0x79
    3808:	eafffd9d 	b	2e84 <bitadjustr14>
    380c:	e5d1007a 	ldrb	r0, [r1, #122]	; 0x7a
    3810:	eafffd9b 	b	2e84 <bitadjustr14>
    3814:	e5d1007b 	ldrb	r0, [r1, #123]	; 0x7b
    3818:	eafffd99 	b	2e84 <bitadjustr14>
    381c:	e5d1007c 	ldrb	r0, [r1, #124]	; 0x7c
    3820:	eafffd97 	b	2e84 <bitadjustr14>
    3824:	e5d1007d 	ldrb	r0, [r1, #125]	; 0x7d
    3828:	eafffd95 	b	2e84 <bitadjustr14>
    382c:	e5d1007e 	ldrb	r0, [r1, #126]	; 0x7e
    3830:	eafffd93 	b	2e84 <bitadjustr14>
    3834:	e5d1007f 	ldrb	r0, [r1, #127]	; 0x7f
    3838:	eafffd91 	b	2e84 <bitadjustr14>
    383c:	e5d10080 	ldrb	r0, [r1, #128]	; 0x80
    3840:	eafffd8f 	b	2e84 <bitadjustr14>
    3844:	e5d10081 	ldrb	r0, [r1, #129]	; 0x81
    3848:	eafffd8d 	b	2e84 <bitadjustr14>
    384c:	e5d10082 	ldrb	r0, [r1, #130]	; 0x82
    3850:	eafffd8b 	b	2e84 <bitadjustr14>
    3854:	e5d10083 	ldrb	r0, [r1, #131]	; 0x83
    3858:	eafffd89 	b	2e84 <bitadjustr14>
    385c:	e5d10084 	ldrb	r0, [r1, #132]	; 0x84
    3860:	eafffd87 	b	2e84 <bitadjustr14>
    3864:	e5d10085 	ldrb	r0, [r1, #133]	; 0x85
    3868:	eafffd85 	b	2e84 <bitadjustr14>
    386c:	e5d10086 	ldrb	r0, [r1, #134]	; 0x86
    3870:	eafffd83 	b	2e84 <bitadjustr14>
    3874:	e5d10087 	ldrb	r0, [r1, #135]	; 0x87
    3878:	eafffd81 	b	2e84 <bitadjustr14>
    387c:	e5d10088 	ldrb	r0, [r1, #136]	; 0x88
    3880:	eafffd7f 	b	2e84 <bitadjustr14>
    3884:	e5d10089 	ldrb	r0, [r1, #137]	; 0x89
    3888:	eafffd7d 	b	2e84 <bitadjustr14>
    388c:	e5d1008a 	ldrb	r0, [r1, #138]	; 0x8a
    3890:	eafffd7b 	b	2e84 <bitadjustr14>
    3894:	e5d1008b 	ldrb	r0, [r1, #139]	; 0x8b
    3898:	eafffd79 	b	2e84 <bitadjustr14>
    389c:	e5d1008c 	ldrb	r0, [r1, #140]	; 0x8c
    38a0:	eafffd77 	b	2e84 <bitadjustr14>
    38a4:	e5d1008d 	ldrb	r0, [r1, #141]	; 0x8d
    38a8:	eafffd75 	b	2e84 <bitadjustr14>
    38ac:	e5d1008e 	ldrb	r0, [r1, #142]	; 0x8e
    38b0:	eafffd73 	b	2e84 <bitadjustr14>
    38b4:	e5d1008f 	ldrb	r0, [r1, #143]	; 0x8f
    38b8:	eafffd71 	b	2e84 <bitadjustr14>
    38bc:	e5d10090 	ldrb	r0, [r1, #144]	; 0x90
    38c0:	eafffd6f 	b	2e84 <bitadjustr14>
    38c4:	e5d10091 	ldrb	r0, [r1, #145]	; 0x91
    38c8:	eafffd6d 	b	2e84 <bitadjustr14>
    38cc:	e5d10092 	ldrb	r0, [r1, #146]	; 0x92
    38d0:	eafffd6b 	b	2e84 <bitadjustr14>
    38d4:	e5d10093 	ldrb	r0, [r1, #147]	; 0x93
    38d8:	eafffd69 	b	2e84 <bitadjustr14>
    38dc:	e5d10094 	ldrb	r0, [r1, #148]	; 0x94
    38e0:	eafffd67 	b	2e84 <bitadjustr14>
    38e4:	e5d10095 	ldrb	r0, [r1, #149]	; 0x95
    38e8:	eafffd65 	b	2e84 <bitadjustr14>
    38ec:	e5d10096 	ldrb	r0, [r1, #150]	; 0x96
    38f0:	eafffd63 	b	2e84 <bitadjustr14>
    38f4:	e5d10097 	ldrb	r0, [r1, #151]	; 0x97
    38f8:	eafffd61 	b	2e84 <bitadjustr14>
    38fc:	e5d10098 	ldrb	r0, [r1, #152]	; 0x98
    3900:	eafffd5f 	b	2e84 <bitadjustr14>
    3904:	e5d10099 	ldrb	r0, [r1, #153]	; 0x99
    3908:	eafffd5d 	b	2e84 <bitadjustr14>
    390c:	e5d1009a 	ldrb	r0, [r1, #154]	; 0x9a
    3910:	eafffd5b 	b	2e84 <bitadjustr14>
    3914:	e5d1009b 	ldrb	r0, [r1, #155]	; 0x9b
    3918:	eafffd59 	b	2e84 <bitadjustr14>
    391c:	e5d1009c 	ldrb	r0, [r1, #156]	; 0x9c
    3920:	eafffd57 	b	2e84 <bitadjustr14>
    3924:	e5d1009d 	ldrb	r0, [r1, #157]	; 0x9d
    3928:	eafffd55 	b	2e84 <bitadjustr14>
    392c:	e5d1009e 	ldrb	r0, [r1, #158]	; 0x9e
    3930:	eafffd53 	b	2e84 <bitadjustr14>
    3934:	e5d1009f 	ldrb	r0, [r1, #159]	; 0x9f
    3938:	eafffd51 	b	2e84 <bitadjustr14>
    393c:	e5d100a0 	ldrb	r0, [r1, #160]	; 0xa0
    3940:	eafffd4f 	b	2e84 <bitadjustr14>
    3944:	e5d100a1 	ldrb	r0, [r1, #161]	; 0xa1
    3948:	eafffd4d 	b	2e84 <bitadjustr14>
    394c:	e5d100a2 	ldrb	r0, [r1, #162]	; 0xa2
    3950:	eafffd4b 	b	2e84 <bitadjustr14>
    3954:	e5d100a3 	ldrb	r0, [r1, #163]	; 0xa3
    3958:	eafffd49 	b	2e84 <bitadjustr14>
    395c:	e5d100a4 	ldrb	r0, [r1, #164]	; 0xa4
    3960:	eafffd47 	b	2e84 <bitadjustr14>
    3964:	e5d100a5 	ldrb	r0, [r1, #165]	; 0xa5
    3968:	eafffd45 	b	2e84 <bitadjustr14>
    396c:	e5d100a6 	ldrb	r0, [r1, #166]	; 0xa6
    3970:	eafffd43 	b	2e84 <bitadjustr14>
    3974:	e5d100a7 	ldrb	r0, [r1, #167]	; 0xa7
    3978:	eafffd41 	b	2e84 <bitadjustr14>
    397c:	e5d100a8 	ldrb	r0, [r1, #168]	; 0xa8
    3980:	eafffd3f 	b	2e84 <bitadjustr14>
    3984:	e5d100a9 	ldrb	r0, [r1, #169]	; 0xa9
    3988:	eafffd3d 	b	2e84 <bitadjustr14>
    398c:	e5d100aa 	ldrb	r0, [r1, #170]	; 0xaa
    3990:	eafffd3b 	b	2e84 <bitadjustr14>
    3994:	e5d100ab 	ldrb	r0, [r1, #171]	; 0xab
    3998:	eafffd39 	b	2e84 <bitadjustr14>
    399c:	e5d100ac 	ldrb	r0, [r1, #172]	; 0xac
    39a0:	eafffd37 	b	2e84 <bitadjustr14>
    39a4:	e5d100ad 	ldrb	r0, [r1, #173]	; 0xad
    39a8:	eafffd35 	b	2e84 <bitadjustr14>
    39ac:	e5d100ae 	ldrb	r0, [r1, #174]	; 0xae
    39b0:	eafffd33 	b	2e84 <bitadjustr14>
    39b4:	e5d100af 	ldrb	r0, [r1, #175]	; 0xaf
    39b8:	eafffd31 	b	2e84 <bitadjustr14>
    39bc:	e5d100b0 	ldrb	r0, [r1, #176]	; 0xb0
    39c0:	eafffd2f 	b	2e84 <bitadjustr14>
    39c4:	e5d100b1 	ldrb	r0, [r1, #177]	; 0xb1
    39c8:	eafffd2d 	b	2e84 <bitadjustr14>
    39cc:	e5d100b2 	ldrb	r0, [r1, #178]	; 0xb2
    39d0:	eafffd2b 	b	2e84 <bitadjustr14>
    39d4:	e5d100b3 	ldrb	r0, [r1, #179]	; 0xb3
    39d8:	eafffd29 	b	2e84 <bitadjustr14>
    39dc:	e5d100b4 	ldrb	r0, [r1, #180]	; 0xb4
    39e0:	eafffd27 	b	2e84 <bitadjustr14>
    39e4:	e5d100b5 	ldrb	r0, [r1, #181]	; 0xb5
    39e8:	eafffd25 	b	2e84 <bitadjustr14>
    39ec:	e5d100b6 	ldrb	r0, [r1, #182]	; 0xb6
    39f0:	eafffd23 	b	2e84 <bitadjustr14>
    39f4:	e5d100b7 	ldrb	r0, [r1, #183]	; 0xb7
    39f8:	eafffd21 	b	2e84 <bitadjustr14>
    39fc:	e5d100b8 	ldrb	r0, [r1, #184]	; 0xb8
    3a00:	eafffd1f 	b	2e84 <bitadjustr14>
    3a04:	e5d100b9 	ldrb	r0, [r1, #185]	; 0xb9
    3a08:	eafffd1d 	b	2e84 <bitadjustr14>
    3a0c:	e5d100ba 	ldrb	r0, [r1, #186]	; 0xba
    3a10:	eafffd1b 	b	2e84 <bitadjustr14>
    3a14:	e5d100bb 	ldrb	r0, [r1, #187]	; 0xbb
    3a18:	eafffd19 	b	2e84 <bitadjustr14>
    3a1c:	e5d100bc 	ldrb	r0, [r1, #188]	; 0xbc
    3a20:	eafffd17 	b	2e84 <bitadjustr14>
    3a24:	e5d100bd 	ldrb	r0, [r1, #189]	; 0xbd
    3a28:	eafffd15 	b	2e84 <bitadjustr14>
    3a2c:	e5d100be 	ldrb	r0, [r1, #190]	; 0xbe
    3a30:	eafffd13 	b	2e84 <bitadjustr14>
    3a34:	e5d100bf 	ldrb	r0, [r1, #191]	; 0xbf
    3a38:	eafffd11 	b	2e84 <bitadjustr14>
    3a3c:	e5d100c0 	ldrb	r0, [r1, #192]	; 0xc0
    3a40:	eafffd0f 	b	2e84 <bitadjustr14>
    3a44:	e5d100c1 	ldrb	r0, [r1, #193]	; 0xc1
    3a48:	eafffd0d 	b	2e84 <bitadjustr14>
    3a4c:	e5d100c2 	ldrb	r0, [r1, #194]	; 0xc2
    3a50:	eafffd0b 	b	2e84 <bitadjustr14>
    3a54:	e5d100c3 	ldrb	r0, [r1, #195]	; 0xc3
    3a58:	eafffd09 	b	2e84 <bitadjustr14>
    3a5c:	e5d100c4 	ldrb	r0, [r1, #196]	; 0xc4
    3a60:	eafffd07 	b	2e84 <bitadjustr14>
    3a64:	e5d100c5 	ldrb	r0, [r1, #197]	; 0xc5
    3a68:	eafffd05 	b	2e84 <bitadjustr14>
    3a6c:	e5d100c6 	ldrb	r0, [r1, #198]	; 0xc6
    3a70:	eafffd03 	b	2e84 <bitadjustr14>
    3a74:	e5d100c7 	ldrb	r0, [r1, #199]	; 0xc7
    3a78:	eafffd01 	b	2e84 <bitadjustr14>
    3a7c:	e5d100c8 	ldrb	r0, [r1, #200]	; 0xc8
    3a80:	eafffcff 	b	2e84 <bitadjustr14>
    3a84:	e5d100c9 	ldrb	r0, [r1, #201]	; 0xc9
    3a88:	eafffcfd 	b	2e84 <bitadjustr14>
    3a8c:	e5d100ca 	ldrb	r0, [r1, #202]	; 0xca
    3a90:	eafffcfb 	b	2e84 <bitadjustr14>
    3a94:	e5d100cb 	ldrb	r0, [r1, #203]	; 0xcb
    3a98:	eafffcf9 	b	2e84 <bitadjustr14>
    3a9c:	e5d100cc 	ldrb	r0, [r1, #204]	; 0xcc
    3aa0:	eafffcf7 	b	2e84 <bitadjustr14>
    3aa4:	e5d100cd 	ldrb	r0, [r1, #205]	; 0xcd
    3aa8:	eafffcf5 	b	2e84 <bitadjustr14>
    3aac:	e5d100ce 	ldrb	r0, [r1, #206]	; 0xce
    3ab0:	eafffcf3 	b	2e84 <bitadjustr14>
    3ab4:	e5d100cf 	ldrb	r0, [r1, #207]	; 0xcf
    3ab8:	eafffcf1 	b	2e84 <bitadjustr14>
    3abc:	e5d100d0 	ldrb	r0, [r1, #208]	; 0xd0
    3ac0:	eafffcef 	b	2e84 <bitadjustr14>
    3ac4:	e5d100d1 	ldrb	r0, [r1, #209]	; 0xd1
    3ac8:	eafffced 	b	2e84 <bitadjustr14>
    3acc:	e5d100d2 	ldrb	r0, [r1, #210]	; 0xd2
    3ad0:	eafffceb 	b	2e84 <bitadjustr14>
    3ad4:	e5d100d3 	ldrb	r0, [r1, #211]	; 0xd3
    3ad8:	eafffce9 	b	2e84 <bitadjustr14>
    3adc:	e5d100d4 	ldrb	r0, [r1, #212]	; 0xd4
    3ae0:	eafffce7 	b	2e84 <bitadjustr14>
    3ae4:	e5d100d5 	ldrb	r0, [r1, #213]	; 0xd5
    3ae8:	eafffce5 	b	2e84 <bitadjustr14>
    3aec:	e5d100d6 	ldrb	r0, [r1, #214]	; 0xd6
    3af0:	eafffce3 	b	2e84 <bitadjustr14>
    3af4:	e5d100d7 	ldrb	r0, [r1, #215]	; 0xd7
    3af8:	eafffce1 	b	2e84 <bitadjustr14>
    3afc:	e5d100d8 	ldrb	r0, [r1, #216]	; 0xd8
    3b00:	eafffcdf 	b	2e84 <bitadjustr14>
    3b04:	e5d100d9 	ldrb	r0, [r1, #217]	; 0xd9
    3b08:	eafffcdd 	b	2e84 <bitadjustr14>
    3b0c:	e5d100da 	ldrb	r0, [r1, #218]	; 0xda
    3b10:	eafffcdb 	b	2e84 <bitadjustr14>
    3b14:	e5d100db 	ldrb	r0, [r1, #219]	; 0xdb
    3b18:	eafffcd9 	b	2e84 <bitadjustr14>
    3b1c:	e5d100dc 	ldrb	r0, [r1, #220]	; 0xdc
    3b20:	eafffcd7 	b	2e84 <bitadjustr14>
    3b24:	e5d100dd 	ldrb	r0, [r1, #221]	; 0xdd
    3b28:	eafffcd5 	b	2e84 <bitadjustr14>
    3b2c:	e5d100de 	ldrb	r0, [r1, #222]	; 0xde
    3b30:	eafffcd3 	b	2e84 <bitadjustr14>
    3b34:	e5d100df 	ldrb	r0, [r1, #223]	; 0xdf
    3b38:	eafffcd1 	b	2e84 <bitadjustr14>
    3b3c:	e5d100e0 	ldrb	r0, [r1, #224]	; 0xe0
    3b40:	eafffccf 	b	2e84 <bitadjustr14>
    3b44:	e5d100e1 	ldrb	r0, [r1, #225]	; 0xe1
    3b48:	eafffccd 	b	2e84 <bitadjustr14>
    3b4c:	e5d100e2 	ldrb	r0, [r1, #226]	; 0xe2
    3b50:	eafffccb 	b	2e84 <bitadjustr14>
    3b54:	e5d100e3 	ldrb	r0, [r1, #227]	; 0xe3
    3b58:	eafffcc9 	b	2e84 <bitadjustr14>
    3b5c:	e5d100e4 	ldrb	r0, [r1, #228]	; 0xe4
    3b60:	eafffcc7 	b	2e84 <bitadjustr14>
    3b64:	e5d100e5 	ldrb	r0, [r1, #229]	; 0xe5
    3b68:	eafffcc5 	b	2e84 <bitadjustr14>
    3b6c:	e5d100e6 	ldrb	r0, [r1, #230]	; 0xe6
    3b70:	eafffcc3 	b	2e84 <bitadjustr14>
    3b74:	e5d100e7 	ldrb	r0, [r1, #231]	; 0xe7
    3b78:	eafffcc1 	b	2e84 <bitadjustr14>
    3b7c:	e5d100e8 	ldrb	r0, [r1, #232]	; 0xe8
    3b80:	eafffcbf 	b	2e84 <bitadjustr14>
    3b84:	e5d100e9 	ldrb	r0, [r1, #233]	; 0xe9
    3b88:	eafffcbd 	b	2e84 <bitadjustr14>
    3b8c:	e5d100ea 	ldrb	r0, [r1, #234]	; 0xea
    3b90:	eafffcbb 	b	2e84 <bitadjustr14>
    3b94:	e5d100eb 	ldrb	r0, [r1, #235]	; 0xeb
    3b98:	eafffcb9 	b	2e84 <bitadjustr14>
    3b9c:	e5d100ec 	ldrb	r0, [r1, #236]	; 0xec
    3ba0:	eafffcb7 	b	2e84 <bitadjustr14>
    3ba4:	e5d100ed 	ldrb	r0, [r1, #237]	; 0xed
    3ba8:	eafffcb5 	b	2e84 <bitadjustr14>
    3bac:	e5d100ee 	ldrb	r0, [r1, #238]	; 0xee
    3bb0:	eafffcb3 	b	2e84 <bitadjustr14>
    3bb4:	e5d100ef 	ldrb	r0, [r1, #239]	; 0xef
    3bb8:	eafffcb1 	b	2e84 <bitadjustr14>
    3bbc:	e5d100f0 	ldrb	r0, [r1, #240]	; 0xf0
    3bc0:	eafffcaf 	b	2e84 <bitadjustr14>
    3bc4:	e5d100f1 	ldrb	r0, [r1, #241]	; 0xf1
    3bc8:	eafffcad 	b	2e84 <bitadjustr14>
    3bcc:	e5d100f2 	ldrb	r0, [r1, #242]	; 0xf2
    3bd0:	eafffcab 	b	2e84 <bitadjustr14>
    3bd4:	e5d100f3 	ldrb	r0, [r1, #243]	; 0xf3
    3bd8:	eafffca9 	b	2e84 <bitadjustr14>
    3bdc:	e5d100f4 	ldrb	r0, [r1, #244]	; 0xf4
    3be0:	eafffca7 	b	2e84 <bitadjustr14>
    3be4:	e5d100f5 	ldrb	r0, [r1, #245]	; 0xf5
    3be8:	eafffca5 	b	2e84 <bitadjustr14>
    3bec:	e5d100f6 	ldrb	r0, [r1, #246]	; 0xf6
    3bf0:	eafffca3 	b	2e84 <bitadjustr14>
    3bf4:	e5d100f7 	ldrb	r0, [r1, #247]	; 0xf7
    3bf8:	eafffca1 	b	2e84 <bitadjustr14>
    3bfc:	e5d100f8 	ldrb	r0, [r1, #248]	; 0xf8
    3c00:	eafffc9f 	b	2e84 <bitadjustr14>
    3c04:	e5d100f9 	ldrb	r0, [r1, #249]	; 0xf9
    3c08:	eafffc9d 	b	2e84 <bitadjustr14>
    3c0c:	e5d100fa 	ldrb	r0, [r1, #250]	; 0xfa
    3c10:	eafffc9b 	b	2e84 <bitadjustr14>
    3c14:	e5d100fb 	ldrb	r0, [r1, #251]	; 0xfb
    3c18:	eafffc99 	b	2e84 <bitadjustr14>
    3c1c:	e5d100fc 	ldrb	r0, [r1, #252]	; 0xfc
    3c20:	eafffc97 	b	2e84 <bitadjustr14>
    3c24:	e5d100fd 	ldrb	r0, [r1, #253]	; 0xfd
    3c28:	eafffc95 	b	2e84 <bitadjustr14>
    3c2c:	e5d100fe 	ldrb	r0, [r1, #254]	; 0xfe
    3c30:	eafffc93 	b	2e84 <bitadjustr14>
    3c34:	e5d100ff 	ldrb	r0, [r1, #255]	; 0xff
    3c38:	eafffc91 	b	2e84 <bitadjustr14>
