
CMakeFiles/tube-client.dir/jit.S.obj:     file format elf32-littlearm


Disassembly of section .text:

00000000 <opc_03>:
       0:	e59f8a28 	ldr	r8, [pc, #2600]	; a30 <B_NOP>
       4:	e1a09008 	mov	r9, r8
       8:	ea00092a 	b	24b8 <jitend1bytestore2>

0000000c <opc_02>:
       c:	e3a0c4ea 	mov	ip, #-369098752	; 0xea000000
      10:	e38cc002 	orr	ip, ip, #2
      14:	e586c000 	str	ip, [r6]
      18:	e59f00e8 	ldr	r0, [pc, #232]	; 108 <opc_F0+0x1c>
      1c:	eb000956 	bl	257c <fillinjittedtable>
      20:	e2822002 	add	r2, r2, #2
      24:	ea0007eb 	b	1fd8 <dojitloop>

00000028 <opc_5C>:
      28:	e3a0c4ea 	mov	ip, #-369098752	; 0xea000000
      2c:	e38cc004 	orr	ip, ip, #4
      30:	e586c000 	str	ip, [r6]
      34:	e59f00cc 	ldr	r0, [pc, #204]	; 108 <opc_F0+0x1c>
      38:	eb00094f 	bl	257c <fillinjittedtable>
      3c:	e2822003 	add	r2, r2, #3
      40:	ea0007e4 	b	1fd8 <dojitloop>

00000044 <opc_10>:
      44:	e6af4074 	sxtb	r4, r4
      48:	e59f19e0 	ldr	r1, [pc, #2528]	; a30 <B_NOP>
      4c:	e1a00084 	lsl	r0, r4, #1
      50:	e2800002 	add	r0, r0, #2
      54:	e3c004ff 	bic	r0, r0, #-16777216	; 0xff000000
      58:	e380045a 	orr	r0, r0, #1509949440	; 0x5a000000
      5c:	ea0008e5 	b	23f8 <branchsavewords>

00000060 <opc_30>:
      60:	e6af4074 	sxtb	r4, r4
      64:	e59f19c4 	ldr	r1, [pc, #2500]	; a30 <B_NOP>
      68:	e1a00084 	lsl	r0, r4, #1
      6c:	e2800002 	add	r0, r0, #2
      70:	e3c004ff 	bic	r0, r0, #-16777216	; 0xff000000
      74:	e380044a 	orr	r0, r0, #1241513984	; 0x4a000000
      78:	ea0008de 	b	23f8 <branchsavewords>

0000007c <opc_80>:
      7c:	e6af4074 	sxtb	r4, r4
      80:	e59f19a8 	ldr	r1, [pc, #2472]	; a30 <B_NOP>
      84:	e1a00084 	lsl	r0, r4, #1
      88:	e2800002 	add	r0, r0, #2
      8c:	e3c004ff 	bic	r0, r0, #-16777216	; 0xff000000
      90:	e38004ea 	orr	r0, r0, #-369098752	; 0xea000000
      94:	ea0008d7 	b	23f8 <branchsavewords>

00000098 <opc_90>:
      98:	e6af4074 	sxtb	r4, r4
      9c:	e59f198c 	ldr	r1, [pc, #2444]	; a30 <B_NOP>
      a0:	e1a00084 	lsl	r0, r4, #1
      a4:	e2800002 	add	r0, r0, #2
      a8:	e3c004ff 	bic	r0, r0, #-16777216	; 0xff000000
      ac:	e380043a 	orr	r0, r0, #973078528	; 0x3a000000
      b0:	ea0008d0 	b	23f8 <branchsavewords>

000000b4 <opc_B0>:
      b4:	e6af4074 	sxtb	r4, r4
      b8:	e59f1970 	ldr	r1, [pc, #2416]	; a30 <B_NOP>
      bc:	e1a00084 	lsl	r0, r4, #1
      c0:	e2800002 	add	r0, r0, #2
      c4:	e3c004ff 	bic	r0, r0, #-16777216	; 0xff000000
      c8:	e380042a 	orr	r0, r0, #704643072	; 0x2a000000
      cc:	ea0008c9 	b	23f8 <branchsavewords>

000000d0 <opc_D0>:
      d0:	e6af4074 	sxtb	r4, r4
      d4:	e59f1954 	ldr	r1, [pc, #2388]	; a30 <B_NOP>
      d8:	e1a00084 	lsl	r0, r4, #1
      dc:	e2800002 	add	r0, r0, #2
      e0:	e3c004ff 	bic	r0, r0, #-16777216	; 0xff000000
      e4:	e380041a 	orr	r0, r0, #436207616	; 0x1a000000
      e8:	ea0008c2 	b	23f8 <branchsavewords>

000000ec <opc_F0>:
      ec:	e6af4074 	sxtb	r4, r4
      f0:	e59f1938 	ldr	r1, [pc, #2360]	; a30 <B_NOP>
      f4:	e1a00084 	lsl	r0, r4, #1
      f8:	e2800002 	add	r0, r0, #2
      fc:	e3c004ff 	bic	r0, r0, #-16777216	; 0xff000000
     100:	e380040a 	orr	r0, r0, #167772160	; 0xa000000
     104:	ea0008bb 	b	23f8 <branchsavewords>
     108:	f2f01be4 	.word	0xf2f01be4
     10c:	e320f000 	nop	{0}

00000110 <opc_08>:
     110:	e1cf8fd8 	ldrd	r8, [pc, #248]	; 210 <Bopc_08>
     114:	ea0008e4 	b	24ac <singleopcodeBLend>

00000118 <opc_0A>:
     118:	e1cf8fd8 	ldrd	r8, [pc, #248]	; 218 <Bopc_0A>
     11c:	ea0008e5 	b	24b8 <jitend1bytestore2>

00000120 <opc_1A>:
     120:	e1cf8fd8 	ldrd	r8, [pc, #248]	; 220 <Bopc_1A>
     124:	ea0008e0 	b	24ac <singleopcodeBLend>

00000128 <opc_28>:
     128:	e1cf8fd8 	ldrd	r8, [pc, #248]	; 228 <Bopc_28>
     12c:	ea0008de 	b	24ac <singleopcodeBLend>

00000130 <opc_2A>:
     130:	e1cf8fd8 	ldrd	r8, [pc, #248]	; 230 <Bopc_2A>
     134:	ea0008dc 	b	24ac <singleopcodeBLend>

00000138 <opc_3A>:
     138:	e1cf8fd8 	ldrd	r8, [pc, #248]	; 238 <Bopc_3A>
     13c:	ea0008da 	b	24ac <singleopcodeBLend>

00000140 <opc_48>:
     140:	e1cf8fd8 	ldrd	r8, [pc, #248]	; 240 <Bopc_48>
     144:	ea0008db 	b	24b8 <jitend1bytestore2>

00000148 <opc_4A>:
     148:	e1cf8fd8 	ldrd	r8, [pc, #248]	; 248 <Bopc_4A>
     14c:	ea0008d9 	b	24b8 <jitend1bytestore2>

00000150 <opc_58>:
     150:	e1cf8fd8 	ldrd	r8, [pc, #248]	; 250 <Bopc_58>
     154:	ea0008d4 	b	24ac <singleopcodeBLend>

00000158 <opc_5A>:
     158:	e1cf8fd8 	ldrd	r8, [pc, #248]	; 258 <Bopc_5A>
     15c:	ea0008d2 	b	24ac <singleopcodeBLend>

00000160 <opc_68>:
     160:	e1cf8fd8 	ldrd	r8, [pc, #248]	; 260 <Bopc_68>
     164:	ea0008d0 	b	24ac <singleopcodeBLend>

00000168 <opc_6A>:
     168:	e1cf8fd8 	ldrd	r8, [pc, #248]	; 268 <Bopc_6A>
     16c:	ea0008ce 	b	24ac <singleopcodeBLend>

00000170 <opc_78>:
     170:	e1cf8fd8 	ldrd	r8, [pc, #248]	; 270 <Bopc_78>
     174:	ea0008cf 	b	24b8 <jitend1bytestore2>

00000178 <opc_7A>:
     178:	e1cf8fd8 	ldrd	r8, [pc, #248]	; 278 <Bopc_7A>
     17c:	ea0008ca 	b	24ac <singleopcodeBLend>

00000180 <opc_88>:
     180:	e1cf8fd8 	ldrd	r8, [pc, #248]	; 280 <Bopc_88>
     184:	ea0008cb 	b	24b8 <jitend1bytestore2>

00000188 <opc_8A>:
     188:	e1cf8fd8 	ldrd	r8, [pc, #248]	; 288 <Bopc_8A>
     18c:	ea0008c9 	b	24b8 <jitend1bytestore2>

00000190 <opc_98>:
     190:	e1cf8fd8 	ldrd	r8, [pc, #248]	; 290 <Bopc_98>
     194:	ea0008c7 	b	24b8 <jitend1bytestore2>

00000198 <opc_9A>:
     198:	e1cf8fd8 	ldrd	r8, [pc, #248]	; 298 <Bopc_9A>
     19c:	ea0008c5 	b	24b8 <jitend1bytestore2>

000001a0 <opc_A8>:
     1a0:	e1cf8fd8 	ldrd	r8, [pc, #248]	; 2a0 <Bopc_A8>
     1a4:	ea0008c3 	b	24b8 <jitend1bytestore2>

000001a8 <opc_AA>:
     1a8:	e1cf8fd8 	ldrd	r8, [pc, #248]	; 2a8 <Bopc_AA>
     1ac:	ea0008c1 	b	24b8 <jitend1bytestore2>

000001b0 <opc_B8>:
     1b0:	e1cf8fd8 	ldrd	r8, [pc, #248]	; 2b0 <Bopc_B8>
     1b4:	ea0008bf 	b	24b8 <jitend1bytestore2>

000001b8 <opc_BA>:
     1b8:	e1cf8fd8 	ldrd	r8, [pc, #248]	; 2b8 <Bopc_BA>
     1bc:	ea0008bd 	b	24b8 <jitend1bytestore2>

000001c0 <opc_C8>:
     1c0:	e1cf8fd8 	ldrd	r8, [pc, #248]	; 2c0 <Bopc_C8>
     1c4:	ea0008bb 	b	24b8 <jitend1bytestore2>

000001c8 <opc_CA>:
     1c8:	e1cf8fd8 	ldrd	r8, [pc, #248]	; 2c8 <Bopc_CA>
     1cc:	ea0008b9 	b	24b8 <jitend1bytestore2>

000001d0 <opc_D8>:
     1d0:	e1cf8fd8 	ldrd	r8, [pc, #248]	; 2d0 <Bopc_D8>
     1d4:	ea0008b7 	b	24b8 <jitend1bytestore2>

000001d8 <opc_DA>:
     1d8:	e1cf8fd8 	ldrd	r8, [pc, #248]	; 2d8 <Bopc_DA>
     1dc:	ea0008b2 	b	24ac <singleopcodeBLend>

000001e0 <opc_E3>:
     1e0:	e1cf8fd8 	ldrd	r8, [pc, #248]	; 2e0 <Bopc_E3>
     1e4:	ea0008b0 	b	24ac <singleopcodeBLend>

000001e8 <opc_E8>:
     1e8:	e1cf8fd8 	ldrd	r8, [pc, #248]	; 2e8 <Bopc_E8>
     1ec:	ea0008b1 	b	24b8 <jitend1bytestore2>

000001f0 <opc_EB>:
     1f0:	e1cf8fd8 	ldrd	r8, [pc, #248]	; 2f0 <Bopc_EB>
     1f4:	ea0008af 	b	24b8 <jitend1bytestore2>

000001f8 <opc_F3>:
     1f8:	e1cf8fd8 	ldrd	r8, [pc, #248]	; 2f8 <Bopc_F3>
     1fc:	ea0008aa 	b	24ac <singleopcodeBLend>

00000200 <opc_F8>:
     200:	e1cf8fd8 	ldrd	r8, [pc, #248]	; 300 <Bopc_F8>
     204:	ea0008ab 	b	24b8 <jitend1bytestore2>

00000208 <opc_FA>:
     208:	e1cf8fd8 	ldrd	r8, [pc, #248]	; 308 <Bopc_FA>
     20c:	ea0008a6 	b	24ac <singleopcodeBLend>

00000210 <Bopc_08>:
     210:	e387c030 	orr	ip, r7, #48	; 0x30
     214:	0000297c 	.word	0x0000297c

00000218 <Bopc_0A>:
     218:	e1b0ac8a 	lsls	sl, sl, #25
     21c:	e6afac7a 	sxtb	sl, sl, ror #24

00000220 <Bopc_1A>:
     220:	e28aa001 	add	sl, sl, #1
     224:	00002960 	.word	0x00002960

00000228 <Bopc_28>:
     228:	e3a0c001 	mov	ip, #1
     22c:	00002720 	.word	0x00002720

00000230 <Bopc_2A>:
     230:	e0aaa00a 	adc	sl, sl, sl
     234:	000028e4 	.word	0x000028e4

00000238 <Bopc_3A>:
     238:	e24aa001 	sub	sl, sl, #1
     23c:	00002960 	.word	0x00002960

00000240 <Bopc_48>:
     240:	e449a001 	strb	sl, [r9], #-1
     244:	e3899c01 	orr	r9, r9, #256	; 0x100

00000248 <Bopc_4A>:
     248:	e1b0a0aa 	lsrs	sl, sl, #1
     24c:	e20aa07f 	and	sl, sl, #127	; 0x7f

00000250 <Bopc_58>:
     250:	e3c77004 	bic	r7, r7, #4
     254:	00002718 	.word	0x00002718

00000258 <Bopc_5A>:
     258:	e1a0cc28 	lsr	ip, r8, #24
     25c:	00002988 	.word	0x00002988

00000260 <Bopc_68>:
     260:	e3a01001 	mov	r1, #1
     264:	0000288c 	.word	0x0000288c

00000268 <Bopc_6A>:
     268:	e20aa0ff 	and	sl, sl, #255	; 0xff
     26c:	000028b8 	.word	0x000028b8

00000270 <Bopc_78>:
     270:	e3877004 	orr	r7, r7, #4
     274:	e320f000 	nop	{0}

00000278 <Bopc_7A>:
     278:	e3a01001 	mov	r1, #1
     27c:	00002874 	.word	0x00002874

00000280 <Bopc_88>:
     280:	e2488401 	sub	r8, r8, #16777216	; 0x1000000
     284:	e3380000 	teq	r8, #0

00000288 <Bopc_8A>:
     288:	e6afac7b 	sxtb	sl, fp, ror #24
     28c:	e33a0000 	teq	sl, #0

00000290 <Bopc_98>:
     290:	e6afac78 	sxtb	sl, r8, ror #24
     294:	e33a0000 	teq	sl, #0

00000298 <Bopc_9A>:
     298:	e3c990ff 	bic	r9, r9, #255	; 0xff
     29c:	e1899c2b 	orr	r9, r9, fp, lsr #24

000002a0 <Bopc_A8>:
     2a0:	e1a08c0a 	lsl	r8, sl, #24
     2a4:	e33a0000 	teq	sl, #0

000002a8 <Bopc_AA>:
     2a8:	e1a0bc0a 	lsl	fp, sl, #24
     2ac:	e33a0000 	teq	sl, #0

000002b0 <Bopc_B8>:
     2b0:	e320f000 	nop	{0}
     2b4:	e3c77040 	bic	r7, r7, #64	; 0x40

000002b8 <Bopc_BA>:
     2b8:	e1a0bc09 	lsl	fp, r9, #24
     2bc:	e33b0000 	teq	fp, #0

000002c0 <Bopc_C8>:
     2c0:	e2888401 	add	r8, r8, #16777216	; 0x1000000
     2c4:	e3380000 	teq	r8, #0

000002c8 <Bopc_CA>:
     2c8:	e24bb401 	sub	fp, fp, #16777216	; 0x1000000
     2cc:	e33b0000 	teq	fp, #0

000002d0 <Bopc_D8>:
     2d0:	e320f000 	nop	{0}
     2d4:	e3c77008 	bic	r7, r7, #8

000002d8 <Bopc_DA>:
     2d8:	e1a0cc2b 	lsr	ip, fp, #24
     2dc:	00002988 	.word	0x00002988

000002e0 <Bopc_E3>:
     2e0:	e3a01001 	mov	r1, #1
     2e4:	000027d0 	.word	0x000027d0

000002e8 <Bopc_E8>:
     2e8:	e28bb401 	add	fp, fp, #16777216	; 0x1000000
     2ec:	e33b0000 	teq	fp, #0

000002f0 <Bopc_EB>:
     2f0:	ee190f1d 	mrc	15, 0, r0, cr9, cr13, {0}
     2f4:	e58600e0 	str	r0, [r6, #224]	; 0xe0

000002f8 <Bopc_F3>:
     2f8:	e320f000 	nop	{0}
     2fc:	000027b4 	.word	0x000027b4

00000300 <Bopc_F8>:
     300:	e320f000 	nop	{0}
     304:	e3877008 	orr	r7, r7, #8

00000308 <Bopc_FA>:
     308:	e3a01001 	mov	r1, #1
     30c:	0000285c 	.word	0x0000285c

00000310 <Bopc_FB>:
     310:	ee190f1d 	mrc	15, 0, r0, cr9, cr13, {0}
     314:	e58600e4 	str	r0, [r6, #228]	; 0xe4

00000318 <Bopc_carry>:
     318:	000027d8 	.word	0x000027d8
     31c:	e320f000 	nop	{0}

00000320 <Bopc_00>:
     320:	e320f000 	nop	{0}
     324:	0000261c 	.word	0x0000261c

00000328 <Bopc_40>:
     328:	e3a0c001 	mov	ip, #1
     32c:	0000266c 	.word	0x0000266c

00000330 <Bopc_60>:
     330:	e1d900b1 	ldrh	r0, [r9, #1]
     334:	000028a0 	.word	0x000028a0

00000338 <Bopc_01>:
     338:	e28b1400 	.word	0xe28b1400
     33c:	e1a01c21 	lsr	r1, r1, #24
     340:	000029c8 	.word	0x000029c8
     344:	e19aa000 	orrs	sl, sl, r0

00000348 <Bopc_04>:
     348:	e3a01000 	mov	r1, #0
     34c:	e5d1c000 	ldrb	ip, [r1]
     350:	e10f0000 	mrs	r0, CPSR
     354:	000029a8 	.word	0x000029a8

00000358 <Bopc_05>:
     358:	e1d600d0 	ldrsb	r0, [r6]
     35c:	e320f000 	nop	{0}
     360:	e320f000 	nop	{0}
     364:	e19aa000 	orrs	sl, sl, r0

00000368 <Bopc_06>:
     368:	e5d6c000 	ldrb	ip, [r6]
     36c:	e08cc00c 	add	ip, ip, ip
     370:	e5c6c000 	strb	ip, [r6]
     374:	e1b0cc0c 	lsls	ip, ip, #24

00000378 <Bopc_07>:
     378:	e5d60000 	ldrb	r0, [r6]
     37c:	e320f000 	nop	{0}
     380:	e3c00001 	bic	r0, r0, #1
     384:	e5c60000 	strb	r0, [r6]

00000388 <Bopc_09>:
     388:	e320f000 	nop	{0}
     38c:	e19aa000 	orrs	sl, sl, r0

00000390 <Bopc_0C>:
     390:	e3a01c00 	.word	0xe3a01c00
     394:	e5f1c000 	ldrb	ip, [r1, #0]!
     398:	e10f0000 	mrs	r0, CPSR
     39c:	e3c00101 	bic	r0, r0, #1073741824	; 0x40000000
     3a0:	e11c000a 	tst	ip, sl
     3a4:	000029a8 	.word	0x000029a8

000003a8 <Bopc_0D>:
     3a8:	e3a01c00 	.word	0xe3a01c00
     3ac:	e1d100d0 	ldrsb	r0, [r1]
     3b0:	e320f000 	nop	{0}
     3b4:	e320f000 	nop	{0}
     3b8:	e320f000 	nop	{0}
     3bc:	e19aa000 	orrs	sl, sl, r0

000003c0 <Bopc_0E>:
     3c0:	e3a01c00 	.word	0xe3a01c00
     3c4:	e5f1c000 	ldrb	ip, [r1, #0]!
     3c8:	e320f000 	nop	{0}
     3cc:	e08cc00c 	add	ip, ip, ip
     3d0:	e5c1c000 	strb	ip, [r1]
     3d4:	e1b0cc0c 	lsls	ip, ip, #24

000003d8 <opc_FB>:
     3d8:	e14f8dd0 	ldrd	r8, [pc, #-208]	; 310 <Bopc_FB>
     3dc:	ea000835 	b	24b8 <jitend1bytestore2>

000003e0 <opc_18>:
     3e0:	e14f8dd0 	ldrd	r8, [pc, #-208]	; 318 <Bopc_carry>
     3e4:	e0488006 	sub	r8, r8, r6
     3e8:	e1a08128 	lsr	r8, r8, #2
     3ec:	e388842b 	orr	r8, r8, #721420288	; 0x2b000000
     3f0:	ea000830 	b	24b8 <jitend1bytestore2>

000003f4 <opc_38>:
     3f4:	e14f8ed4 	ldrd	r8, [pc, #-228]	; 318 <Bopc_carry>
     3f8:	e0488006 	sub	r8, r8, r6
     3fc:	e1a08128 	lsr	r8, r8, #2
     400:	e388843b 	orr	r8, r8, #989855744	; 0x3b000000
     404:	ea00082b 	b	24b8 <jitend1bytestore2>

00000408 <opc_00>:
     408:	e14f8fd0 	ldrd	r8, [pc, #-240]	; 320 <Bopc_00>
     40c:	ea00081e 	b	248c <singleopcodeexit>

00000410 <opc_40>:
     410:	e14f8fd0 	ldrd	r8, [pc, #-240]	; 328 <Bopc_40>
     414:	ea00081c 	b	248c <singleopcodeexit>

00000418 <opc_60>:
     418:	e14f8fd0 	ldrd	r8, [pc, #-240]	; 330 <Bopc_60>
     41c:	e0499006 	sub	r9, r9, r6
     420:	e1a09129 	lsr	r9, r9, #2
     424:	e38994ea 	orr	r9, r9, #-369098752	; 0xea000000
     428:	ea00081a 	b	2498 <singleopcodeexitstore>

0000042c <opc_01>:
     42c:	e24f10fc 	sub	r1, pc, #252	; 0xfc
     430:	ea0006cc 	b	1f68 <jitend2byteBL8>

00000434 <opc_04>:
     434:	e24f10f4 	sub	r1, pc, #244	; 0xf4
     438:	ea0006d4 	b	1f90 <jitend2byteBLend>

0000043c <opc_05>:
     43c:	e24f10ec 	sub	r1, pc, #236	; 0xec
     440:	ea00085f 	b	25c4 <fixuptype2accessload4>

00000444 <opc_06>:
     444:	e24f10e4 	sub	r1, pc, #228	; 0xe4
     448:	e8910f00 	ldm	r1, {r8, r9, sl, fp}
     44c:	e1888004 	orr	r8, r8, r4
     450:	e18aa004 	orr	sl, sl, r4
     454:	ea0006d9 	b	1fc0 <jitend2bytestore4>

00000458 <opc_07>:
     458:	e24f10e8 	sub	r1, pc, #232	; 0xe8
     45c:	ea0006d1 	b	1fa8 <doublebyteendsettwobytes12>

00000460 <opc_09>:
     460:	e59f7f1c 	ldr	r7, [pc, #3868]	; 1384 <opc_CF+0x8>
     464:	e24f10e4 	sub	r1, pc, #228	; 0xe4
     468:	e8910300 	ldm	r1, {r8, r9}
     46c:	e7977104 	ldr	r7, [r7, r4, lsl #2]
     470:	e1c680f8 	strd	r8, [r6, #8]
     474:	e8860180 	stm	r6, {r7, r8}
     478:	ea0006d1 	b	1fc4 <jitend2byte>

0000047c <opc_0C>:
     47c:	e24f10f4 	sub	r1, pc, #244	; 0xf4
     480:	ea000818 	b	24e8 <jitend3byteloadstoreoperandBL>

00000484 <opc_0D>:
     484:	e24f10e4 	sub	r1, pc, #228	; 0xe4
     488:	eb000853 	bl	25dc <fixuptype2accessquick>
     48c:	ea00081f 	b	2510 <jitend3bytestore>

00000490 <opc_0E>:
     490:	e24f10d8 	sub	r1, pc, #216	; 0xd8
     494:	ea00081a 	b	2504 <jitend3byteloadstoreoperand>

00000498 <opc_0F>:
     498:	e28f1fa9 	add	r1, pc, #676	; 0x2a4
     49c:	ea000824 	b	2534 <jitend3byteexitBBRS>

000004a0 <opc_11>:
     4a0:	e28f1fad 	add	r1, pc, #692	; 0x2b4
     4a4:	ea000846 	b	25c4 <fixuptype2accessload4>

000004a8 <opc_12>:
     4a8:	e28f1faf 	add	r1, pc, #700	; 0x2bc
     4ac:	ea000844 	b	25c4 <fixuptype2accessload4>

000004b0 <opc_14>:
     4b0:	e28f1fb1 	add	r1, pc, #708	; 0x2c4
     4b4:	ea0006b5 	b	1f90 <jitend2byteBLend>

000004b8 <opc_15>:
     4b8:	e28f1fb3 	add	r1, pc, #716	; 0x2cc
     4bc:	ea0006bd 	b	1fb8 <doublebyteend>

000004c0 <opc_16>:
     4c0:	e28f1fb5 	add	r1, pc, #724	; 0x2d4
     4c4:	ea0006b1 	b	1f90 <jitend2byteBLend>

000004c8 <opc_17>:
     4c8:	e28f1fb7 	add	r1, pc, #732	; 0x2dc
     4cc:	ea0006b5 	b	1fa8 <doublebyteendsettwobytes12>

000004d0 <opc_19>:
     4d0:	e28f1fb9 	add	r1, pc, #740	; 0x2e4
     4d4:	ea00080a 	b	2504 <jitend3byteloadstoreoperand>

000004d8 <opc_1C>:
     4d8:	e28f1fbd 	add	r1, pc, #756	; 0x2f4
     4dc:	ea000801 	b	24e8 <jitend3byteloadstoreoperandBL>

000004e0 <opc_1D>:
     4e0:	e28f1fc1 	add	r1, pc, #772	; 0x304
     4e4:	ea000806 	b	2504 <jitend3byteloadstoreoperand>

000004e8 <opc_1E>:
     4e8:	e28f1fc5 	add	r1, pc, #788	; 0x314
     4ec:	ea000804 	b	2504 <jitend3byteloadstoreoperand>

000004f0 <opc_1F>:
     4f0:	e28f1fc9 	add	r1, pc, #804	; 0x324
     4f4:	ea00080e 	b	2534 <jitend3byteexitBBRS>

000004f8 <opc_20>:
     4f8:	e1d2c0b1 	ldrh	ip, [r2, #1]
     4fc:	e28f1e33 	add	r1, pc, #816	; 0x330
     500:	e8910f80 	ldm	r1, {r7, r8, r9, sl, fp}
     504:	e2820002 	add	r0, r2, #2
     508:	e20010ff 	and	r1, r0, #255	; 0xff
     50c:	e1877420 	orr	r7, r7, r0, lsr #8
     510:	e1888001 	orr	r8, r8, r1
     514:	e8a60f80 	stmia	r6!, {r7, r8, r9, sl, fp}
     518:	ea00081c 	b	2590 <createbranchtojitlet>

0000051c <opc_21>:
     51c:	e28f1fc9 	add	r1, pc, #804	; 0x324
     520:	ea000690 	b	1f68 <jitend2byteBL8>

00000524 <opc_24>:
     524:	e28f1fcb 	add	r1, pc, #812	; 0x32c
     528:	ea000698 	b	1f90 <jitend2byteBLend>

0000052c <opc_25>:
     52c:	e28f1fcd 	add	r1, pc, #820	; 0x334
     530:	ea000823 	b	25c4 <fixuptype2accessload4>

00000534 <opc_26>:
     534:	e28f1fcf 	add	r1, pc, #828	; 0x33c
     538:	e8910f00 	ldm	r1, {r8, r9, sl, fp}
     53c:	e1888004 	orr	r8, r8, r4
     540:	e18aa004 	orr	sl, sl, r4
     544:	ea00069d 	b	1fc0 <jitend2bytestore4>

00000548 <opc_27>:
     548:	e28f1fce 	add	r1, pc, #824	; 0x338
     54c:	ea000695 	b	1fa8 <doublebyteendsettwobytes12>

00000550 <opc_29>:
     550:	e59f7e2c 	ldr	r7, [pc, #3628]	; 1384 <opc_CF+0x8>
     554:	e28f1fcf 	add	r1, pc, #828	; 0x33c
     558:	e8910300 	ldm	r1, {r8, r9}
     55c:	e7977104 	ldr	r7, [r7, r4, lsl #2]
     560:	e1c680f8 	strd	r8, [r6, #8]
     564:	e8860180 	stm	r6, {r7, r8}
     568:	ea000695 	b	1fc4 <jitend2byte>

0000056c <opc_2C>:
     56c:	e1d200b1 	ldrh	r0, [r2, #1]
     570:	e3a0c0f7 	mov	ip, #247	; 0xf7
     574:	e38ccc07 	orr	ip, ip, #1792	; 0x700
     578:	e15c02a0 	cmp	ip, r0, lsr #5
     57c:	0a000009 	beq	5a8 <bitabsio>
     580:	e59f7318 	ldr	r7, [pc, #792]	; 8a0 <Bopc_2C>
     584:	e59f0dfc 	ldr	r0, [pc, #3580]	; 1388 <opc_CF+0xc>
     588:	e1877005 	orr	r7, r7, r5
     58c:	e4867004 	str	r7, [r6], #4
     590:	e0800184 	add	r0, r0, r4, lsl #3
     594:	eb000805 	bl	25b0 <createbranchlinkm8>
     598:	e59f0dec 	ldr	r0, [pc, #3564]	; 138c <opc_CF+0x10>
     59c:	eb0007f6 	bl	257c <fillinjittedtable>
     5a0:	e2822003 	add	r2, r2, #3
     5a4:	ea00068b 	b	1fd8 <dojitloop>

000005a8 <bitabsio>:
     5a8:	e59f72f4 	ldr	r7, [pc, #756]	; 8a4 <Bopc_2C_io>
     5ac:	e59f0ddc 	ldr	r0, [pc, #3548]	; 1390 <opc_CF+0x14>
     5b0:	e1877004 	orr	r7, r7, r4
     5b4:	e4867004 	str	r7, [r6], #4
     5b8:	eb0007fc 	bl	25b0 <createbranchlinkm8>
     5bc:	e59f0dc8 	ldr	r0, [pc, #3528]	; 138c <opc_CF+0x10>
     5c0:	eb0007ed 	bl	257c <fillinjittedtable>
     5c4:	e2822003 	add	r2, r2, #3
     5c8:	ea000682 	b	1fd8 <dojitloop>

000005cc <opc_2D>:
     5cc:	e28f1fb5 	add	r1, pc, #724	; 0x2d4
     5d0:	eb000801 	bl	25dc <fixuptype2accessquick>
     5d4:	ea0007cd 	b	2510 <jitend3bytestore>

000005d8 <opc_2E>:
     5d8:	e28f1e2e 	add	r1, pc, #736	; 0x2e0
     5dc:	ea0007c8 	b	2504 <jitend3byteloadstoreoperand>

000005e0 <opc_2F>:
     5e0:	e28f1e2f 	add	r1, pc, #752	; 0x2f0
     5e4:	ea0007d2 	b	2534 <jitend3byteexitBBRS>

000005e8 <opc_31>:
     5e8:	e28f1c03 	add	r1, pc, #768	; 0x300
     5ec:	ea0007f4 	b	25c4 <fixuptype2accessload4>

000005f0 <opc_32>:
     5f0:	e28f1fc2 	add	r1, pc, #776	; 0x308
     5f4:	ea0007f2 	b	25c4 <fixuptype2accessload4>

000005f8 <opc_34>:
     5f8:	e28f1e31 	add	r1, pc, #784	; 0x310
     5fc:	ea000663 	b	1f90 <jitend2byteBLend>

00000600 <opc_35>:
     600:	e28f1fc6 	add	r1, pc, #792	; 0x318
     604:	ea00066b 	b	1fb8 <doublebyteend>

00000608 <opc_36>:
     608:	e28f1e32 	add	r1, pc, #800	; 0x320
     60c:	ea00065f 	b	1f90 <jitend2byteBLend>

00000610 <opc_37>:
     610:	e28f1fca 	add	r1, pc, #808	; 0x328
     614:	ea000663 	b	1fa8 <doublebyteendsettwobytes12>

00000618 <opc_39>:
     618:	e28f1e33 	add	r1, pc, #816	; 0x330
     61c:	ea0007b8 	b	2504 <jitend3byteloadstoreoperand>

00000620 <opc_3C>:
     620:	e28f1d0d 	add	r1, pc, #832	; 0x340
     624:	ea0007af 	b	24e8 <jitend3byteloadstoreoperandBL>

00000628 <opc_3D>:
     628:	e28f1e35 	add	r1, pc, #848	; 0x350
     62c:	ea0007b4 	b	2504 <jitend3byteloadstoreoperand>

00000630 <opc_3E>:
     630:	e28f1e36 	add	r1, pc, #864	; 0x360
     634:	ea0007b2 	b	2504 <jitend3byteloadstoreoperand>

00000638 <opc_3F>:
     638:	e28f1e37 	add	r1, pc, #880	; 0x370
     63c:	ea0007bc 	b	2534 <jitend3byteexitBBRS>

00000640 <opc_41>:
     640:	e28f1d0e 	add	r1, pc, #896	; 0x380
     644:	ea000647 	b	1f68 <jitend2byteBL8>

00000648 <opc_45>:
     648:	e28f1fe2 	add	r1, pc, #904	; 0x388
     64c:	ea0007dc 	b	25c4 <fixuptype2accessload4>

00000650 <opc_46>:
     650:	e28f1e39 	add	r1, pc, #912	; 0x390
     654:	ea000653 	b	1fa8 <doublebyteendsettwobytes12>

00000658 <opc_47>:
     658:	e28f1fe6 	add	r1, pc, #920	; 0x398
     65c:	ea000651 	b	1fa8 <doublebyteendsettwobytes12>

00000660 <opc_49>:
     660:	e59f7d1c 	ldr	r7, [pc, #3356]	; 1384 <opc_CF+0x8>
     664:	e28f1fe7 	add	r1, pc, #924	; 0x39c
     668:	e8910300 	ldm	r1, {r8, r9}
     66c:	e7977104 	ldr	r7, [r7, r4, lsl #2]
     670:	e1c680f8 	strd	r8, [r6, #8]
     674:	e8860180 	stm	r6, {r7, r8}
     678:	ea000651 	b	1fc4 <jitend2byte>

0000067c <opc_4C>:
     67c:	e1d2c0b1 	ldrh	ip, [r2, #1]
     680:	ea0007c2 	b	2590 <createbranchtojitlet>

00000684 <opc_4D>:
     684:	e28f1fe1 	add	r1, pc, #900	; 0x384
     688:	eb0007d3 	bl	25dc <fixuptype2accessquick>
     68c:	ea00079f 	b	2510 <jitend3bytestore>

00000690 <opc_4E>:
     690:	e28f1e39 	add	r1, pc, #912	; 0x390
     694:	ea00079a 	b	2504 <jitend3byteloadstoreoperand>

00000698 <opc_4F>:
     698:	e28f1e3a 	add	r1, pc, #928	; 0x3a0
     69c:	ea0007a4 	b	2534 <jitend3byteexitBBRS>

000006a0 <opc_50>:
     6a0:	e59f0cec 	ldr	r0, [pc, #3308]	; 1394 <opc_CF+0x18>
     6a4:	e59f93ac 	ldr	r9, [pc, #940]	; a58 <Bopc_50>
     6a8:	e6af4074 	sxtb	r4, r4
     6ac:	eb0007bf 	bl	25b0 <createbranchlinkm8>
     6b0:	e1a00084 	lsl	r0, r4, #1
     6b4:	e5869004 	str	r9, [r6, #4]
     6b8:	e3c004ff 	bic	r0, r0, #-16777216	; 0xff000000
     6bc:	e586900c 	str	r9, [r6, #12]
     6c0:	e38004ea 	orr	r0, r0, #-369098752	; 0xea000000
     6c4:	e5860008 	str	r0, [r6, #8]
     6c8:	ea00074d 	b	2404 <jitend2byteexit>

000006cc <opc_51>:
     6cc:	e28f1fe2 	add	r1, pc, #904	; 0x388
     6d0:	ea0007bb 	b	25c4 <fixuptype2accessload4>

000006d4 <opc_52>:
     6d4:	e28f1e39 	add	r1, pc, #912	; 0x390
     6d8:	ea0007b9 	b	25c4 <fixuptype2accessload4>

000006dc <opc_55>:
     6dc:	e28f1fe6 	add	r1, pc, #920	; 0x398
     6e0:	ea000634 	b	1fb8 <doublebyteend>

000006e4 <opc_56>:
     6e4:	e28f1e3a 	add	r1, pc, #928	; 0x3a0
     6e8:	ea000632 	b	1fb8 <doublebyteend>

000006ec <opc_57>:
     6ec:	e28f1fea 	add	r1, pc, #936	; 0x3a8
     6f0:	ea00062c 	b	1fa8 <doublebyteendsettwobytes12>

000006f4 <opc_59>:
     6f4:	e28f1e3b 	add	r1, pc, #944	; 0x3b0
     6f8:	ea000781 	b	2504 <jitend3byteloadstoreoperand>

000006fc <opc_5D>:
     6fc:	e28f1d0f 	add	r1, pc, #960	; 0x3c0
     700:	ea00077f 	b	2504 <jitend3byteloadstoreoperand>

00000704 <opc_5E>:
     704:	e28f1e3d 	add	r1, pc, #976	; 0x3d0
     708:	ea00077d 	b	2504 <jitend3byteloadstoreoperand>

0000070c <opc_5F>:
     70c:	e28f1e3e 	add	r1, pc, #992	; 0x3e0
     710:	ea000787 	b	2534 <jitend3byteexitBBRS>

00000714 <opc_61>:
     714:	e28f1e3f 	add	r1, pc, #1008	; 0x3f0
     718:	ea00061c 	b	1f90 <jitend2byteBLend>

0000071c <opc_64>:
     71c:	e28f1ffe 	add	r1, pc, #1016	; 0x3f8
     720:	e8910700 	ldm	r1, {r8, r9, sl}
     724:	e1a0b104 	lsl	fp, r4, #2
     728:	e28bb6d1 	add	fp, fp, #219152384	; 0xd100000
     72c:	e1888004 	orr	r8, r8, r4
     730:	e1899004 	orr	r9, r9, r4
     734:	e24bb014 	sub	fp, fp, #20
     738:	ea000616 	b	1f98 <jitend2byteBLendstore>

0000073c <opc_65>:
     73c:	e28f1ff9 	add	r1, pc, #996	; 0x3e4
     740:	ea000612 	b	1f90 <jitend2byteBLend>

00000744 <Bopc_0F>:
     744:	e5d60000 	ldrb	r0, [r6]
     748:	e10f1000 	mrs	r1, CPSR
     74c:	e3100001 	tst	r0, #1
     750:	000027fc 	.word	0x000027fc
     754:	ea000000 	b	75c <Bopc_11>
     758:	e128f001 	msr	CPSR_f, r1

0000075c <Bopc_11>:
     75c:	e1d600b0 	ldrh	r0, [r6]
     760:	e1a01c28 	lsr	r1, r8, #24
     764:	e19000d1 	ldrsb	r0, [r0, r1]
     768:	e19aa000 	orrs	sl, sl, r0

0000076c <Bopc_12>:
     76c:	e1d600b0 	ldrh	r0, [r6]
     770:	e320f000 	nop	{0}
     774:	e1d000d0 	ldrsb	r0, [r0]
     778:	e19aa000 	orrs	sl, sl, r0

0000077c <Bopc_14>:
     77c:	e3a01000 	mov	r1, #0
     780:	e5d1c000 	ldrb	ip, [r1]
     784:	e10f0000 	mrs	r0, CPSR
     788:	0000298c 	.word	0x0000298c

0000078c <Bopc_15>:
     78c:	e28b1400 	.word	0xe28b1400
     790:	e1a01c21 	lsr	r1, r1, #24
     794:	e1d100d0 	ldrsb	r0, [r1]
     798:	e19aa000 	orrs	sl, sl, r0

0000079c <Bopc_16>:
     79c:	e28b1400 	.word	0xe28b1400
     7a0:	e7d6cc21 	ldrb	ip, [r6, r1, lsr #24]
     7a4:	e1a01c21 	lsr	r1, r1, #24
     7a8:	00002964 	.word	0x00002964

000007ac <Bopc_17>:
     7ac:	e5d60000 	ldrb	r0, [r6]
     7b0:	e320f000 	nop	{0}
     7b4:	e3c00002 	bic	r0, r0, #2
     7b8:	e5c60000 	strb	r0, [r6]

000007bc <Bopc_19>:
     7bc:	e3a01c00 	.word	0xe3a01c00
     7c0:	e3811000 	orr	r1, r1, #0
     7c4:	e1a00c28 	lsr	r0, r8, #24
     7c8:	e19100d0 	ldrsb	r0, [r1, r0]
     7cc:	e320f000 	nop	{0}
     7d0:	e19aa000 	orrs	sl, sl, r0

000007d4 <Bopc_1C>:
     7d4:	e3a01c00 	.word	0xe3a01c00
     7d8:	e5f1c000 	ldrb	ip, [r1, #0]!
     7dc:	e10f0000 	mrs	r0, CPSR
     7e0:	e3c00101 	bic	r0, r0, #1073741824	; 0x40000000
     7e4:	e11c000a 	tst	ip, sl
     7e8:	0000298c 	.word	0x0000298c

000007ec <Bopc_1D>:
     7ec:	e3a01c00 	.word	0xe3a01c00
     7f0:	e3811000 	orr	r1, r1, #0
     7f4:	e1a00c2b 	lsr	r0, fp, #24
     7f8:	e19100d0 	ldrsb	r0, [r1, r0]
     7fc:	e320f000 	nop	{0}
     800:	e19aa000 	orrs	sl, sl, r0

00000804 <Bopc_1E>:
     804:	e3a01c00 	.word	0xe3a01c00
     808:	e3811000 	orr	r1, r1, #0
     80c:	e7f1cc2b 	ldrb	ip, [r1, fp, lsr #24]!
     810:	e08cc00c 	add	ip, ip, ip
     814:	e5c1c000 	strb	ip, [r1]
     818:	e1b0cc0c 	lsls	ip, ip, #24

0000081c <Bopc_1F>:
     81c:	e5d60000 	ldrb	r0, [r6]
     820:	e10f1000 	mrs	r1, CPSR
     824:	e3100002 	tst	r0, #2
     828:	000027fc 	.word	0x000027fc
     82c:	ea000000 	b	834 <Bopc_20>
     830:	e128f001 	msr	CPSR_f, r1

00000834 <Bopc_20>:
     834:	e3a01c00 	.word	0xe3a01c00
     838:	e3811000 	orr	r1, r1, #0
     83c:	e2499002 	sub	r9, r9, #2
     840:	e1c910b1 	strh	r1, [r9, #1]
     844:	e3899c01 	orr	r9, r9, #256	; 0x100

00000848 <Bopc_21>:
     848:	e28b1400 	.word	0xe28b1400
     84c:	e1a01c21 	lsr	r1, r1, #24
     850:	000029c8 	.word	0x000029c8
     854:	e01aa000 	ands	sl, sl, r0

00000858 <Bopc_24>:
     858:	e5d6c000 	ldrb	ip, [r6]
     85c:	e3c77040 	bic	r7, r7, #64	; 0x40
     860:	e11c000a 	tst	ip, sl
     864:	00002920 	.word	0x00002920

00000868 <Bopc_25>:
     868:	e1d600d0 	ldrsb	r0, [r6]
     86c:	e320f000 	nop	{0}
     870:	e320f000 	nop	{0}
     874:	e01aa000 	ands	sl, sl, r0

00000878 <Bopc_26>:
     878:	e5d6c000 	ldrb	ip, [r6]
     87c:	e0acc00c 	adc	ip, ip, ip
     880:	e5c6c000 	strb	ip, [r6]
     884:	e1b0cc0c 	lsls	ip, ip, #24

00000888 <Bopc_27>:
     888:	e5d60000 	ldrb	r0, [r6]
     88c:	e320f000 	nop	{0}
     890:	e3c00004 	bic	r0, r0, #4
     894:	e5c60000 	strb	r0, [r6]

00000898 <Bopc_29>:
     898:	e320f000 	nop	{0}
     89c:	e01aa000 	ands	sl, sl, r0

000008a0 <Bopc_2C>:
     8a0:	e3a01c00 	.word	0xe3a01c00

000008a4 <Bopc_2C_io>:
     8a4:	e3a00000 	mov	r0, #0

000008a8 <Bopc_2D>:
     8a8:	e3a01c00 	.word	0xe3a01c00
     8ac:	e1d100d0 	ldrsb	r0, [r1]
     8b0:	e320f000 	nop	{0}
     8b4:	e320f000 	nop	{0}
     8b8:	e320f000 	nop	{0}
     8bc:	e01aa000 	ands	sl, sl, r0

000008c0 <Bopc_2E>:
     8c0:	e3a01c00 	.word	0xe3a01c00
     8c4:	e5f1c000 	ldrb	ip, [r1, #0]!
     8c8:	e320f000 	nop	{0}
     8cc:	e0acc00c 	adc	ip, ip, ip
     8d0:	e5c1c000 	strb	ip, [r1]
     8d4:	e1b0cc0c 	lsls	ip, ip, #24

000008d8 <Bopc_2F>:
     8d8:	e5d60000 	ldrb	r0, [r6]
     8dc:	e10f1000 	mrs	r1, CPSR
     8e0:	e3100004 	tst	r0, #4
     8e4:	000027fc 	.word	0x000027fc
     8e8:	ea000000 	b	8f0 <Bopc_31>
     8ec:	e128f001 	msr	CPSR_f, r1

000008f0 <Bopc_31>:
     8f0:	e1d600b0 	ldrh	r0, [r6]
     8f4:	e1a01c28 	lsr	r1, r8, #24
     8f8:	e19000d1 	ldrsb	r0, [r0, r1]
     8fc:	e01aa000 	ands	sl, sl, r0

00000900 <Bopc_32>:
     900:	e1d600b0 	ldrh	r0, [r6]
     904:	e320f000 	nop	{0}
     908:	e1d000d0 	ldrsb	r0, [r0]
     90c:	e01aa000 	ands	sl, sl, r0

00000910 <Bopc_34>:
     910:	e28b1400 	.word	0xe28b1400
     914:	e7d6cc21 	ldrb	ip, [r6, r1, lsr #24]
     918:	e3c77040 	bic	r7, r7, #64	; 0x40
     91c:	0000291c 	.word	0x0000291c

00000920 <Bopc_35>:
     920:	e28b1400 	.word	0xe28b1400
     924:	e1a01c21 	lsr	r1, r1, #24
     928:	e1d100d0 	ldrsb	r0, [r1]
     92c:	e01aa000 	ands	sl, sl, r0

00000930 <Bopc_36>:
     930:	e28b1400 	.word	0xe28b1400
     934:	e1a01c21 	lsr	r1, r1, #24
     938:	e5d1c000 	ldrb	ip, [r1]
     93c:	000028cc 	.word	0x000028cc

00000940 <Bopc_37>:
     940:	e5d60000 	ldrb	r0, [r6]
     944:	e320f000 	nop	{0}
     948:	e3c00008 	bic	r0, r0, #8
     94c:	e5c60000 	strb	r0, [r6]

00000950 <Bopc_39>:
     950:	e3a01c00 	.word	0xe3a01c00
     954:	e3811000 	orr	r1, r1, #0
     958:	e1a00c28 	lsr	r0, r8, #24
     95c:	e19100d0 	ldrsb	r0, [r1, r0]
     960:	e320f000 	nop	{0}
     964:	e01aa000 	ands	sl, sl, r0

00000968 <Bopc_3C>:
     968:	e3a01c00 	.word	0xe3a01c00
     96c:	e3811000 	orr	r1, r1, #0
     970:	e7d1cc2b 	ldrb	ip, [r1, fp, lsr #24]
     974:	e3c77040 	bic	r7, r7, #64	; 0x40
     978:	e11c000a 	tst	ip, sl
     97c:	00002918 	.word	0x00002918

00000980 <Bopc_3D>:
     980:	e3a01c00 	.word	0xe3a01c00
     984:	e3811000 	orr	r1, r1, #0
     988:	e1a00c2b 	lsr	r0, fp, #24
     98c:	e19100d0 	ldrsb	r0, [r1, r0]
     990:	e320f000 	nop	{0}
     994:	e01aa000 	ands	sl, sl, r0

00000998 <Bopc_3E>:
     998:	e3a01c00 	.word	0xe3a01c00
     99c:	e3811000 	orr	r1, r1, #0
     9a0:	e7f1cc2b 	ldrb	ip, [r1, fp, lsr #24]!
     9a4:	e0acc00c 	adc	ip, ip, ip
     9a8:	e5c1c000 	strb	ip, [r1]
     9ac:	e1b0cc0c 	lsls	ip, ip, #24

000009b0 <Bopc_3F>:
     9b0:	e5d60000 	ldrb	r0, [r6]
     9b4:	e10f1000 	mrs	r1, CPSR
     9b8:	e3100008 	tst	r0, #8
     9bc:	000027fc 	.word	0x000027fc
     9c0:	ea000000 	b	9c8 <Bopc_41>
     9c4:	e128f001 	msr	CPSR_f, r1

000009c8 <Bopc_41>:
     9c8:	e28b1400 	.word	0xe28b1400
     9cc:	e1a01c21 	lsr	r1, r1, #24
     9d0:	000029c8 	.word	0x000029c8
     9d4:	e03aa000 	eors	sl, sl, r0

000009d8 <Bopc_45>:
     9d8:	e1d600d0 	ldrsb	r0, [r6]
     9dc:	e320f000 	nop	{0}
     9e0:	e320f000 	nop	{0}
     9e4:	e03aa000 	eors	sl, sl, r0

000009e8 <Bopc_46>:
     9e8:	e5d60000 	ldrb	r0, [r6]
     9ec:	e320f000 	nop	{0}
     9f0:	e1b000a0 	lsrs	r0, r0, #1
     9f4:	e5c60000 	strb	r0, [r6]

000009f8 <Bopc_47>:
     9f8:	e5d60000 	ldrb	r0, [r6]
     9fc:	e320f000 	nop	{0}
     a00:	e3c00010 	bic	r0, r0, #16
     a04:	e5c60000 	strb	r0, [r6]

00000a08 <Bopc_49>:
     a08:	e320f000 	nop	{0}
     a0c:	e03aa000 	eors	sl, sl, r0

00000a10 <Bopc_4D>:
     a10:	e3a01c00 	.word	0xe3a01c00
     a14:	e1d100d0 	ldrsb	r0, [r1]
     a18:	e320f000 	nop	{0}
     a1c:	e320f000 	nop	{0}
     a20:	e320f000 	nop	{0}
     a24:	e03aa000 	eors	sl, sl, r0

00000a28 <Bopc_4E>:
     a28:	e3a01c00 	.word	0xe3a01c00
     a2c:	e5f1c000 	ldrb	ip, [r1, #0]!

00000a30 <B_NOP>:
     a30:	e320f000 	nop	{0}
     a34:	e320f000 	nop	{0}
     a38:	e1b0c0ac 	lsrs	ip, ip, #1
     a3c:	e5c1c000 	strb	ip, [r1]

00000a40 <Bopc_4F>:
     a40:	e5d60000 	ldrb	r0, [r6]
     a44:	e10f1000 	mrs	r1, CPSR
     a48:	e3100010 	tst	r0, #16
     a4c:	000027fc 	.word	0x000027fc
     a50:	ea000000 	b	a58 <Bopc_50>
     a54:	e128f001 	msr	CPSR_f, r1

00000a58 <Bopc_50>:
     a58:	e128f001 	msr	CPSR_f, r1

00000a5c <Bopc_51>:
     a5c:	e1d600b0 	ldrh	r0, [r6]
     a60:	e1a01c28 	lsr	r1, r8, #24
     a64:	e19000d1 	ldrsb	r0, [r0, r1]
     a68:	e03aa000 	eors	sl, sl, r0

00000a6c <Bopc_52>:
     a6c:	e1d600b0 	ldrh	r0, [r6]
     a70:	e320f000 	nop	{0}
     a74:	e1d000d0 	ldrsb	r0, [r0]
     a78:	e03aa000 	eors	sl, sl, r0

00000a7c <Bopc_55>:
     a7c:	e28b1400 	.word	0xe28b1400
     a80:	e1a01c21 	lsr	r1, r1, #24
     a84:	e1d100d0 	ldrsb	r0, [r1]
     a88:	e03aa000 	eors	sl, sl, r0

00000a8c <Bopc_56>:
     a8c:	e28b1400 	.word	0xe28b1400
     a90:	e7d60c21 	ldrb	r0, [r6, r1, lsr #24]
     a94:	e1b000a0 	lsrs	r0, r0, #1
     a98:	e7c60c21 	strb	r0, [r6, r1, lsr #24]

00000a9c <Bopc_57>:
     a9c:	e5d60000 	ldrb	r0, [r6]
     aa0:	e320f000 	nop	{0}
     aa4:	e3c00020 	bic	r0, r0, #32
     aa8:	e5c60000 	strb	r0, [r6]

00000aac <Bopc_59>:
     aac:	e3a01c00 	.word	0xe3a01c00
     ab0:	e3811000 	orr	r1, r1, #0
     ab4:	e1a00c28 	lsr	r0, r8, #24
     ab8:	e19100d0 	ldrsb	r0, [r1, r0]
     abc:	e320f000 	nop	{0}
     ac0:	e03aa000 	eors	sl, sl, r0

00000ac4 <Bopc_5D>:
     ac4:	e3a01c00 	.word	0xe3a01c00
     ac8:	e3811000 	orr	r1, r1, #0
     acc:	e1a00c2b 	lsr	r0, fp, #24
     ad0:	e19100d0 	ldrsb	r0, [r1, r0]
     ad4:	e320f000 	nop	{0}
     ad8:	e03aa000 	eors	sl, sl, r0

00000adc <Bopc_5E>:
     adc:	e3a01c00 	.word	0xe3a01c00
     ae0:	e3811000 	orr	r1, r1, #0
     ae4:	e7f1cc2b 	ldrb	ip, [r1, fp, lsr #24]!
     ae8:	e320f000 	nop	{0}
     aec:	e1b0c0ac 	lsrs	ip, ip, #1
     af0:	e5c1c000 	strb	ip, [r1]

00000af4 <Bopc_5F>:
     af4:	e5d60000 	ldrb	r0, [r6]
     af8:	e10f1000 	mrs	r1, CPSR
     afc:	e3100020 	tst	r0, #32
     b00:	000027fc 	.word	0x000027fc
     b04:	ea000000 	b	b0c <Bopc_61>
     b08:	e128f001 	msr	CPSR_f, r1

00000b0c <Bopc_61>:
     b0c:	e28b1400 	.word	0xe28b1400
     b10:	e1a01c21 	lsr	r1, r1, #24
     b14:	e1d110b0 	ldrh	r1, [r1]
     b18:	000029d0 	.word	0x000029d0

00000b1c <Bopc_64>:
     b1c:	e5c66000 	strb	r6, [r6]
     b20:	e3a01000 	mov	r1, #0
     b24:	e320f000 	nop	{0}

00000b28 <Bopc_65>:
     b28:	e5d6c000 	ldrb	ip, [r6]
     b2c:	e3170008 	tst	r7, #8
     b30:	e3c77040 	bic	r7, r7, #64	; 0x40
     b34:	000029dc 	.word	0x000029dc

00000b38 <Bopc_E5>:
     b38:	e5d6c000 	ldrb	ip, [r6]
     b3c:	e3170008 	tst	r7, #8
     b40:	e3c77040 	bic	r7, r7, #64	; 0x40
     b44:	00002a4c 	.word	0x00002a4c

00000b48 <Bopc_66>:
     b48:	e5d6c000 	ldrb	ip, [r6]
     b4c:	238ccc01 	orrcs	ip, ip, #256	; 0x100
     b50:	e1b0c06c 	rrxs	ip, ip
     b54:	e5c6c000 	strb	ip, [r6]

00000b58 <Bopc_67>:
     b58:	e5d60000 	ldrb	r0, [r6]
     b5c:	e320f000 	nop	{0}
     b60:	e3c00040 	bic	r0, r0, #64	; 0x40
     b64:	e5c60000 	strb	r0, [r6]

00000b68 <Bopc_69>:
     b68:	e3a0c000 	mov	ip, #0
     b6c:	e3170008 	tst	r7, #8
     b70:	e3c77040 	bic	r7, r7, #64	; 0x40
     b74:	000029dc 	.word	0x000029dc

00000b78 <Bopc_E9>:
     b78:	e3a0c000 	mov	ip, #0
     b7c:	e3170008 	tst	r7, #8
     b80:	e3c77040 	bic	r7, r7, #64	; 0x40
     b84:	00002a4c 	.word	0x00002a4c

00000b88 <Bopc_6C>:
     b88:	e3a01c00 	.word	0xe3a01c00
     b8c:	e1d110b0 	ldrh	r1, [r1]
     b90:	e320f000 	nop	{0}
     b94:	e3a0040d 	mov	r0, #218103808	; 0xd000000
     b98:	e0800181 	add	r0, r0, r1, lsl #3
     b9c:	e12fff10 	bx	r0

00000ba0 <Bopc_6D>:
     ba0:	e3a01c00 	.word	0xe3a01c00
     ba4:	e5d1c000 	ldrb	ip, [r1]
     ba8:	e3170008 	tst	r7, #8
     bac:	e3c77040 	bic	r7, r7, #64	; 0x40
     bb0:	e1a0ac0a 	lsl	sl, sl, #24
     bb4:	000029d8 	.word	0x000029d8

00000bb8 <Bopc_ED>:
     bb8:	e3a01c00 	.word	0xe3a01c00
     bbc:	e5d1c000 	ldrb	ip, [r1]
     bc0:	e3170008 	tst	r7, #8
     bc4:	e3c77040 	bic	r7, r7, #64	; 0x40
     bc8:	e1a0ac0a 	lsl	sl, sl, #24
     bcc:	00002a48 	.word	0x00002a48

00000bd0 <Bopc_6E>:
     bd0:	e3a01c00 	.word	0xe3a01c00
     bd4:	e5f1c000 	ldrb	ip, [r1, #0]!
     bd8:	e320f000 	nop	{0}
     bdc:	238ccc01 	orrcs	ip, ip, #256	; 0x100
     be0:	e1b0c06c 	rrxs	ip, ip
     be4:	e5c1c000 	strb	ip, [r1]

00000be8 <Bopc_6F>:
     be8:	e5d60000 	ldrb	r0, [r6]
     bec:	e10f1000 	mrs	r1, CPSR
     bf0:	e3100040 	tst	r0, #64	; 0x40
     bf4:	000027fc 	.word	0x000027fc
     bf8:	ea000000 	b	c00 <Bopc_71>
     bfc:	e128f001 	msr	CPSR_f, r1

00000c00 <Bopc_71>:
     c00:	e1d610b0 	ldrh	r1, [r6]
     c04:	e3170008 	tst	r7, #8
     c08:	e7d1cc28 	ldrb	ip, [r1, r8, lsr #24]
     c0c:	000029d8 	.word	0x000029d8

00000c10 <Bopc_72>:
     c10:	e1d610b0 	ldrh	r1, [r6]
     c14:	e3170008 	tst	r7, #8
     c18:	e5d1c000 	ldrb	ip, [r1]
     c1c:	000029d8 	.word	0x000029d8

00000c20 <Bopc_74>:
     c20:	e28b1400 	.word	0xe28b1400
     c24:	e7c66c21 	strb	r6, [r6, r1, lsr #24]
     c28:	e0850b21 	add	r0, r5, r1, lsr #22
     c2c:	e12fff30 	blx	r0

00000c30 <Bopc_75>:
     c30:	e28b1400 	.word	0xe28b1400
     c34:	e3170008 	tst	r7, #8
     c38:	e7d6cc21 	ldrb	ip, [r6, r1, lsr #24]
     c3c:	000029d8 	.word	0x000029d8

00000c40 <Bopc_76>:
     c40:	e28b1400 	.word	0xe28b1400
     c44:	e1a01c21 	lsr	r1, r1, #24
     c48:	e5d1c000 	ldrb	ip, [r1]
     c4c:	000028bc 	.word	0x000028bc

00000c50 <Bopc_77>:
     c50:	e5d60000 	ldrb	r0, [r6]
     c54:	e320f000 	nop	{0}
     c58:	e3c00080 	bic	r0, r0, #128	; 0x80
     c5c:	e5c60000 	strb	r0, [r6]

00000c60 <Bopc_79>:
     c60:	e3a01c00 	.word	0xe3a01c00
     c64:	e3811000 	orr	r1, r1, #0
     c68:	e7d1cc28 	ldrb	ip, [r1, r8, lsr #24]
     c6c:	e3170008 	tst	r7, #8
     c70:	e3c77040 	bic	r7, r7, #64	; 0x40
     c74:	000029d4 	.word	0x000029d4

00000c78 <Bopc_7C>:
     c78:	e3a01c00 	.word	0xe3a01c00
     c7c:	e3811000 	orr	r1, r1, #0
     c80:	e1a00c2b 	lsr	r0, fp, #24
     c84:	e19010b1 	ldrh	r1, [r0, r1]
     c88:	e3a0040d 	mov	r0, #218103808	; 0xd000000
     c8c:	e080f181 	add	pc, r0, r1, lsl #3

00000c90 <Bopc_7D>:
     c90:	e3a01c00 	.word	0xe3a01c00
     c94:	e3811000 	orr	r1, r1, #0
     c98:	e7d1cc2b 	ldrb	ip, [r1, fp, lsr #24]
     c9c:	e3170008 	tst	r7, #8
     ca0:	e3c77040 	bic	r7, r7, #64	; 0x40
     ca4:	000029d4 	.word	0x000029d4

00000ca8 <Bopc_7E>:
     ca8:	e3a01c00 	.word	0xe3a01c00
     cac:	e3811000 	orr	r1, r1, #0
     cb0:	e7f1cc2b 	ldrb	ip, [r1, fp, lsr #24]!
     cb4:	238ccc01 	orrcs	ip, ip, #256	; 0x100
     cb8:	e1b0c06c 	rrxs	ip, ip
     cbc:	e5c1c000 	strb	ip, [r1]

00000cc0 <Bopc_7F>:
     cc0:	e5d60000 	ldrb	r0, [r6]
     cc4:	e10f1000 	mrs	r1, CPSR
     cc8:	e3100080 	tst	r0, #128	; 0x80
     ccc:	000027fc 	.word	0x000027fc
     cd0:	ea000000 	b	cd8 <Bopc_81>
     cd4:	e128f001 	msr	CPSR_f, r1

00000cd8 <Bopc_81>:
     cd8:	e28b1400 	.word	0xe28b1400
     cdc:	e1a01c21 	lsr	r1, r1, #24
     ce0:	e1d110b0 	ldrh	r1, [r1]
     ce4:	0000282c 	.word	0x0000282c

00000ce8 <Bopc_A1>:
     ce8:	e28b1400 	.word	0xe28b1400
     cec:	e1a01c21 	lsr	r1, r1, #24
     cf0:	e1d110b0 	ldrh	r1, [r1]
     cf4:	0000294c 	.word	0x0000294c

00000cf8 <Bopc_C1>:
     cf8:	e28b1400 	.word	0xe28b1400
     cfc:	e1a01c21 	lsr	r1, r1, #24
     d00:	e1d110b0 	ldrh	r1, [r1]
     d04:	0000293c 	.word	0x0000293c

00000d08 <Bopc_E1>:
     d08:	e28b1400 	.word	0xe28b1400
     d0c:	e1a01c21 	lsr	r1, r1, #24
     d10:	e1d110b0 	ldrh	r1, [r1]
     d14:	00002a40 	.word	0x00002a40

00000d18 <Bopc_84>:
     d18:	e1a00c28 	lsr	r0, r8, #24
     d1c:	e3a01000 	mov	r1, #0
     d20:	e5c60000 	strb	r0, [r6]

00000d24 <Bopc_85>:
     d24:	e5c6a000 	strb	sl, [r6]
     d28:	e3a01000 	mov	r1, #0
     d2c:	e320f000 	nop	{0}

00000d30 <Bopc_86>:
     d30:	e1a00c2b 	lsr	r0, fp, #24
     d34:	e3a01000 	mov	r1, #0
     d38:	e5c60000 	strb	r0, [r6]

00000d3c <Bopc_87>:
     d3c:	e5d60000 	ldrb	r0, [r6]
     d40:	e320f000 	nop	{0}
     d44:	e3800001 	orr	r0, r0, #1
     d48:	e5c60000 	strb	r0, [r6]

00000d4c <Bopc_89>:
     d4c:	e10f1000 	mrs	r1, CPSR
     d50:	e31a0000 	tst	sl, #0
     d54:	13c11101 	bicne	r1, r1, #1073741824	; 0x40000000
     d58:	00002814 	.word	0x00002814

00000d5c <Bopc_8C>:
     d5c:	e3a01c00 	.word	0xe3a01c00
     d60:	e320f000 	nop	{0}
     d64:	e1a00c28 	lsr	r0, r8, #24
     d68:	e320f000 	nop	{0}
     d6c:	e5e10000 	strb	r0, [r1, #0]!

00000d70 <Bopc_8C_io>:
     d70:	e3a00c00 	.word	0xe3a00c00
     d74:	e3800000 	orr	r0, r0, #0
     d78:	e320f000 	nop	{0}
     d7c:	e1a01c28 	lsr	r1, r8, #24
     d80:	e320f000 	nop	{0}
     d84:	000025f4 	.word	0x000025f4

00000d88 <Bopc_8D>:
     d88:	e3a01c00 	.word	0xe3a01c00
     d8c:	e320f000 	nop	{0}
     d90:	e320f000 	nop	{0}
     d94:	e320f000 	nop	{0}
     d98:	e5e1a000 	strb	sl, [r1, #0]!

00000d9c <Bopc_8D_io>:
     d9c:	e3a00c00 	.word	0xe3a00c00
     da0:	e3800000 	orr	r0, r0, #0
     da4:	e320f000 	nop	{0}
     da8:	e20a10ff 	and	r1, sl, #255	; 0xff
     dac:	e320f000 	nop	{0}
     db0:	000025f4 	.word	0x000025f4

00000db4 <Bopc_8E>:
     db4:	e3a01c00 	.word	0xe3a01c00
     db8:	e320f000 	nop	{0}
     dbc:	e1a00c2b 	lsr	r0, fp, #24
     dc0:	e320f000 	nop	{0}
     dc4:	e5e10000 	strb	r0, [r1, #0]!

00000dc8 <Bopc_8E_io>:
     dc8:	e3a00c00 	.word	0xe3a00c00
     dcc:	e3800000 	orr	r0, r0, #0
     dd0:	e320f000 	nop	{0}
     dd4:	e1a01c2b 	lsr	r1, fp, #24
     dd8:	e320f000 	nop	{0}
     ddc:	000025f4 	.word	0x000025f4

00000de0 <Bopc_8F>:
     de0:	e5d60000 	ldrb	r0, [r6]
     de4:	e10f1000 	mrs	r1, CPSR
     de8:	e3100001 	tst	r0, #1
     dec:	00002808 	.word	0x00002808
     df0:	ea000000 	b	df8 <Bopc_91>
     df4:	e128f001 	msr	CPSR_f, r1

00000df8 <Bopc_91>:
     df8:	e1d610b0 	ldrh	r1, [r6]
     dfc:	e7e1ac28 	strb	sl, [r1, r8, lsr #24]!
     e00:	e0850101 	add	r0, r5, r1, lsl #2
     e04:	e12fff30 	blx	r0

00000e08 <Bopc_92>:
     e08:	e1d610b0 	ldrh	r1, [r6]
     e0c:	e5c1a000 	strb	sl, [r1]
     e10:	e0850101 	add	r0, r5, r1, lsl #2
     e14:	e12fff30 	blx	r0

00000e18 <Bopc_94>:
     e18:	e28b1400 	.word	0xe28b1400
     e1c:	e1a00c28 	lsr	r0, r8, #24
     e20:	e7c60c21 	strb	r0, [r6, r1, lsr #24]
     e24:	00002824 	.word	0x00002824

00000e28 <Bopc_95>:
     e28:	e28b1400 	.word	0xe28b1400
     e2c:	e7c6ac21 	strb	sl, [r6, r1, lsr #24]
     e30:	e0850b21 	add	r0, r5, r1, lsr #22
     e34:	e12fff30 	blx	r0

00000e38 <Bopc_96>:
     e38:	e2881400 	.word	0xe2881400
     e3c:	e1a00c2b 	lsr	r0, fp, #24
     e40:	e7c60c21 	strb	r0, [r6, r1, lsr #24]
     e44:	00002824 	.word	0x00002824

00000e48 <Bopc_97>:
     e48:	e5d60000 	ldrb	r0, [r6]
     e4c:	e320f000 	nop	{0}
     e50:	e3800002 	orr	r0, r0, #2
     e54:	e5c60000 	strb	r0, [r6]

00000e58 <Bopc_99>:
     e58:	e3a01c00 	.word	0xe3a01c00
     e5c:	e3811000 	orr	r1, r1, #0
     e60:	e7e1ac28 	strb	sl, [r1, r8, lsr #24]!
     e64:	e320f000 	nop	{0}
     e68:	e0850101 	add	r0, r5, r1, lsl #2
     e6c:	e12fff30 	blx	r0

00000e70 <Bopc_9C>:
     e70:	e3a01c00 	.word	0xe3a01c00
     e74:	e320f000 	nop	{0}
     e78:	e1a00c26 	lsr	r0, r6, #24
     e7c:	e320f000 	nop	{0}
     e80:	e5e10000 	strb	r0, [r1, #0]!

00000e84 <Bopc_9D>:
     e84:	e3a01c00 	.word	0xe3a01c00
     e88:	e3811000 	orr	r1, r1, #0
     e8c:	e7e1ac2b 	strb	sl, [r1, fp, lsr #24]!
     e90:	e320f000 	nop	{0}
     e94:	e0850101 	add	r0, r5, r1, lsl #2
     e98:	e12fff30 	blx	r0

00000e9c <Bopc_9E>:
     e9c:	e3a01c00 	.word	0xe3a01c00
     ea0:	e3811000 	orr	r1, r1, #0
     ea4:	e7e16c2b 	strb	r6, [r1, fp, lsr #24]!
     ea8:	e320f000 	nop	{0}
     eac:	e0850101 	add	r0, r5, r1, lsl #2
     eb0:	e12fff30 	blx	r0

00000eb4 <Bopc_9F>:
     eb4:	e5d60000 	ldrb	r0, [r6]
     eb8:	e10f1000 	mrs	r1, CPSR
     ebc:	e3100002 	tst	r0, #2
     ec0:	00002808 	.word	0x00002808
     ec4:	ea000000 	b	ecc <opc_E5>
     ec8:	e128f001 	msr	CPSR_f, r1

00000ecc <opc_E5>:
     ecc:	e24f1fe7 	sub	r1, pc, #924	; 0x39c
     ed0:	ea00042e 	b	1f90 <jitend2byteBLend>

00000ed4 <opc_66>:
     ed4:	e24f1fe5 	sub	r1, pc, #916	; 0x394
     ed8:	ea000432 	b	1fa8 <doublebyteendsettwobytes12>

00000edc <opc_67>:
     edc:	e24f1fe3 	sub	r1, pc, #908	; 0x38c
     ee0:	ea000430 	b	1fa8 <doublebyteendsettwobytes12>

00000ee4 <opc_69>:
     ee4:	e24f1fe1 	sub	r1, pc, #900	; 0x384
     ee8:	ea000428 	b	1f90 <jitend2byteBLend>

00000eec <opc_E9>:
     eec:	e24f1fdf 	sub	r1, pc, #892	; 0x37c
     ef0:	ea000426 	b	1f90 <jitend2byteBLend>

00000ef4 <opc_6C>:
     ef4:	e24f1fdd 	sub	r1, pc, #884	; 0x374
     ef8:	eb0005b7 	bl	25dc <fixuptype2accessquick>
     efc:	ea000595 	b	2558 <jitend3byteexitstore6>

00000f00 <opc_6D>:
     f00:	e24f1fda 	sub	r1, pc, #872	; 0x368
     f04:	ea000577 	b	24e8 <jitend3byteloadstoreoperandBL>

00000f08 <opc_ED>:
     f08:	e24f1fd6 	sub	r1, pc, #856	; 0x358
     f0c:	ea000575 	b	24e8 <jitend3byteloadstoreoperandBL>

00000f10 <opc_6E>:
     f10:	e24f1fd2 	sub	r1, pc, #840	; 0x348
     f14:	ea00057a 	b	2504 <jitend3byteloadstoreoperand>

00000f18 <opc_6F>:
     f18:	e24f1fce 	sub	r1, pc, #824	; 0x338
     f1c:	ea000584 	b	2534 <jitend3byteexitBBRS>

00000f20 <opc_70>:
     f20:	e59f0470 	ldr	r0, [pc, #1136]	; 1398 <opc_CF+0x1c>
     f24:	e51f94d4 	ldr	r9, [pc, #-1236]	; a58 <Bopc_50>
     f28:	e6af4074 	sxtb	r4, r4
     f2c:	eb00059f 	bl	25b0 <createbranchlinkm8>
     f30:	e1a00084 	lsl	r0, r4, #1
     f34:	e5869004 	str	r9, [r6, #4]
     f38:	e3c004ff 	bic	r0, r0, #-16777216	; 0xff000000
     f3c:	e586900c 	str	r9, [r6, #12]
     f40:	e38004ea 	orr	r0, r0, #-369098752	; 0xea000000
     f44:	e5860008 	str	r0, [r6, #8]
     f48:	ea00052d 	b	2404 <jitend2byteexit>

00000f4c <opc_71>:
     f4c:	e24f1fd5 	sub	r1, pc, #852	; 0x354
     f50:	ea000409 	b	1f7c <jitendT2byte>

00000f54 <opc_F1>:
     f54:	e28f107c 	add	r1, pc, #124	; 0x7c
     f58:	ea000407 	b	1f7c <jitendT2byte>

00000f5c <opc_72>:
     f5c:	e24f1fd5 	sub	r1, pc, #852	; 0x354
     f60:	ea000405 	b	1f7c <jitendT2byte>

00000f64 <opc_F2>:
     f64:	e28f107c 	add	r1, pc, #124	; 0x7c
     f68:	ea000403 	b	1f7c <jitendT2byte>

00000f6c <opc_74>:
     f6c:	e24f1fd5 	sub	r1, pc, #852	; 0x354
     f70:	ea000410 	b	1fb8 <doublebyteend>

00000f74 <opc_75>:
     f74:	e24f1fd3 	sub	r1, pc, #844	; 0x34c
     f78:	ea000404 	b	1f90 <jitend2byteBLend>

00000f7c <opc_76>:
     f7c:	e24f1fd1 	sub	r1, pc, #836	; 0x344
     f80:	ea000402 	b	1f90 <jitend2byteBLend>

00000f84 <opc_F5>:
     f84:	e28f106c 	add	r1, pc, #108	; 0x6c
     f88:	ea000400 	b	1f90 <jitend2byteBLend>

00000f8c <opc_77>:
     f8c:	e24f1fd1 	sub	r1, pc, #836	; 0x344
     f90:	ea000404 	b	1fa8 <doublebyteendsettwobytes12>

00000f94 <opc_79>:
     f94:	e24f1fcf 	sub	r1, pc, #828	; 0x33c
     f98:	ea000552 	b	24e8 <jitend3byteloadstoreoperandBL>

00000f9c <opc_F9>:
     f9c:	e28f1064 	add	r1, pc, #100	; 0x64
     fa0:	ea000550 	b	24e8 <jitend3byteloadstoreoperandBL>

00000fa4 <opc_7C>:
     fa4:	e24f1fcd 	sub	r1, pc, #820	; 0x334
     fa8:	e8911f80 	ldm	r1, {r7, r8, r9, sl, fp, ip}
     fac:	e1877005 	orr	r7, r7, r5
     fb0:	e1888004 	orr	r8, r8, r4
     fb4:	ea000567 	b	2558 <jitend3byteexitstore6>

00000fb8 <opc_7D>:
     fb8:	e24f1e33 	sub	r1, pc, #816	; 0x330
     fbc:	ea000549 	b	24e8 <jitend3byteloadstoreoperandBL>

00000fc0 <opc_FD>:
     fc0:	e28f1058 	add	r1, pc, #88	; 0x58
     fc4:	ea000547 	b	24e8 <jitend3byteloadstoreoperandBL>

00000fc8 <opc_7E>:
     fc8:	e24f1fca 	sub	r1, pc, #808	; 0x328
     fcc:	ea00054c 	b	2504 <jitend3byteloadstoreoperand>

00000fd0 <opc_7F>:
     fd0:	e24f1fc6 	sub	r1, pc, #792	; 0x318
     fd4:	ea000556 	b	2534 <jitend3byteexitBBRS>

00000fd8 <Bopc_F1>:
     fd8:	e1d610b0 	ldrh	r1, [r6]
     fdc:	e3170008 	tst	r7, #8
     fe0:	e7d1cc28 	ldrb	ip, [r1, r8, lsr #24]
     fe4:	00002a48 	.word	0x00002a48

00000fe8 <Bopc_F2>:
     fe8:	e1d610b0 	ldrh	r1, [r6]
     fec:	e3170008 	tst	r7, #8
     ff0:	e5d1c000 	ldrb	ip, [r1]
     ff4:	00002a48 	.word	0x00002a48

00000ff8 <Bopc_F5>:
     ff8:	e28b1400 	.word	0xe28b1400
     ffc:	e3170008 	tst	r7, #8
    1000:	e7d6cc21 	ldrb	ip, [r6, r1, lsr #24]
    1004:	00002a48 	.word	0x00002a48

00001008 <Bopc_F9>:
    1008:	e3a01c00 	.word	0xe3a01c00
    100c:	e3811000 	orr	r1, r1, #0
    1010:	e7d1cc28 	ldrb	ip, [r1, r8, lsr #24]
    1014:	e3170008 	tst	r7, #8
    1018:	e3c77040 	bic	r7, r7, #64	; 0x40
    101c:	00002a44 	.word	0x00002a44

00001020 <Bopc_FD>:
    1020:	e3a01c00 	.word	0xe3a01c00
    1024:	e3811000 	orr	r1, r1, #0
    1028:	e7d1cc2b 	ldrb	ip, [r1, fp, lsr #24]
    102c:	e3170008 	tst	r7, #8
    1030:	e3c77040 	bic	r7, r7, #64	; 0x40
    1034:	00002a44 	.word	0x00002a44

00001038 <opc_81>:
    1038:	e24f1fda 	sub	r1, pc, #872	; 0x368
    103c:	ea0003d3 	b	1f90 <jitend2byteBLend>

00001040 <opc_A1>:
    1040:	e24f1e36 	sub	r1, pc, #864	; 0x360
    1044:	ea0003d1 	b	1f90 <jitend2byteBLend>

00001048 <opc_C1>:
    1048:	e24f1fd6 	sub	r1, pc, #856	; 0x358
    104c:	ea0003cf 	b	1f90 <jitend2byteBLend>

00001050 <opc_E1>:
    1050:	e24f1e35 	sub	r1, pc, #848	; 0x350
    1054:	ea0003cd 	b	1f90 <jitend2byteBLend>

00001058 <opc_84>:
    1058:	e24f1fd2 	sub	r1, pc, #840	; 0x348
    105c:	e8910700 	ldm	r1, {r8, r9, sl}
    1060:	e1a0b104 	lsl	fp, r4, #2
    1064:	e28bb6d1 	add	fp, fp, #219152384	; 0xd100000
    1068:	e1899004 	orr	r9, r9, r4
    106c:	e18aa004 	orr	sl, sl, r4
    1070:	e24bb014 	sub	fp, fp, #20
    1074:	ea0003c7 	b	1f98 <jitend2byteBLendstore>

00001078 <opc_85>:
    1078:	e24f1fd7 	sub	r1, pc, #860	; 0x35c
    107c:	e8910700 	ldm	r1, {r8, r9, sl}
    1080:	e1a0b104 	lsl	fp, r4, #2
    1084:	e28bb6d1 	add	fp, fp, #219152384	; 0xd100000
    1088:	e1888004 	orr	r8, r8, r4
    108c:	e1899004 	orr	r9, r9, r4
    1090:	e24bb014 	sub	fp, fp, #20
    1094:	ea0003bf 	b	1f98 <jitend2byteBLendstore>

00001098 <opc_86>:
    1098:	e24f1e37 	sub	r1, pc, #880	; 0x370
    109c:	e8910700 	ldm	r1, {r8, r9, sl}
    10a0:	e1a0b104 	lsl	fp, r4, #2
    10a4:	e28bb6d1 	add	fp, fp, #219152384	; 0xd100000
    10a8:	e1899004 	orr	r9, r9, r4
    10ac:	e18aa004 	orr	sl, sl, r4
    10b0:	e24bb014 	sub	fp, fp, #20
    10b4:	ea0003b7 	b	1f98 <jitend2byteBLendstore>

000010b8 <opc_87>:
    10b8:	e24f1fe1 	sub	r1, pc, #900	; 0x384
    10bc:	ea0003b9 	b	1fa8 <doublebyteendsettwobytes12>

000010c0 <opc_89>:
    10c0:	e24f1fdf 	sub	r1, pc, #892	; 0x37c
    10c4:	e8910f00 	ldm	r1, {r8, r9, sl, fp}
    10c8:	e1899004 	orr	r9, r9, r4
    10cc:	ea0003b1 	b	1f98 <jitend2byteBLendstore>

000010d0 <opc_8C>:
    10d0:	e1d2c0b1 	ldrh	ip, [r2, #1]
    10d4:	e3a000f7 	mov	r0, #247	; 0xf7
    10d8:	e3800c07 	orr	r0, r0, #1792	; 0x700
    10dc:	e15002ac 	cmp	r0, ip, lsr #5
    10e0:	0a000007 	beq	1104 <opc_8C+0x34>
    10e4:	e24f1e39 	sub	r1, pc, #912	; 0x390
    10e8:	e8910f80 	ldm	r1, {r7, r8, r9, sl, fp}
    10ec:	e1a0c10c 	lsl	ip, ip, #2
    10f0:	e28cc6d1 	add	ip, ip, #219152384	; 0xd100000
    10f4:	e1877005 	orr	r7, r7, r5
    10f8:	e18bb004 	orr	fp, fp, r4
    10fc:	e24cc01c 	sub	ip, ip, #28
    1100:	ea0004fb 	b	24f4 <jitend3bytestoreoperandBL>
    1104:	e24f1fe7 	sub	r1, pc, #924	; 0x39c
    1108:	ea0004f6 	b	24e8 <jitend3byteloadstoreoperandBL>

0000110c <opc_8D>:
    110c:	e1d2c0b1 	ldrh	ip, [r2, #1]
    1110:	e3a000f7 	mov	r0, #247	; 0xf7
    1114:	e3800c07 	orr	r0, r0, #1792	; 0x700
    1118:	e15002ac 	cmp	r0, ip, lsr #5
    111c:	0a000007 	beq	1140 <opc_8D+0x34>
    1120:	e24f1e3a 	sub	r1, pc, #928	; 0x3a0
    1124:	e8910f80 	ldm	r1, {r7, r8, r9, sl, fp}
    1128:	e1a0c10c 	lsl	ip, ip, #2
    112c:	e28cc6d1 	add	ip, ip, #219152384	; 0xd100000
    1130:	e1877005 	orr	r7, r7, r5
    1134:	e18bb004 	orr	fp, fp, r4
    1138:	e24cc01c 	sub	ip, ip, #28
    113c:	ea0004ec 	b	24f4 <jitend3bytestoreoperandBL>
    1140:	e24f1feb 	sub	r1, pc, #940	; 0x3ac
    1144:	ea0004e7 	b	24e8 <jitend3byteloadstoreoperandBL>

00001148 <opc_8E>:
    1148:	e1d2c0b1 	ldrh	ip, [r2, #1]
    114c:	e3a000f7 	mov	r0, #247	; 0xf7
    1150:	e3800c07 	orr	r0, r0, #1792	; 0x700
    1154:	e15002ac 	cmp	r0, ip, lsr #5
    1158:	0a000007 	beq	117c <opc_8E+0x34>
    115c:	e24f1e3b 	sub	r1, pc, #944	; 0x3b0
    1160:	e8910f80 	ldm	r1, {r7, r8, r9, sl, fp}
    1164:	e1a0c10c 	lsl	ip, ip, #2
    1168:	e28cc6d1 	add	ip, ip, #219152384	; 0xd100000
    116c:	e1877005 	orr	r7, r7, r5
    1170:	e18bb004 	orr	fp, fp, r4
    1174:	e24cc01c 	sub	ip, ip, #28
    1178:	ea0004dd 	b	24f4 <jitend3bytestoreoperandBL>
    117c:	e24f1fef 	sub	r1, pc, #956	; 0x3bc
    1180:	ea0004d8 	b	24e8 <jitend3byteloadstoreoperandBL>

00001184 <opc_8F>:
    1184:	e24f1feb 	sub	r1, pc, #940	; 0x3ac
    1188:	ea0004e9 	b	2534 <jitend3byteexitBBRS>

0000118c <opc_91>:
    118c:	e24f1fe7 	sub	r1, pc, #924	; 0x39c
    1190:	ea00050b 	b	25c4 <fixuptype2accessload4>

00001194 <opc_92>:
    1194:	e24f1fe5 	sub	r1, pc, #916	; 0x394
    1198:	ea000509 	b	25c4 <fixuptype2accessload4>

0000119c <opc_94>:
    119c:	e24f1fe3 	sub	r1, pc, #908	; 0x38c
    11a0:	ea00037a 	b	1f90 <jitend2byteBLend>

000011a4 <opc_95>:
    11a4:	e24f1fe1 	sub	r1, pc, #900	; 0x384
    11a8:	ea000382 	b	1fb8 <doublebyteend>

000011ac <opc_96>:
    11ac:	e24f1fdf 	sub	r1, pc, #892	; 0x37c
    11b0:	ea000376 	b	1f90 <jitend2byteBLend>

000011b4 <opc_97>:
    11b4:	e24f1fdd 	sub	r1, pc, #884	; 0x374
    11b8:	ea00037a 	b	1fa8 <doublebyteendsettwobytes12>

000011bc <opc_99>:
    11bc:	e24f1fdb 	sub	r1, pc, #876	; 0x36c
    11c0:	ea0004cf 	b	2504 <jitend3byteloadstoreoperand>

000011c4 <opc_9C>:
    11c4:	e1d2c0b1 	ldrh	ip, [r2, #1]
    11c8:	e24f1e36 	sub	r1, pc, #864	; 0x360
    11cc:	e8910f80 	ldm	r1, {r7, r8, r9, sl, fp}
    11d0:	e1a0c10c 	lsl	ip, ip, #2
    11d4:	e28cc6d1 	add	ip, ip, #219152384	; 0xd100000
    11d8:	e1877005 	orr	r7, r7, r5
    11dc:	e18bb004 	orr	fp, fp, r4
    11e0:	e24cc01c 	sub	ip, ip, #28
    11e4:	ea0004c2 	b	24f4 <jitend3bytestoreoperandBL>

000011e8 <opc_9D>:
    11e8:	e24f1fdb 	sub	r1, pc, #876	; 0x36c
    11ec:	ea0004c4 	b	2504 <jitend3byteloadstoreoperand>

000011f0 <opc_9E>:
    11f0:	e24f1fd7 	sub	r1, pc, #860	; 0x35c
    11f4:	ea0004c2 	b	2504 <jitend3byteloadstoreoperand>

000011f8 <opc_9F>:
    11f8:	e24f1fd3 	sub	r1, pc, #844	; 0x34c
    11fc:	ea0004cc 	b	2534 <jitend3byteexitBBRS>

00001200 <opc_A0>:
    1200:	e28f1f65 	add	r1, pc, #404	; 0x194
    1204:	ea00036b 	b	1fb8 <doublebyteend>

00001208 <opc_A2>:
    1208:	e28f1f67 	add	r1, pc, #412	; 0x19c
    120c:	ea000369 	b	1fb8 <doublebyteend>

00001210 <opc_A4>:
    1210:	e28f1f69 	add	r1, pc, #420	; 0x1a4
    1214:	ea000367 	b	1fb8 <doublebyteend>

00001218 <opc_A5>:
    1218:	e28f1f6b 	add	r1, pc, #428	; 0x1ac
    121c:	ea0004e8 	b	25c4 <fixuptype2accessload4>

00001220 <opc_A6>:
    1220:	e28f1f6d 	add	r1, pc, #436	; 0x1b4
    1224:	ea000363 	b	1fb8 <doublebyteend>

00001228 <opc_A7>:
    1228:	e28f1f6f 	add	r1, pc, #444	; 0x1bc
    122c:	ea00035d 	b	1fa8 <doublebyteendsettwobytes12>

00001230 <opc_A9>:
    1230:	e51f8808 	ldr	r8, [pc, #-2056]	; a30 <B_NOP>
    1234:	e59fb148 	ldr	fp, [pc, #328]	; 1384 <opc_CF+0x8>
    1238:	e5868004 	str	r8, [r6, #4]
    123c:	e5868008 	str	r8, [r6, #8]
    1240:	e586800c 	str	r8, [r6, #12]
    1244:	e79bc104 	ldr	ip, [fp, r4, lsl #2]
    1248:	e38cc601 	orr	ip, ip, #1048576	; 0x100000
    124c:	e38cca0a 	orr	ip, ip, #40960	; 0xa000
    1250:	e586c000 	str	ip, [r6]
    1254:	ea00035a 	b	1fc4 <jitend2byte>

00001258 <opc_AC>:
    1258:	e1d200b1 	ldrh	r0, [r2, #1]
    125c:	e3a0c0f7 	mov	ip, #247	; 0xf7
    1260:	e38ccc07 	orr	ip, ip, #1792	; 0x700
    1264:	e15c02a0 	cmp	ip, r0, lsr #5
    1268:	0a000001 	beq	1274 <opc_AC+0x1c>
    126c:	e28f1f62 	add	r1, pc, #392	; 0x188
    1270:	ea0004a3 	b	2504 <jitend3byteloadstoreoperand>
    1274:	e28f1f66 	add	r1, pc, #408	; 0x198
    1278:	ea000493 	b	24cc <jitend3byteloadstoreoperandBL8>

0000127c <opc_AD>:
    127c:	e1d200b1 	ldrh	r0, [r2, #1]
    1280:	e3a0c0f7 	mov	ip, #247	; 0xf7
    1284:	e38ccc07 	orr	ip, ip, #1792	; 0x700
    1288:	e15c02a0 	cmp	ip, r0, lsr #5
    128c:	0a000002 	beq	129c <loadio>
    1290:	e28f1f65 	add	r1, pc, #404	; 0x194
    1294:	eb0004d0 	bl	25dc <fixuptype2accessquick>
    1298:	ea00049c 	b	2510 <jitend3bytestore>

0000129c <loadio>:
    129c:	e28f1e1a 	add	r1, pc, #416	; 0x1a0
    12a0:	ea000489 	b	24cc <jitend3byteloadstoreoperandBL8>

000012a4 <opc_AE>:
    12a4:	e1d200b1 	ldrh	r0, [r2, #1]
    12a8:	e3a0c0f7 	mov	ip, #247	; 0xf7
    12ac:	e38ccc07 	orr	ip, ip, #1792	; 0x700
    12b0:	e15c02a0 	cmp	ip, r0, lsr #5
    12b4:	0a000001 	beq	12c0 <opc_AE+0x1c>
    12b8:	e28f1f67 	add	r1, pc, #412	; 0x19c
    12bc:	ea000490 	b	2504 <jitend3byteloadstoreoperand>
    12c0:	e28f1f6b 	add	r1, pc, #428	; 0x1ac
    12c4:	ea000480 	b	24cc <jitend3byteloadstoreoperandBL8>

000012c8 <opc_AF>:
    12c8:	e28f1f6f 	add	r1, pc, #444	; 0x1bc
    12cc:	ea000498 	b	2534 <jitend3byteexitBBRS>

000012d0 <opc_B1>:
    12d0:	e28f1f73 	add	r1, pc, #460	; 0x1cc
    12d4:	ea0004ba 	b	25c4 <fixuptype2accessload4>

000012d8 <opc_B2>:
    12d8:	e28f1f75 	add	r1, pc, #468	; 0x1d4
    12dc:	ea0004b8 	b	25c4 <fixuptype2accessload4>

000012e0 <opc_B4>:
    12e0:	e28f1f77 	add	r1, pc, #476	; 0x1dc
    12e4:	ea000333 	b	1fb8 <doublebyteend>

000012e8 <opc_B5>:
    12e8:	e28f1f79 	add	r1, pc, #484	; 0x1e4
    12ec:	ea000331 	b	1fb8 <doublebyteend>

000012f0 <opc_B6>:
    12f0:	e28f1f7b 	add	r1, pc, #492	; 0x1ec
    12f4:	ea00032f 	b	1fb8 <doublebyteend>

000012f8 <opc_B7>:
    12f8:	e28f1f7d 	add	r1, pc, #500	; 0x1f4
    12fc:	ea000329 	b	1fa8 <doublebyteendsettwobytes12>

00001300 <opc_B9>:
    1300:	e28f1f7f 	add	r1, pc, #508	; 0x1fc
    1304:	ea00047e 	b	2504 <jitend3byteloadstoreoperand>

00001308 <opc_BC>:
    1308:	e28f1f83 	add	r1, pc, #524	; 0x20c
    130c:	ea00047c 	b	2504 <jitend3byteloadstoreoperand>

00001310 <opc_BD>:
    1310:	e28f1f87 	add	r1, pc, #540	; 0x21c
    1314:	ea00047a 	b	2504 <jitend3byteloadstoreoperand>

00001318 <opc_BE>:
    1318:	e28f1f8b 	add	r1, pc, #556	; 0x22c
    131c:	ea000478 	b	2504 <jitend3byteloadstoreoperand>

00001320 <opc_BF>:
    1320:	e28f1f8f 	add	r1, pc, #572	; 0x23c
    1324:	ea000482 	b	2534 <jitend3byteexitBBRS>

00001328 <opc_C0>:
    1328:	e28f1f93 	add	r1, pc, #588	; 0x24c
    132c:	ea000321 	b	1fb8 <doublebyteend>

00001330 <opc_C4>:
    1330:	e28f1f95 	add	r1, pc, #596	; 0x254
    1334:	ea00031f 	b	1fb8 <doublebyteend>

00001338 <opc_C5>:
    1338:	e28f1f97 	add	r1, pc, #604	; 0x25c
    133c:	ea00031d 	b	1fb8 <doublebyteend>

00001340 <opc_C6>:
    1340:	e28f1f99 	add	r1, pc, #612	; 0x264
    1344:	e8910f00 	ldm	r1, {r8, r9, sl, fp}
    1348:	e1888004 	orr	r8, r8, r4
    134c:	e18aa004 	orr	sl, sl, r4
    1350:	ea000310 	b	1f98 <jitend2byteBLendstore>

00001354 <opc_C7>:
    1354:	e28f1e26 	add	r1, pc, #608	; 0x260
    1358:	ea000312 	b	1fa8 <doublebyteendsettwobytes12>

0000135c <opc_C9>:
    135c:	e28f1f9a 	add	r1, pc, #616	; 0x268
    1360:	ea000314 	b	1fb8 <doublebyteend>

00001364 <opc_CC>:
    1364:	e28f1e27 	add	r1, pc, #624	; 0x270
    1368:	ea000465 	b	2504 <jitend3byteloadstoreoperand>

0000136c <opc_CD>:
    136c:	e28f1d0a 	add	r1, pc, #640	; 0x280
    1370:	ea000463 	b	2504 <jitend3byteloadstoreoperand>

00001374 <opc_CE>:
    1374:	e28f1e29 	add	r1, pc, #656	; 0x290
    1378:	ea000461 	b	2504 <jitend3byteloadstoreoperand>

0000137c <opc_CF>:
    137c:	e28f1e2a 	add	r1, pc, #672	; 0x2a0
    1380:	ea00046b 	b	2534 <jitend3byteexitBBRS>
    1384:	00002ac8 	.word	0x00002ac8
    1388:	00002ec0 	.word	0x00002ec0
    138c:	f2f01be4 	.word	0xf2f01be4
    1390:	000028f4 	.word	0x000028f4
    1394:	000027e8 	.word	0x000027e8
    1398:	000027f8 	.word	0x000027f8

0000139c <Bopc_A0>:
    139c:	e3a08400 	.word	0xe3a08400
    13a0:	e320f000 	nop	{0}
    13a4:	e3380000 	teq	r8, #0
    13a8:	e320f000 	nop	{0}

000013ac <Bopc_A2>:
    13ac:	e3a0b400 	.word	0xe3a0b400
    13b0:	e320f000 	nop	{0}
    13b4:	e33b0000 	teq	fp, #0
    13b8:	e320f000 	nop	{0}

000013bc <Bopc_A4>:
    13bc:	e5d68000 	ldrb	r8, [r6]
    13c0:	e320f000 	nop	{0}
    13c4:	e1a08c08 	lsl	r8, r8, #24
    13c8:	e3380000 	teq	r8, #0

000013cc <Bopc_A5>:
    13cc:	e1d6a0d0 	ldrsb	sl, [r6]
    13d0:	e320f000 	nop	{0}
    13d4:	e320f000 	nop	{0}
    13d8:	e33a0000 	teq	sl, #0

000013dc <Bopc_A6>:
    13dc:	e5d6b000 	ldrb	fp, [r6]
    13e0:	e320f000 	nop	{0}
    13e4:	e1a0bc0b 	lsl	fp, fp, #24
    13e8:	e33b0000 	teq	fp, #0

000013ec <Bopc_A7>:
    13ec:	e5d60000 	ldrb	r0, [r6]
    13f0:	e320f000 	nop	{0}
    13f4:	e3800004 	orr	r0, r0, #4
    13f8:	e5c60000 	strb	r0, [r6]

000013fc <Bopc_AC>:
    13fc:	e3a01c00 	.word	0xe3a01c00
    1400:	e5d1c000 	ldrb	ip, [r1]
    1404:	e320f000 	nop	{0}
    1408:	e320f000 	nop	{0}
    140c:	e1a08c0c 	lsl	r8, ip, #24
    1410:	e3380000 	teq	r8, #0

00001414 <Bopc_AC_io>:
    1414:	e3a00c00 	.word	0xe3a00c00
    1418:	e3800000 	orr	r0, r0, #0
    141c:	000025e8 	.word	0x000025e8
    1420:	e1a08c00 	lsl	r8, r0, #24
    1424:	e320f000 	nop	{0}
    1428:	e3380000 	teq	r8, #0

0000142c <Bopc_AD>:
    142c:	e3a01c00 	.word	0xe3a01c00
    1430:	e1d1a0d0 	ldrsb	sl, [r1]
    1434:	e320f000 	nop	{0}
    1438:	e320f000 	nop	{0}
    143c:	e320f000 	nop	{0}
    1440:	e33a0000 	teq	sl, #0

00001444 <Bopc_AD_io>:
    1444:	e3a00c00 	.word	0xe3a00c00
    1448:	e3800000 	orr	r0, r0, #0
    144c:	000025e8 	.word	0x000025e8
    1450:	e6afa070 	sxtb	sl, r0
    1454:	e320f000 	nop	{0}
    1458:	e33a0000 	teq	sl, #0

0000145c <Bopc_AE>:
    145c:	e3a01c00 	.word	0xe3a01c00
    1460:	e5d1c000 	ldrb	ip, [r1]
    1464:	e320f000 	nop	{0}
    1468:	e320f000 	nop	{0}
    146c:	e1a0bc0c 	lsl	fp, ip, #24
    1470:	e33b0000 	teq	fp, #0

00001474 <Bopc_AE_io>:
    1474:	e3a00c00 	.word	0xe3a00c00
    1478:	e3800000 	orr	r0, r0, #0
    147c:	000025e8 	.word	0x000025e8
    1480:	e1a0bc00 	lsl	fp, r0, #24
    1484:	e320f000 	nop	{0}
    1488:	e33b0000 	teq	fp, #0

0000148c <Bopc_AF>:
    148c:	e5d60000 	ldrb	r0, [r6]
    1490:	e10f1000 	mrs	r1, CPSR
    1494:	e3100004 	tst	r0, #4
    1498:	00002808 	.word	0x00002808
    149c:	ea000000 	b	14a4 <Bopc_B1>
    14a0:	e128f001 	msr	CPSR_f, r1

000014a4 <Bopc_B1>:
    14a4:	e1d600b0 	ldrh	r0, [r6]
    14a8:	e1a01c28 	lsr	r1, r8, #24
    14ac:	e191a0d0 	ldrsb	sl, [r1, r0]
    14b0:	e33a0000 	teq	sl, #0

000014b4 <Bopc_B2>:
    14b4:	e1d600b0 	ldrh	r0, [r6]
    14b8:	e320f000 	nop	{0}
    14bc:	e1d0a0d0 	ldrsb	sl, [r0]
    14c0:	e33a0000 	teq	sl, #0

000014c4 <Bopc_B4>:
    14c4:	e28b1400 	.word	0xe28b1400
    14c8:	e7d68c21 	ldrb	r8, [r6, r1, lsr #24]
    14cc:	e1a08c08 	lsl	r8, r8, #24
    14d0:	e3380000 	teq	r8, #0

000014d4 <Bopc_B5>:
    14d4:	e28b1400 	.word	0xe28b1400
    14d8:	e1a01c21 	lsr	r1, r1, #24
    14dc:	e1d1a0d0 	ldrsb	sl, [r1]
    14e0:	e33a0000 	teq	sl, #0

000014e4 <Bopc_B6>:
    14e4:	e2881400 	.word	0xe2881400
    14e8:	e7d6cc21 	ldrb	ip, [r6, r1, lsr #24]
    14ec:	e1a0bc0c 	lsl	fp, ip, #24
    14f0:	e33b0000 	teq	fp, #0

000014f4 <Bopc_B7>:
    14f4:	e5d60000 	ldrb	r0, [r6]
    14f8:	e320f000 	nop	{0}
    14fc:	e3800008 	orr	r0, r0, #8
    1500:	e5c60000 	strb	r0, [r6]

00001504 <Bopc_B9>:
    1504:	e3a01c00 	.word	0xe3a01c00
    1508:	e3811000 	orr	r1, r1, #0
    150c:	e1a0ac28 	lsr	sl, r8, #24
    1510:	e191a0da 	ldrsb	sl, [r1, sl]
    1514:	e320f000 	nop	{0}
    1518:	e33a0000 	teq	sl, #0

0000151c <Bopc_BC>:
    151c:	e3a01c00 	.word	0xe3a01c00
    1520:	e3811000 	orr	r1, r1, #0
    1524:	e7d18c2b 	ldrb	r8, [r1, fp, lsr #24]
    1528:	e320f000 	nop	{0}
    152c:	e1a08c08 	lsl	r8, r8, #24
    1530:	e3380000 	teq	r8, #0

00001534 <Bopc_BD>:
    1534:	e3a01c00 	.word	0xe3a01c00
    1538:	e3811000 	orr	r1, r1, #0
    153c:	e1a0ac2b 	lsr	sl, fp, #24
    1540:	e191a0da 	ldrsb	sl, [r1, sl]
    1544:	e320f000 	nop	{0}
    1548:	e33a0000 	teq	sl, #0

0000154c <Bopc_BE>:
    154c:	e3a01c00 	.word	0xe3a01c00
    1550:	e3811000 	orr	r1, r1, #0
    1554:	e7d1bc28 	ldrb	fp, [r1, r8, lsr #24]
    1558:	e320f000 	nop	{0}
    155c:	e1a0bc0b 	lsl	fp, fp, #24
    1560:	e33b0000 	teq	fp, #0

00001564 <Bopc_BF>:
    1564:	e5d60000 	ldrb	r0, [r6]
    1568:	e10f1000 	mrs	r1, CPSR
    156c:	e3100008 	tst	r0, #8
    1570:	00002808 	.word	0x00002808
    1574:	ea000000 	b	157c <Bopc_C0>
    1578:	e128f001 	msr	CPSR_f, r1

0000157c <Bopc_C0>:
    157c:	e3580400 	.word	0xe3580400
    1580:	e320f000 	nop	{0}
    1584:	e320f000 	nop	{0}
    1588:	e320f000 	nop	{0}

0000158c <Bopc_C4>:
    158c:	e5d60000 	ldrb	r0, [r6]
    1590:	e320f000 	nop	{0}
    1594:	e320f000 	nop	{0}
    1598:	e1580c00 	cmp	r8, r0, lsl #24

0000159c <Bopc_C5>:
    159c:	e5d60000 	ldrb	r0, [r6]
    15a0:	e1a01c0a 	lsl	r1, sl, #24
    15a4:	e320f000 	nop	{0}
    15a8:	e1510c00 	cmp	r1, r0, lsl #24

000015ac <Bopc_C6>:
    15ac:	e5d60000 	ldrb	r0, [r6]
    15b0:	e2400001 	sub	r0, r0, #1
    15b4:	e5c60000 	strb	r0, [r6]
    15b8:	0000283c 	.word	0x0000283c

000015bc <Bopc_C7>:
    15bc:	e5d60000 	ldrb	r0, [r6]
    15c0:	e320f000 	nop	{0}
    15c4:	e3800010 	orr	r0, r0, #16
    15c8:	e5c60000 	strb	r0, [r6]

000015cc <Bopc_C9>:
    15cc:	e3a01400 	.word	0xe3a01400
    15d0:	e320f000 	nop	{0}
    15d4:	e0711c0a 	rsbs	r1, r1, sl, lsl #24
    15d8:	e320f000 	nop	{0}

000015dc <Bopc_CC>:
    15dc:	e3a01c00 	.word	0xe3a01c00
    15e0:	e5d1c000 	ldrb	ip, [r1]
    15e4:	e320f000 	nop	{0}
    15e8:	e320f000 	nop	{0}
    15ec:	e320f000 	nop	{0}
    15f0:	e1580c0c 	cmp	r8, ip, lsl #24

000015f4 <Bopc_CD>:
    15f4:	e3a01c00 	.word	0xe3a01c00
    15f8:	e5d1c000 	ldrb	ip, [r1]
    15fc:	e320f000 	nop	{0}
    1600:	e1a01c0a 	lsl	r1, sl, #24
    1604:	e320f000 	nop	{0}
    1608:	e1510c0c 	cmp	r1, ip, lsl #24

0000160c <Bopc_CE>:
    160c:	e3a01c00 	.word	0xe3a01c00
    1610:	e5f1c000 	ldrb	ip, [r1, #0]!
    1614:	e24cc001 	sub	ip, ip, #1
    1618:	e5c1c000 	strb	ip, [r1]
    161c:	e6afc07c 	sxtb	ip, ip
    1620:	e33c0000 	teq	ip, #0

00001624 <Bopc_CF>:
    1624:	e5d60000 	ldrb	r0, [r6]
    1628:	e10f1000 	mrs	r1, CPSR
    162c:	e3100010 	tst	r0, #16
    1630:	00002808 	.word	0x00002808
    1634:	ea000000 	b	163c <Bopc_D1>
    1638:	e128f001 	msr	CPSR_f, r1

0000163c <Bopc_D1>:
    163c:	e1d600b0 	ldrh	r0, [r6]
    1640:	e7d00c28 	ldrb	r0, [r0, r8, lsr #24]
    1644:	e1a01c0a 	lsl	r1, sl, #24
    1648:	e1510c00 	cmp	r1, r0, lsl #24

0000164c <Bopc_D2>:
    164c:	e1d600b0 	ldrh	r0, [r6]
    1650:	e5d00000 	ldrb	r0, [r0]
    1654:	e1a01c0a 	lsl	r1, sl, #24
    1658:	e1510c00 	cmp	r1, r0, lsl #24

0000165c <Bopc_D5>:
    165c:	e28b1400 	.word	0xe28b1400
    1660:	e7d60c21 	ldrb	r0, [r6, r1, lsr #24]
    1664:	e1a01c0a 	lsl	r1, sl, #24
    1668:	e1510c00 	cmp	r1, r0, lsl #24

0000166c <Bopc_D6>:
    166c:	e28b1400 	.word	0xe28b1400
    1670:	e7d60c21 	ldrb	r0, [r6, r1, lsr #24]
    1674:	e2400001 	sub	r0, r0, #1
    1678:	00002838 	.word	0x00002838

0000167c <Bopc_D7>:
    167c:	e5d60000 	ldrb	r0, [r6]
    1680:	e320f000 	nop	{0}
    1684:	e3800020 	orr	r0, r0, #32
    1688:	e5c60000 	strb	r0, [r6]

0000168c <Bopc_D9>:
    168c:	e3a01c00 	.word	0xe3a01c00
    1690:	e3811000 	orr	r1, r1, #0
    1694:	e7d10c28 	ldrb	r0, [r1, r8, lsr #24]
    1698:	e320f000 	nop	{0}
    169c:	e1a01c0a 	lsl	r1, sl, #24
    16a0:	e1510c00 	cmp	r1, r0, lsl #24

000016a4 <Bopc_DD>:
    16a4:	e3a01c00 	.word	0xe3a01c00
    16a8:	e3811000 	orr	r1, r1, #0
    16ac:	e7d10c2b 	ldrb	r0, [r1, fp, lsr #24]
    16b0:	e320f000 	nop	{0}
    16b4:	e1a01c0a 	lsl	r1, sl, #24
    16b8:	e1510c00 	cmp	r1, r0, lsl #24

000016bc <Bopc_DE>:
    16bc:	e3a01c00 	.word	0xe3a01c00
    16c0:	e3811000 	orr	r1, r1, #0
    16c4:	e7f10c2b 	ldrb	r0, [r1, fp, lsr #24]!
    16c8:	e2400001 	sub	r0, r0, #1
    16cc:	e5c10000 	strb	r0, [r1]
    16d0:	00002834 	.word	0x00002834

000016d4 <Bopc_DF>:
    16d4:	e5d60000 	ldrb	r0, [r6]
    16d8:	e10f1000 	mrs	r1, CPSR
    16dc:	e3100020 	tst	r0, #32
    16e0:	00002808 	.word	0x00002808
    16e4:	ea000000 	b	16ec <Bopc_E0>
    16e8:	e128f001 	msr	CPSR_f, r1

000016ec <Bopc_E0>:
    16ec:	e35b0400 	.word	0xe35b0400
    16f0:	e320f000 	nop	{0}
    16f4:	e320f000 	nop	{0}
    16f8:	e320f000 	nop	{0}

000016fc <Bopc_E4>:
    16fc:	e5d60000 	ldrb	r0, [r6]
    1700:	e320f000 	nop	{0}
    1704:	e320f000 	nop	{0}
    1708:	e15b0c00 	cmp	fp, r0, lsl #24

0000170c <Bopc_E6>:
    170c:	e5d60000 	ldrb	r0, [r6]
    1710:	e2800001 	add	r0, r0, #1
    1714:	e5c60000 	strb	r0, [r6]
    1718:	0000283c 	.word	0x0000283c

0000171c <Bopc_E7>:
    171c:	e5d60000 	ldrb	r0, [r6]
    1720:	e320f000 	nop	{0}
    1724:	e3800040 	orr	r0, r0, #64	; 0x40
    1728:	e5c60000 	strb	r0, [r6]

0000172c <Bopc_EC>:
    172c:	e3a01c00 	.word	0xe3a01c00
    1730:	e5d1c000 	ldrb	ip, [r1]
    1734:	e320f000 	nop	{0}
    1738:	e320f000 	nop	{0}
    173c:	e320f000 	nop	{0}
    1740:	e15b0c0c 	cmp	fp, ip, lsl #24

00001744 <Bopc_EE>:
    1744:	e3a01c00 	.word	0xe3a01c00
    1748:	e5f1c000 	ldrb	ip, [r1, #0]!
    174c:	0000284c 	.word	0x0000284c
    1750:	e6afc07c 	sxtb	ip, ip
    1754:	e33c0000 	teq	ip, #0

00001758 <Bopc_EF>:
    1758:	e5d60000 	ldrb	r0, [r6]
    175c:	e10f1000 	mrs	r1, CPSR
    1760:	e3100040 	tst	r0, #64	; 0x40
    1764:	00002808 	.word	0x00002808
    1768:	ea000000 	b	1770 <Bopc_F6>
    176c:	e128f001 	msr	CPSR_f, r1

00001770 <Bopc_F6>:
    1770:	e28b1400 	.word	0xe28b1400
    1774:	e7d60c21 	ldrb	r0, [r6, r1, lsr #24]
    1778:	e2800001 	add	r0, r0, #1
    177c:	00002838 	.word	0x00002838

00001780 <Bopc_F7>:
    1780:	e5d60000 	ldrb	r0, [r6]
    1784:	e320f000 	nop	{0}
    1788:	e3800080 	orr	r0, r0, #128	; 0x80
    178c:	e5c60000 	strb	r0, [r6]

00001790 <Bopc_FE>:
    1790:	e3a01c00 	.word	0xe3a01c00
    1794:	e3811000 	orr	r1, r1, #0
    1798:	e7f1cc2b 	ldrb	ip, [r1, fp, lsr #24]!
    179c:	00002848 	.word	0x00002848
    17a0:	e6afc07c 	sxtb	ip, ip
    17a4:	e33c0000 	teq	ip, #0

000017a8 <Bopc_FF>:
    17a8:	e5d60000 	ldrb	r0, [r6]
    17ac:	e10f1000 	mrs	r1, CPSR
    17b0:	e3100080 	tst	r0, #128	; 0x80
    17b4:	00002808 	.word	0x00002808
    17b8:	ea000000 	b	17c0 <opc_D1>
    17bc:	e128f001 	msr	CPSR_f, r1

000017c0 <opc_D1>:
    17c0:	e24f1f63 	sub	r1, pc, #396	; 0x18c
    17c4:	ea00037e 	b	25c4 <fixuptype2accessload4>

000017c8 <opc_D2>:
    17c8:	e24f1f61 	sub	r1, pc, #388	; 0x184
    17cc:	ea00037c 	b	25c4 <fixuptype2accessload4>

000017d0 <opc_D5>:
    17d0:	e24f1f5f 	sub	r1, pc, #380	; 0x17c
    17d4:	ea0001f7 	b	1fb8 <doublebyteend>

000017d8 <opc_D6>:
    17d8:	e24f1f5d 	sub	r1, pc, #372	; 0x174
    17dc:	ea0001eb 	b	1f90 <jitend2byteBLend>

000017e0 <opc_D7>:
    17e0:	e24f1f5b 	sub	r1, pc, #364	; 0x16c
    17e4:	ea0001ef 	b	1fa8 <doublebyteendsettwobytes12>

000017e8 <opc_D9>:
    17e8:	e24f1f59 	sub	r1, pc, #356	; 0x164
    17ec:	ea000344 	b	2504 <jitend3byteloadstoreoperand>

000017f0 <opc_DD>:
    17f0:	e24f1f55 	sub	r1, pc, #340	; 0x154
    17f4:	ea000342 	b	2504 <jitend3byteloadstoreoperand>

000017f8 <opc_DE>:
    17f8:	e24f1f51 	sub	r1, pc, #324	; 0x144
    17fc:	ea000339 	b	24e8 <jitend3byteloadstoreoperandBL>

00001800 <opc_DF>:
    1800:	e24f1f4d 	sub	r1, pc, #308	; 0x134
    1804:	ea00034a 	b	2534 <jitend3byteexitBBRS>

00001808 <opc_E0>:
    1808:	e24f1f49 	sub	r1, pc, #292	; 0x124
    180c:	ea0001e9 	b	1fb8 <doublebyteend>

00001810 <opc_E4>:
    1810:	e24f1f47 	sub	r1, pc, #284	; 0x11c
    1814:	ea0001e7 	b	1fb8 <doublebyteend>

00001818 <opc_E6>:
    1818:	e24f1f45 	sub	r1, pc, #276	; 0x114
    181c:	e8910f00 	ldm	r1, {r8, r9, sl, fp}
    1820:	e1888004 	orr	r8, r8, r4
    1824:	e18aa004 	orr	sl, sl, r4
    1828:	ea0001da 	b	1f98 <jitend2byteBLendstore>

0000182c <opc_E7>:
    182c:	e24f1f46 	sub	r1, pc, #280	; 0x118
    1830:	ea0001dc 	b	1fa8 <doublebyteendsettwobytes12>

00001834 <opc_EC>:
    1834:	e24f1e11 	sub	r1, pc, #272	; 0x110
    1838:	ea000331 	b	2504 <jitend3byteloadstoreoperand>

0000183c <opc_EE>:
    183c:	e1d2c0b1 	ldrh	ip, [r2, #1]
    1840:	e24f1f41 	sub	r1, pc, #260	; 0x104
    1844:	e8910f80 	ldm	r1, {r7, r8, r9, sl, fp}
    1848:	e1877005 	orr	r7, r7, r5
    184c:	e1888004 	orr	r8, r8, r4
    1850:	e1a09129 	lsr	r9, r9, #2
    1854:	e0499126 	sub	r9, r9, r6, lsr #2
    1858:	e38994eb 	orr	r9, r9, #-352321536	; 0xeb000000
    185c:	e1a0c10c 	lsl	ip, ip, #2
    1860:	e28cc6d1 	add	ip, ip, #219152384	; 0xd100000
    1864:	e24cc01c 	sub	ip, ip, #28
    1868:	ea000321 	b	24f4 <jitend3bytestoreoperandBL>

0000186c <opc_EF>:
    186c:	e24f1f47 	sub	r1, pc, #284	; 0x11c
    1870:	ea00032f 	b	2534 <jitend3byteexitBBRS>

00001874 <opc_F6>:
    1874:	e24f1f43 	sub	r1, pc, #268	; 0x10c
    1878:	ea0001c4 	b	1f90 <jitend2byteBLend>

0000187c <opc_F7>:
    187c:	e24f1f41 	sub	r1, pc, #260	; 0x104
    1880:	ea0001c8 	b	1fa8 <doublebyteendsettwobytes12>

00001884 <opc_FE>:
    1884:	e24f10fc 	sub	r1, pc, #252	; 0xfc
    1888:	e8911f80 	ldm	r1, {r7, r8, r9, sl, fp, ip}
    188c:	e1877005 	orr	r7, r7, r5
    1890:	e1888004 	orr	r8, r8, r4
    1894:	e1a0a12a 	lsr	sl, sl, #2
    1898:	e04aa126 	sub	sl, sl, r6, lsr #2
    189c:	e38aa4eb 	orr	sl, sl, #-352321536	; 0xeb000000
    18a0:	ea00031a 	b	2510 <jitend3bytestore>

000018a4 <opc_FF>:
    18a4:	e24f1f41 	sub	r1, pc, #260	; 0x104
    18a8:	ea000321 	b	2534 <jitend3byteexitBBRS>

000018ac <exec_65tubejit>:
    18ac:	e92d4ff0 	push	{r4, r5, r6, r7, r8, r9, sl, fp, lr}
    18b0:	e58fd124 	str	sp, [pc, #292]	; 19dc <stackptr>
    18b4:	e1a06000 	mov	r6, r0
    18b8:	e58f6124 	str	r6, [pc, #292]	; 19e4 <ram6502store>
    18bc:	e59fc0f8 	ldr	ip, [pc, #248]	; 19bc <exec_65tube_exit+0x14>
    18c0:	e59c0000 	ldr	r0, [ip]
    18c4:	e58f0104 	str	r0, [pc, #260]	; 19d0 <old_fiq_vector>
    18c8:	e59f00f0 	ldr	r0, [pc, #240]	; 19c0 <exec_65tube_exit+0x18>
    18cc:	e58c0000 	str	r0, [ip]
    18d0:	ee190f1c 	mrc	15, 0, r0, cr9, cr12, {0}
    18d4:	e3c00008 	bic	r0, r0, #8
    18d8:	ee090f1c 	mcr	15, 0, r0, cr9, cr12, {0}
    18dc:	ee190f1d 	mrc	15, 0, r0, cr9, cr13, {0}
    18e0:	e59f20dc 	ldr	r2, [pc, #220]	; 19c4 <exec_65tube_exit+0x1c>
    18e4:	e3a0040d 	mov	r0, #218103808	; 0xd000000
    18e8:	e59fc0d8 	ldr	ip, [pc, #216]	; 19c8 <exec_65tube_exit+0x20>
    18ec:	e3a046d1 	mov	r4, #219152384	; 0xd100000
    18f0:	e3a03801 	mov	r3, #65536	; 0x10000
    18f4:	e1a02122 	lsr	r2, r2, #2
    18f8:	e28224eb 	add	r2, r2, #-352321536	; 0xeb000000

000018fc <loopdejitsetup>:
    18fc:	e2533001 	subs	r3, r3, #1
    1900:	e4802008 	str	r2, [r0], #8
    1904:	e2422002 	sub	r2, r2, #2
    1908:	e484c004 	str	ip, [r4], #4
    190c:	1afffffa 	bne	18fc <loopdejitsetup>
    1910:	f57ff04f 	dsb	sy
    1914:	ee10cf30 	mrc	15, 0, ip, cr0, cr0, {1}
    1918:	e7e3185c 	ubfx	r1, ip, #16, #4
    191c:	e3a0c004 	mov	ip, #4
    1920:	e1a0c11c 	lsl	ip, ip, r1
    1924:	e58fc0b4 	str	ip, [pc, #180]	; 19e0 <cacheline>
    1928:	e3a0540d 	mov	r5, #218103808	; 0xd000000
    192c:	e3a006d1 	mov	r0, #219152384	; 0xd100000
    1930:	e2801701 	add	r1, r0, #262144	; 0x40000

00001934 <cacheflushloopjittable>:
    1934:	ee070f3b 	mcr	15, 0, r0, cr7, cr11, {1}
    1938:	e080000c 	add	r0, r0, ip
    193c:	ee075f3b 	mcr	15, 0, r5, cr7, cr11, {1}
    1940:	e085500c 	add	r5, r5, ip
    1944:	ee075f3b 	mcr	15, 0, r5, cr7, cr11, {1}
    1948:	e085500c 	add	r5, r5, ip
    194c:	e1510000 	cmp	r1, r0
    1950:	8afffff7 	bhi	1934 <cacheflushloopjittable>
    1954:	f57ff04f 	dsb	sy
    1958:	f57ff06f 	isb	sy
    195c:	e3a0c000 	mov	ip, #0
    1960:	ee07cf15 	mcr	15, 0, ip, cr7, cr5, {0}
    1964:	f57ff04f 	dsb	sy
    1968:	f57ff06f 	isb	sy
    196c:	e3a00801 	mov	r0, #65536	; 0x10000
    1970:	e15000b4 	ldrh	r0, [r0, #-4]
    1974:	e2869e1f 	add	r9, r6, #496	; 0x1f0
    1978:	e3a07000 	mov	r7, #0
    197c:	e1a00180 	lsl	r0, r0, #3
    1980:	e280040d 	add	r0, r0, #218103808	; 0xd000000
    1984:	e3a056d1 	mov	r5, #219152384	; 0xd100000
    1988:	e12fff10 	bx	r0

0000198c <reset_handler>:
    198c:	f10c00c0 	cpsid	if
    1990:	e8bd0007 	pop	{r0, r1, r2}
    1994:	e58f003c 	str	r0, [pc, #60]	; 19d8 <fiq_spsr_temp>
    1998:	e58f1034 	str	r1, [pc, #52]	; 19d4 <fiq_lr_temp>
    199c:	e128f002 	msr	CPSR_f, r2
    19a0:	e8bd5fff 	pop	{r0, r1, r2, r3, r4, r5, r6, r7, r8, r9, sl, fp, ip, lr}
    19a4:	f10800c0 	cpsie	if

000019a8 <exec_65tube_exit>:
    19a8:	e59fc00c 	ldr	ip, [pc, #12]	; 19bc <exec_65tube_exit+0x14>
    19ac:	e59f001c 	ldr	r0, [pc, #28]	; 19d0 <old_fiq_vector>
    19b0:	e58c0000 	str	r0, [ip]
    19b4:	e59fd020 	ldr	sp, [pc, #32]	; 19dc <stackptr>
    19b8:	e8bd8ff0 	pop	{r4, r5, r6, r7, r8, r9, sl, fp, pc}
    19bc:	00000000 	.word	0x00000000
    19c0:	00001a00 	.word	0x00001a00
    19c4:	f3001f34 	.word	0xf3001f34
    19c8:	e12fff1e 	.word	0xe12fff1e

000019cc <debugflag>:
    19cc:	00000000 	.word	0x00000000

000019d0 <old_fiq_vector>:
    19d0:	00000000 	.word	0x00000000

000019d4 <fiq_lr_temp>:
    19d4:	00000000 	.word	0x00000000

000019d8 <fiq_spsr_temp>:
    19d8:	00000000 	.word	0x00000000

000019dc <stackptr>:
    19dc:	00000000 	.word	0x00000000

000019e0 <cacheline>:
    19e0:	00000000 	.word	0x00000000

000019e4 <ram6502store>:
    19e4:	00000000 	.word	0x00000000
    19e8:	e320f000 	nop	{0}
    19ec:	e320f000 	nop	{0}
    19f0:	e320f000 	nop	{0}
    19f4:	e320f000 	nop	{0}
    19f8:	e320f000 	nop	{0}
    19fc:	e320f000 	nop	{0}

00001a00 <arm_fiq_handler_jit>:
    1a00:	e59fc1d4 	ldr	ip, [pc, #468]	; 1bdc <handle_nmi+0x5c>
    1a04:	e59fa1d4 	ldr	sl, [pc, #468]	; 1be0 <handle_nmi+0x60>
    1a08:	e59fb1d4 	ldr	fp, [pc, #468]	; 1be4 <handle_nmi+0x64>
    1a0c:	e92d400f 	push	{r0, r1, r2, r3, lr}
    1a10:	e59c0000 	ldr	r0, [ip]
    1a14:	e59b0000 	ldr	r0, [fp]
    1a18:	ebfffffe 	bl	0 <tube_io_handler>
    1a1c:	e59ac000 	ldr	ip, [sl]
    1a20:	e8bd400f 	pop	{r0, r1, r2, r3, lr}
    1a24:	e31c0007 	tst	ip, #7
    1a28:	025ef004 	subseq	pc, lr, #4
    1a2c:	e50fe060 	str	lr, [pc, #-96]	; 19d4 <fiq_lr_temp>
    1a30:	e14fc000 	mrs	ip, SPSR
    1a34:	e50fc064 	str	ip, [pc, #-100]	; 19d8 <fiq_spsr_temp>
    1a38:	e321f0d3 	msr	CPSR_c, #211	; 0xd3
    1a3c:	e92d5fff 	push	{r0, r1, r2, r3, r4, r5, r6, r7, r8, r9, sl, fp, ip, lr}
    1a40:	e51f0070 	ldr	r0, [pc, #-112]	; 19d8 <fiq_spsr_temp>
    1a44:	e51f1078 	ldr	r1, [pc, #-120]	; 19d4 <fiq_lr_temp>
    1a48:	e10f2000 	mrs	r2, CPSR
    1a4c:	e92d0007 	push	{r0, r1, r2}
    1a50:	e1a01009 	mov	r1, r9
    1a54:	e200001f 	and	r0, r0, #31
    1a58:	e3500012 	cmp	r0, #18
    1a5c:	059f0184 	ldreq	r0, [pc, #388]	; 1be8 <handle_nmi+0x68>
    1a60:	05901000 	ldreq	r1, [r0]
    1a64:	e3510000 	cmp	r1, #0
    1a68:	11a09001 	movne	r9, r1
    1a6c:	e3a056d1 	mov	r5, #219152384	; 0xd100000
    1a70:	e51f6094 	ldr	r6, [pc, #-148]	; 19e4 <ram6502store>
    1a74:	e59f1164 	ldr	r1, [pc, #356]	; 1be0 <handle_nmi+0x60>
    1a78:	e5910000 	ldr	r0, [r1]
    1a7c:	e3100004 	tst	r0, #4
    1a80:	1affffc1 	bne	198c <reset_handler>
    1a84:	e3100002 	tst	r0, #2
    1a88:	1a00003c 	bne	1b80 <handle_nmi>
    1a8c:	e3170004 	tst	r7, #4
    1a90:	1a000001 	bne	1a9c <noirq>
    1a94:	e3100001 	tst	r0, #1
    1a98:	1a000024 	bne	1b30 <handle_irq_fake>

00001a9c <noirq>:
    1a9c:	e8bd0007 	pop	{r0, r1, r2}
    1aa0:	e50f00d0 	str	r0, [pc, #-208]	; 19d8 <fiq_spsr_temp>
    1aa4:	e50f10d8 	str	r1, [pc, #-216]	; 19d4 <fiq_lr_temp>
    1aa8:	e128f002 	msr	CPSR_f, r2
    1aac:	e8bd5fff 	pop	{r0, r1, r2, r3, r4, r5, r6, r7, r8, r9, sl, fp, ip, lr}
    1ab0:	e321f0d1 	msr	CPSR_c, #209	; 0xd1
    1ab4:	e51fc0e4 	ldr	ip, [pc, #-228]	; 19d8 <fiq_spsr_temp>
    1ab8:	e51fe0ec 	ldr	lr, [pc, #-236]	; 19d4 <fiq_lr_temp>
    1abc:	e169f00c 	msr	SPSR_fc, ip
    1ac0:	e25ef004 	subs	pc, lr, #4

00001ac4 <CHECK_IRQ>:
    1ac4:	e59f0114 	ldr	r0, [pc, #276]	; 1be0 <handle_nmi+0x60>
    1ac8:	e5900000 	ldr	r0, [r0]
    1acc:	e3170004 	tst	r7, #4
    1ad0:	02200001 	eoreq	r0, r0, #1
    1ad4:	03100001 	tsteq	r0, #1
    1ad8:	0a000003 	beq	1aec <handle_irq>
    1adc:	e128f00c 	msr	CPSR_f, ip
    1ae0:	e1a01181 	lsl	r1, r1, #3
    1ae4:	e281140d 	add	r1, r1, #218103808	; 0xd000000
    1ae8:	e12fff11 	bx	r1

00001aec <handle_irq>:
    1aec:	e128f00c 	msr	CPSR_f, ip
    1af0:	e2499002 	sub	r9, r9, #2
    1af4:	e3a0c801 	mov	ip, #65536	; 0x10000
    1af8:	e1c910b1 	strh	r1, [r9, #1]
    1afc:	e3899c01 	orr	r9, r9, #256	; 0x100
    1b00:	e15c00b2 	ldrh	r0, [ip, #-2]
    1b04:	e387c020 	orr	ip, r7, #32
    1b08:	438cc080 	orrmi	ip, ip, #128	; 0x80
    1b0c:	238cc001 	orrcs	ip, ip, #1
    1b10:	038cc002 	orreq	ip, ip, #2
    1b14:	e449c001 	strb	ip, [r9], #-1
    1b18:	e3899c01 	orr	r9, r9, #256	; 0x100
    1b1c:	e3877004 	orr	r7, r7, #4
    1b20:	e3c77008 	bic	r7, r7, #8
    1b24:	e1a00180 	lsl	r0, r0, #3
    1b28:	e280040d 	add	r0, r0, #218103808	; 0xd000000
    1b2c:	e12fff10 	bx	r0

00001b30 <handle_irq_fake>:
    1b30:	e128f002 	msr	CPSR_f, r2
    1b34:	e2499002 	sub	r9, r9, #2
    1b38:	e3a0c801 	mov	ip, #65536	; 0x10000
    1b3c:	e3a010ff 	mov	r1, #255	; 0xff
    1b40:	e3811cff 	orr	r1, r1, #65280	; 0xff00
    1b44:	e1c910b1 	strh	r1, [r9, #1]
    1b48:	e3899c01 	orr	r9, r9, #256	; 0x100
    1b4c:	e15c00b2 	ldrh	r0, [ip, #-2]
    1b50:	e387c020 	orr	ip, r7, #32
    1b54:	438cc080 	orrmi	ip, ip, #128	; 0x80
    1b58:	238cc001 	orrcs	ip, ip, #1
    1b5c:	038cc002 	orreq	ip, ip, #2
    1b60:	e449c001 	strb	ip, [r9], #-1
    1b64:	e3899c01 	orr	r9, r9, #256	; 0x100
    1b68:	e3877004 	orr	r7, r7, #4
    1b6c:	e3c77008 	bic	r7, r7, #8
    1b70:	e1a00180 	lsl	r0, r0, #3
    1b74:	e280040d 	add	r0, r0, #218103808	; 0xd000000
    1b78:	f1080040 	cpsie	f
    1b7c:	e12fff10 	bx	r0

00001b80 <handle_nmi>:
    1b80:	e5910000 	ldr	r0, [r1]
    1b84:	e3c00002 	bic	r0, r0, #2
    1b88:	e5810000 	str	r0, [r1]
    1b8c:	e128f002 	msr	CPSR_f, r2
    1b90:	e2499002 	sub	r9, r9, #2
    1b94:	e3a0c801 	mov	ip, #65536	; 0x10000
    1b98:	e3a010ff 	mov	r1, #255	; 0xff
    1b9c:	e3811cff 	orr	r1, r1, #65280	; 0xff00
    1ba0:	e1c910b1 	strh	r1, [r9, #1]
    1ba4:	e3899c01 	orr	r9, r9, #256	; 0x100
    1ba8:	e15c00b6 	ldrh	r0, [ip, #-6]
    1bac:	e387c020 	orr	ip, r7, #32
    1bb0:	438cc080 	orrmi	ip, ip, #128	; 0x80
    1bb4:	238cc001 	orrcs	ip, ip, #1
    1bb8:	038cc002 	orreq	ip, ip, #2
    1bbc:	e449c001 	strb	ip, [r9], #-1
    1bc0:	e3899c01 	orr	r9, r9, #256	; 0x100
    1bc4:	e3877004 	orr	r7, r7, #4
    1bc8:	e3c77008 	bic	r7, r7, #8
    1bcc:	e1a00180 	lsl	r0, r0, #3
    1bd0:	e280040d 	add	r0, r0, #218103808	; 0xd000000
    1bd4:	f1080040 	cpsie	f
    1bd8:	e12fff10 	bx	r0
    1bdc:	3f00b844 	.word	0x3f00b844
    1be0:	00000000 	.word	0x00000000
    1be4:	3f20c014 	.word	0x3f20c014
    1be8:	00000000 	.word	0x00000000

00001bec <dejit16bit1>:
    1bec:	e59f2eb4 	ldr	r2, [pc, #3764]	; 2aa8 <decimal_mode_sbc+0x2c>
    1bf0:	e59f0eb4 	ldr	r0, [pc, #3764]	; 2aac <decimal_mode_sbc+0x30>
    1bf4:	e3a0c40d 	mov	ip, #218103808	; 0xd000000
    1bf8:	e0422181 	sub	r2, r2, r1, lsl #3
    1bfc:	e3a03000 	mov	r3, #0
    1c00:	e1a02122 	lsr	r2, r2, #2
    1c04:	e28224eb 	add	r2, r2, #-352321536	; 0xeb000000
    1c08:	e7ac2181 	str	r2, [ip, r1, lsl #3]!
    1c0c:	ee07cf3b 	mcr	15, 0, ip, cr7, cr11, {1}
    1c10:	f57ff04f 	dsb	sy
    1c14:	ee07cf35 	mcr	15, 0, ip, cr7, cr5, {1}
    1c18:	ee07cff5 	mcr	15, 0, ip, cr7, cr5, {7}
    1c1c:	f57ff04f 	dsb	sy
    1c20:	e3a0c6d1 	mov	ip, #219152384	; 0xd100000
    1c24:	e7ac0101 	str	r0, [ip, r1, lsl #2]!
    1c28:	ee07cf3b 	mcr	15, 0, ip, cr7, cr11, {1}
    1c2c:	f57ff04f 	dsb	sy
    1c30:	ee07cf35 	mcr	15, 0, ip, cr7, cr5, {1}
    1c34:	ee07cff5 	mcr	15, 0, ip, cr7, cr5, {7}
    1c38:	f57ff04f 	dsb	sy
    1c3c:	f57ff06f 	isb	sy
    1c40:	e12fff1e 	bx	lr

00001c44 <dejit16bit21>:
    1c44:	e59f2e5c 	ldr	r2, [pc, #3676]	; 2aa8 <decimal_mode_sbc+0x2c>
    1c48:	e59f0e5c 	ldr	r0, [pc, #3676]	; 2aac <decimal_mode_sbc+0x30>
    1c4c:	e3a0c40d 	mov	ip, #218103808	; 0xd000000
    1c50:	e0422181 	sub	r2, r2, r1, lsl #3
    1c54:	e3a03000 	mov	r3, #0
    1c58:	e1a02122 	lsr	r2, r2, #2
    1c5c:	e28224eb 	add	r2, r2, #-352321536	; 0xeb000000
    1c60:	e7ac2181 	str	r2, [ip, r1, lsl #3]!
    1c64:	ee07cf3b 	mcr	15, 0, ip, cr7, cr11, {1}
    1c68:	f57ff04f 	dsb	sy
    1c6c:	ee07cf35 	mcr	15, 0, ip, cr7, cr5, {1}
    1c70:	ee07cff5 	mcr	15, 0, ip, cr7, cr5, {7}
    1c74:	f57ff04f 	dsb	sy
    1c78:	e2422002 	sub	r2, r2, #2
    1c7c:	e5ac2008 	str	r2, [ip, #8]!
    1c80:	ee07cf3b 	mcr	15, 0, ip, cr7, cr11, {1}
    1c84:	f57ff04f 	dsb	sy
    1c88:	ee07cf35 	mcr	15, 0, ip, cr7, cr5, {1}
    1c8c:	ee07cff5 	mcr	15, 0, ip, cr7, cr5, {7}
    1c90:	f57ff04f 	dsb	sy
    1c94:	e3a0c6d1 	mov	ip, #219152384	; 0xd100000
    1c98:	e7ac0101 	str	r0, [ip, r1, lsl #2]!
    1c9c:	ee07cf3b 	mcr	15, 0, ip, cr7, cr11, {1}
    1ca0:	f57ff04f 	dsb	sy
    1ca4:	ee07cf35 	mcr	15, 0, ip, cr7, cr5, {1}
    1ca8:	ee07cff5 	mcr	15, 0, ip, cr7, cr5, {7}
    1cac:	f57ff04f 	dsb	sy
    1cb0:	e5ac0004 	str	r0, [ip, #4]!
    1cb4:	ee07cf3b 	mcr	15, 0, ip, cr7, cr11, {1}
    1cb8:	f57ff04f 	dsb	sy
    1cbc:	ee07cf35 	mcr	15, 0, ip, cr7, cr5, {1}
    1cc0:	ee07cff5 	mcr	15, 0, ip, cr7, cr5, {7}
    1cc4:	f57ff04f 	dsb	sy
    1cc8:	f57ff06f 	isb	sy
    1ccc:	e12fff1e 	bx	lr

00001cd0 <dejit16bit22>:
    1cd0:	e59f2dd0 	ldr	r2, [pc, #3536]	; 2aa8 <decimal_mode_sbc+0x2c>
    1cd4:	e59f0dd0 	ldr	r0, [pc, #3536]	; 2aac <decimal_mode_sbc+0x30>
    1cd8:	e3a0c40d 	mov	ip, #218103808	; 0xd000000
    1cdc:	e0422181 	sub	r2, r2, r1, lsl #3
    1ce0:	e3a03000 	mov	r3, #0
    1ce4:	e1a02122 	lsr	r2, r2, #2
    1ce8:	e28224eb 	add	r2, r2, #-352321536	; 0xeb000000
    1cec:	e7ac2181 	str	r2, [ip, r1, lsl #3]!
    1cf0:	ee07cf3b 	mcr	15, 0, ip, cr7, cr11, {1}
    1cf4:	f57ff04f 	dsb	sy
    1cf8:	ee07cf35 	mcr	15, 0, ip, cr7, cr5, {1}
    1cfc:	ee07cff5 	mcr	15, 0, ip, cr7, cr5, {7}
    1d00:	f57ff04f 	dsb	sy
    1d04:	e2822002 	add	r2, r2, #2
    1d08:	e52c2008 	str	r2, [ip, #-8]!
    1d0c:	ee07cf3b 	mcr	15, 0, ip, cr7, cr11, {1}
    1d10:	f57ff04f 	dsb	sy
    1d14:	ee07cf35 	mcr	15, 0, ip, cr7, cr5, {1}
    1d18:	ee07cff5 	mcr	15, 0, ip, cr7, cr5, {7}
    1d1c:	f57ff04f 	dsb	sy
    1d20:	e3a0c6d1 	mov	ip, #219152384	; 0xd100000
    1d24:	e7ac0101 	str	r0, [ip, r1, lsl #2]!
    1d28:	ee07cf3b 	mcr	15, 0, ip, cr7, cr11, {1}
    1d2c:	f57ff04f 	dsb	sy
    1d30:	ee07cf35 	mcr	15, 0, ip, cr7, cr5, {1}
    1d34:	ee07cff5 	mcr	15, 0, ip, cr7, cr5, {7}
    1d38:	f57ff04f 	dsb	sy
    1d3c:	e52c0004 	str	r0, [ip, #-4]!
    1d40:	ee07cf3b 	mcr	15, 0, ip, cr7, cr11, {1}
    1d44:	f57ff04f 	dsb	sy
    1d48:	ee07cf35 	mcr	15, 0, ip, cr7, cr5, {1}
    1d4c:	ee07cff5 	mcr	15, 0, ip, cr7, cr5, {7}
    1d50:	f57ff04f 	dsb	sy
    1d54:	f57ff06f 	isb	sy
    1d58:	e12fff1e 	bx	lr

00001d5c <dejit16bit31>:
    1d5c:	e59f2d44 	ldr	r2, [pc, #3396]	; 2aa8 <decimal_mode_sbc+0x2c>
    1d60:	e59f0d44 	ldr	r0, [pc, #3396]	; 2aac <decimal_mode_sbc+0x30>
    1d64:	e3a0c40d 	mov	ip, #218103808	; 0xd000000
    1d68:	e0422181 	sub	r2, r2, r1, lsl #3
    1d6c:	e3a03000 	mov	r3, #0
    1d70:	e1a02122 	lsr	r2, r2, #2
    1d74:	e28224eb 	add	r2, r2, #-352321536	; 0xeb000000
    1d78:	e7ac2181 	str	r2, [ip, r1, lsl #3]!
    1d7c:	ee07cf3b 	mcr	15, 0, ip, cr7, cr11, {1}
    1d80:	f57ff04f 	dsb	sy
    1d84:	ee07cf35 	mcr	15, 0, ip, cr7, cr5, {1}
    1d88:	ee07cff5 	mcr	15, 0, ip, cr7, cr5, {7}
    1d8c:	f57ff04f 	dsb	sy
    1d90:	e2422002 	sub	r2, r2, #2
    1d94:	e5ac2008 	str	r2, [ip, #8]!
    1d98:	ee07cff5 	mcr	15, 0, ip, cr7, cr5, {7}
    1d9c:	e2422002 	sub	r2, r2, #2
    1da0:	e5ac2008 	str	r2, [ip, #8]!
    1da4:	ee07cf3b 	mcr	15, 0, ip, cr7, cr11, {1}
    1da8:	f57ff04f 	dsb	sy
    1dac:	ee07cf35 	mcr	15, 0, ip, cr7, cr5, {1}
    1db0:	ee07cff5 	mcr	15, 0, ip, cr7, cr5, {7}
    1db4:	f57ff04f 	dsb	sy
    1db8:	e3a0c6d1 	mov	ip, #219152384	; 0xd100000
    1dbc:	e7ac0101 	str	r0, [ip, r1, lsl #2]!
    1dc0:	ee07cf3b 	mcr	15, 0, ip, cr7, cr11, {1}
    1dc4:	f57ff04f 	dsb	sy
    1dc8:	ee07cf35 	mcr	15, 0, ip, cr7, cr5, {1}
    1dcc:	ee07cff5 	mcr	15, 0, ip, cr7, cr5, {7}
    1dd0:	f57ff04f 	dsb	sy
    1dd4:	e5ac0004 	str	r0, [ip, #4]!
    1dd8:	ee07cff5 	mcr	15, 0, ip, cr7, cr5, {7}
    1ddc:	e5ac0004 	str	r0, [ip, #4]!
    1de0:	ee07cf3b 	mcr	15, 0, ip, cr7, cr11, {1}
    1de4:	f57ff04f 	dsb	sy
    1de8:	ee07cf35 	mcr	15, 0, ip, cr7, cr5, {1}
    1dec:	ee07cff5 	mcr	15, 0, ip, cr7, cr5, {7}
    1df0:	f57ff04f 	dsb	sy
    1df4:	f57ff06f 	isb	sy
    1df8:	e12fff1e 	bx	lr

00001dfc <dejit16bit32>:
    1dfc:	e59f2ca4 	ldr	r2, [pc, #3236]	; 2aa8 <decimal_mode_sbc+0x2c>
    1e00:	e59f0ca4 	ldr	r0, [pc, #3236]	; 2aac <decimal_mode_sbc+0x30>
    1e04:	e3a0c40d 	mov	ip, #218103808	; 0xd000000
    1e08:	e0422181 	sub	r2, r2, r1, lsl #3
    1e0c:	e3a03000 	mov	r3, #0
    1e10:	e1a02122 	lsr	r2, r2, #2
    1e14:	e28224eb 	add	r2, r2, #-352321536	; 0xeb000000
    1e18:	e7ac2181 	str	r2, [ip, r1, lsl #3]!
    1e1c:	ee07cff5 	mcr	15, 0, ip, cr7, cr5, {7}
    1e20:	e2822002 	add	r2, r2, #2
    1e24:	e52c2008 	str	r2, [ip, #-8]!
    1e28:	ee07cf3b 	mcr	15, 0, ip, cr7, cr11, {1}
    1e2c:	f57ff04f 	dsb	sy
    1e30:	ee07cf35 	mcr	15, 0, ip, cr7, cr5, {1}
    1e34:	ee07cff5 	mcr	15, 0, ip, cr7, cr5, {7}
    1e38:	f57ff04f 	dsb	sy
    1e3c:	e2422004 	sub	r2, r2, #4
    1e40:	e5ac2010 	str	r2, [ip, #16]!
    1e44:	ee07cf3b 	mcr	15, 0, ip, cr7, cr11, {1}
    1e48:	f57ff04f 	dsb	sy
    1e4c:	ee07cf35 	mcr	15, 0, ip, cr7, cr5, {1}
    1e50:	ee07cff5 	mcr	15, 0, ip, cr7, cr5, {7}
    1e54:	f57ff04f 	dsb	sy
    1e58:	e3a0c6d1 	mov	ip, #219152384	; 0xd100000
    1e5c:	e7ac0101 	str	r0, [ip, r1, lsl #2]!
    1e60:	ee07cff5 	mcr	15, 0, ip, cr7, cr5, {7}
    1e64:	e52c0004 	str	r0, [ip, #-4]!
    1e68:	ee07cf3b 	mcr	15, 0, ip, cr7, cr11, {1}
    1e6c:	f57ff04f 	dsb	sy
    1e70:	ee07cf35 	mcr	15, 0, ip, cr7, cr5, {1}
    1e74:	ee07cff5 	mcr	15, 0, ip, cr7, cr5, {7}
    1e78:	f57ff04f 	dsb	sy
    1e7c:	e5ac0008 	str	r0, [ip, #8]!
    1e80:	ee07cf3b 	mcr	15, 0, ip, cr7, cr11, {1}
    1e84:	f57ff04f 	dsb	sy
    1e88:	ee07cf35 	mcr	15, 0, ip, cr7, cr5, {1}
    1e8c:	ee07cff5 	mcr	15, 0, ip, cr7, cr5, {7}
    1e90:	f57ff04f 	dsb	sy
    1e94:	f57ff06f 	isb	sy
    1e98:	e12fff1e 	bx	lr

00001e9c <dejit16bit33>:
    1e9c:	e59f2c04 	ldr	r2, [pc, #3076]	; 2aa8 <decimal_mode_sbc+0x2c>
    1ea0:	e59f0c04 	ldr	r0, [pc, #3076]	; 2aac <decimal_mode_sbc+0x30>
    1ea4:	e3a0c40d 	mov	ip, #218103808	; 0xd000000
    1ea8:	e0422181 	sub	r2, r2, r1, lsl #3
    1eac:	e3a03000 	mov	r3, #0
    1eb0:	e1a02122 	lsr	r2, r2, #2
    1eb4:	e28224eb 	add	r2, r2, #-352321536	; 0xeb000000
    1eb8:	e7ac2181 	str	r2, [ip, r1, lsl #3]!
    1ebc:	ee07cf3b 	mcr	15, 0, ip, cr7, cr11, {1}
    1ec0:	f57ff04f 	dsb	sy
    1ec4:	ee07cf35 	mcr	15, 0, ip, cr7, cr5, {1}
    1ec8:	ee07cff5 	mcr	15, 0, ip, cr7, cr5, {7}
    1ecc:	f57ff04f 	dsb	sy
    1ed0:	e2822002 	add	r2, r2, #2
    1ed4:	e52c2008 	str	r2, [ip, #-8]!
    1ed8:	ee07cff5 	mcr	15, 0, ip, cr7, cr5, {7}
    1edc:	e2822002 	add	r2, r2, #2
    1ee0:	e52c2008 	str	r2, [ip, #-8]!
    1ee4:	ee07cf3b 	mcr	15, 0, ip, cr7, cr11, {1}
    1ee8:	f57ff04f 	dsb	sy
    1eec:	ee07cf35 	mcr	15, 0, ip, cr7, cr5, {1}
    1ef0:	ee07cff5 	mcr	15, 0, ip, cr7, cr5, {7}
    1ef4:	f57ff04f 	dsb	sy
    1ef8:	e3a0c6d1 	mov	ip, #219152384	; 0xd100000
    1efc:	e7ac0101 	str	r0, [ip, r1, lsl #2]!
    1f00:	ee07cf3b 	mcr	15, 0, ip, cr7, cr11, {1}
    1f04:	f57ff04f 	dsb	sy
    1f08:	ee07cf35 	mcr	15, 0, ip, cr7, cr5, {1}
    1f0c:	ee07cff5 	mcr	15, 0, ip, cr7, cr5, {7}
    1f10:	f57ff04f 	dsb	sy
    1f14:	e52c0004 	str	r0, [ip, #-4]!
    1f18:	ee07cff5 	mcr	15, 0, ip, cr7, cr5, {7}
    1f1c:	e52c0004 	str	r0, [ip, #-4]!
    1f20:	ee07cf3b 	mcr	15, 0, ip, cr7, cr11, {1}
    1f24:	f57ff04f 	dsb	sy
    1f28:	ee07cf35 	mcr	15, 0, ip, cr7, cr5, {1}
    1f2c:	ee07cff5 	mcr	15, 0, ip, cr7, cr5, {7}
    1f30:	f57ff04f 	dsb	sy
    1f34:	f57ff06f 	isb	sy
    1f38:	e12fff1e 	bx	lr

00001f3c <dojit>:
    1f3c:	e10f4000 	mrs	r4, CPSR
    1f40:	f10c00c0 	cpsid	if
    1f44:	e24ee004 	sub	lr, lr, #4
    1f48:	e92d5fff 	push	{r0, r1, r2, r3, r4, r5, r6, r7, r8, r9, sl, fp, ip, lr}
    1f4c:	e59f8b5c 	ldr	r8, [pc, #2908]	; 2ab0 <decimal_mode_sbc+0x34>
    1f50:	e3a07601 	mov	r7, #1048576	; 0x100000
    1f54:	e5887000 	str	r7, [r8]
    1f58:	e24e240d 	sub	r2, lr, #218103808	; 0xd000000
    1f5c:	e1a0300e 	mov	r3, lr
    1f60:	e1a021a2 	lsr	r2, r2, #3
    1f64:	ea00001b 	b	1fd8 <dojitloop>

00001f68 <jitend2byteBL8>:
    1f68:	e8910f00 	ldm	r1, {r8, r9, sl, fp}
    1f6c:	e1a0a12a 	lsr	sl, sl, #2
    1f70:	e04aa126 	sub	sl, sl, r6, lsr #2
    1f74:	e38aa4eb 	orr	sl, sl, #-352321536	; 0xeb000000
    1f78:	ea00000f 	b	1fbc <jitend2bytestore4operand>

00001f7c <jitendT2byte>:
    1f7c:	e8910f00 	ldm	r1, {r8, r9, sl, fp}
    1f80:	e20410f0 	and	r1, r4, #240	; 0xf0
    1f84:	e204400f 	and	r4, r4, #15
    1f88:	e1888201 	orr	r8, r8, r1, lsl #4
    1f8c:	ea000000 	b	1f94 <jitend2byteBLendoperand>

00001f90 <jitend2byteBLend>:
    1f90:	e8910f00 	ldm	r1, {r8, r9, sl, fp}

00001f94 <jitend2byteBLendoperand>:
    1f94:	e1888004 	orr	r8, r8, r4

00001f98 <jitend2byteBLendstore>:
    1f98:	e1a0b12b 	lsr	fp, fp, #2
    1f9c:	e04bb126 	sub	fp, fp, r6, lsr #2
    1fa0:	e38bb4eb 	orr	fp, fp, #-352321536	; 0xeb000000
    1fa4:	ea000005 	b	1fc0 <jitend2bytestore4>

00001fa8 <doublebyteendsettwobytes12>:
    1fa8:	e8910f00 	ldm	r1, {r8, r9, sl, fp}
    1fac:	e1888004 	orr	r8, r8, r4
    1fb0:	e18bb004 	orr	fp, fp, r4
    1fb4:	ea000001 	b	1fc0 <jitend2bytestore4>

00001fb8 <doublebyteend>:
    1fb8:	e8910f00 	ldm	r1, {r8, r9, sl, fp}

00001fbc <jitend2bytestore4operand>:
    1fbc:	e1888004 	orr	r8, r8, r4

00001fc0 <jitend2bytestore4>:
    1fc0:	e8860f00 	stm	r6, {r8, r9, sl, fp}

00001fc4 <jitend2byte>:
    1fc4:	e59f0ae8 	ldr	r0, [pc, #2792]	; 2ab4 <decimal_mode_sbc+0x38>
    1fc8:	eb00016b 	bl	257c <fillinjittedtable>
    1fcc:	e2800022 	add	r0, r0, #34	; 0x22
    1fd0:	e2822002 	add	r2, r2, #2
    1fd4:	e5810004 	str	r0, [r1, #4]

00001fd8 <dojitloop>:
    1fd8:	e5d27000 	ldrb	r7, [r2]
    1fdc:	e1a06182 	lsl	r6, r2, #3
    1fe0:	e28f0010 	add	r0, pc, #16
    1fe4:	e286640d 	add	r6, r6, #218103808	; 0xd000000
    1fe8:	e7900107 	ldr	r0, [r0, r7, lsl #2]
    1fec:	e5d24001 	ldrb	r4, [r2, #1]
    1ff0:	e5d25002 	ldrb	r5, [r2, #2]
    1ff4:	e12fff10 	bx	r0

00001ff8 <opcode_table>:
    1ff8:	00000408 	.word	0x00000408
    1ffc:	0000042c 	.word	0x0000042c
    2000:	0000000c 	.word	0x0000000c
    2004:	00000000 	.word	0x00000000
    2008:	00000434 	.word	0x00000434
    200c:	0000043c 	.word	0x0000043c
    2010:	00000444 	.word	0x00000444
    2014:	00000458 	.word	0x00000458
    2018:	00000110 	.word	0x00000110
    201c:	00000460 	.word	0x00000460
    2020:	00000118 	.word	0x00000118
    2024:	00000000 	.word	0x00000000
    2028:	0000047c 	.word	0x0000047c
    202c:	00000484 	.word	0x00000484
    2030:	00000490 	.word	0x00000490
    2034:	00000498 	.word	0x00000498
    2038:	00000044 	.word	0x00000044
    203c:	000004a0 	.word	0x000004a0
    2040:	000004a8 	.word	0x000004a8
    2044:	00000000 	.word	0x00000000
    2048:	000004b0 	.word	0x000004b0
    204c:	000004b8 	.word	0x000004b8
    2050:	000004c0 	.word	0x000004c0
    2054:	000004c8 	.word	0x000004c8
    2058:	000003e0 	.word	0x000003e0
    205c:	000004d0 	.word	0x000004d0
    2060:	00000120 	.word	0x00000120
    2064:	00000000 	.word	0x00000000
    2068:	000004d8 	.word	0x000004d8
    206c:	000004e0 	.word	0x000004e0
    2070:	000004e8 	.word	0x000004e8
    2074:	000004f0 	.word	0x000004f0
    2078:	000004f8 	.word	0x000004f8
    207c:	0000051c 	.word	0x0000051c
    2080:	0000000c 	.word	0x0000000c
    2084:	00000000 	.word	0x00000000
    2088:	00000524 	.word	0x00000524
    208c:	0000052c 	.word	0x0000052c
    2090:	00000534 	.word	0x00000534
    2094:	00000548 	.word	0x00000548
    2098:	00000128 	.word	0x00000128
    209c:	00000550 	.word	0x00000550
    20a0:	00000130 	.word	0x00000130
    20a4:	00000000 	.word	0x00000000
    20a8:	0000056c 	.word	0x0000056c
    20ac:	000005cc 	.word	0x000005cc
    20b0:	000005d8 	.word	0x000005d8
    20b4:	000005e0 	.word	0x000005e0
    20b8:	00000060 	.word	0x00000060
    20bc:	000005e8 	.word	0x000005e8
    20c0:	000005f0 	.word	0x000005f0
    20c4:	00000000 	.word	0x00000000
    20c8:	000005f8 	.word	0x000005f8
    20cc:	00000600 	.word	0x00000600
    20d0:	00000608 	.word	0x00000608
    20d4:	00000610 	.word	0x00000610
    20d8:	000003f4 	.word	0x000003f4
    20dc:	00000618 	.word	0x00000618
    20e0:	00000138 	.word	0x00000138
    20e4:	00000000 	.word	0x00000000
    20e8:	00000620 	.word	0x00000620
    20ec:	00000628 	.word	0x00000628
    20f0:	00000630 	.word	0x00000630
    20f4:	00000638 	.word	0x00000638
    20f8:	00000410 	.word	0x00000410
    20fc:	00000640 	.word	0x00000640
    2100:	0000000c 	.word	0x0000000c
    2104:	00000000 	.word	0x00000000
    2108:	0000000c 	.word	0x0000000c
    210c:	00000648 	.word	0x00000648
    2110:	00000650 	.word	0x00000650
    2114:	00000658 	.word	0x00000658
    2118:	00000140 	.word	0x00000140
    211c:	00000660 	.word	0x00000660
    2120:	00000148 	.word	0x00000148
    2124:	00000000 	.word	0x00000000
    2128:	0000067c 	.word	0x0000067c
    212c:	00000684 	.word	0x00000684
    2130:	00000690 	.word	0x00000690
    2134:	00000698 	.word	0x00000698
    2138:	000006a0 	.word	0x000006a0
    213c:	000006cc 	.word	0x000006cc
    2140:	000006d4 	.word	0x000006d4
    2144:	00000000 	.word	0x00000000
    2148:	0000000c 	.word	0x0000000c
    214c:	000006dc 	.word	0x000006dc
    2150:	000006e4 	.word	0x000006e4
    2154:	000006ec 	.word	0x000006ec
    2158:	00000150 	.word	0x00000150
    215c:	000006f4 	.word	0x000006f4
    2160:	00000158 	.word	0x00000158
    2164:	00000000 	.word	0x00000000
    2168:	00000028 	.word	0x00000028
    216c:	000006fc 	.word	0x000006fc
    2170:	00000704 	.word	0x00000704
    2174:	0000070c 	.word	0x0000070c
    2178:	00000418 	.word	0x00000418
    217c:	00000714 	.word	0x00000714
    2180:	0000000c 	.word	0x0000000c
    2184:	00000000 	.word	0x00000000
    2188:	0000071c 	.word	0x0000071c
    218c:	0000073c 	.word	0x0000073c
    2190:	00000ed4 	.word	0x00000ed4
    2194:	00000edc 	.word	0x00000edc
    2198:	00000160 	.word	0x00000160
    219c:	00000ee4 	.word	0x00000ee4
    21a0:	00000168 	.word	0x00000168
    21a4:	00000000 	.word	0x00000000
    21a8:	00000ef4 	.word	0x00000ef4
    21ac:	00000f00 	.word	0x00000f00
    21b0:	00000f10 	.word	0x00000f10
    21b4:	00000f18 	.word	0x00000f18
    21b8:	00000f20 	.word	0x00000f20
    21bc:	00000f4c 	.word	0x00000f4c
    21c0:	00000f5c 	.word	0x00000f5c
    21c4:	00000000 	.word	0x00000000
    21c8:	00000f6c 	.word	0x00000f6c
    21cc:	00000f74 	.word	0x00000f74
    21d0:	00000f7c 	.word	0x00000f7c
    21d4:	00000f8c 	.word	0x00000f8c
    21d8:	00000170 	.word	0x00000170
    21dc:	00000f94 	.word	0x00000f94
    21e0:	00000178 	.word	0x00000178
    21e4:	00000000 	.word	0x00000000
    21e8:	00000fa4 	.word	0x00000fa4
    21ec:	00000fb8 	.word	0x00000fb8
    21f0:	00000fc8 	.word	0x00000fc8
    21f4:	00000fd0 	.word	0x00000fd0
    21f8:	0000007c 	.word	0x0000007c
    21fc:	00001038 	.word	0x00001038
    2200:	0000000c 	.word	0x0000000c
    2204:	00000000 	.word	0x00000000
    2208:	00001058 	.word	0x00001058
    220c:	00001078 	.word	0x00001078
    2210:	00001098 	.word	0x00001098
    2214:	000010b8 	.word	0x000010b8
    2218:	00000180 	.word	0x00000180
    221c:	000010c0 	.word	0x000010c0
    2220:	00000188 	.word	0x00000188
    2224:	00000000 	.word	0x00000000
    2228:	000010d0 	.word	0x000010d0
    222c:	0000110c 	.word	0x0000110c
    2230:	00001148 	.word	0x00001148
    2234:	00001184 	.word	0x00001184
    2238:	00000098 	.word	0x00000098
    223c:	0000118c 	.word	0x0000118c
    2240:	00001194 	.word	0x00001194
    2244:	00000000 	.word	0x00000000
    2248:	0000119c 	.word	0x0000119c
    224c:	000011a4 	.word	0x000011a4
    2250:	000011ac 	.word	0x000011ac
    2254:	000011b4 	.word	0x000011b4
    2258:	00000190 	.word	0x00000190
    225c:	000011bc 	.word	0x000011bc
    2260:	00000198 	.word	0x00000198
    2264:	00000000 	.word	0x00000000
    2268:	000011c4 	.word	0x000011c4
    226c:	000011e8 	.word	0x000011e8
    2270:	000011f0 	.word	0x000011f0
    2274:	000011f8 	.word	0x000011f8
    2278:	00001200 	.word	0x00001200
    227c:	00001040 	.word	0x00001040
    2280:	00001208 	.word	0x00001208
    2284:	00000000 	.word	0x00000000
    2288:	00001210 	.word	0x00001210
    228c:	00001218 	.word	0x00001218
    2290:	00001220 	.word	0x00001220
    2294:	00001228 	.word	0x00001228
    2298:	000001a0 	.word	0x000001a0
    229c:	00001230 	.word	0x00001230
    22a0:	000001a8 	.word	0x000001a8
    22a4:	00000000 	.word	0x00000000
    22a8:	00001258 	.word	0x00001258
    22ac:	0000127c 	.word	0x0000127c
    22b0:	000012a4 	.word	0x000012a4
    22b4:	000012c8 	.word	0x000012c8
    22b8:	000000b4 	.word	0x000000b4
    22bc:	000012d0 	.word	0x000012d0
    22c0:	000012d8 	.word	0x000012d8
    22c4:	00000000 	.word	0x00000000
    22c8:	000012e0 	.word	0x000012e0
    22cc:	000012e8 	.word	0x000012e8
    22d0:	000012f0 	.word	0x000012f0
    22d4:	000012f8 	.word	0x000012f8
    22d8:	000001b0 	.word	0x000001b0
    22dc:	00001300 	.word	0x00001300
    22e0:	000001b8 	.word	0x000001b8
    22e4:	00000000 	.word	0x00000000
    22e8:	00001308 	.word	0x00001308
    22ec:	00001310 	.word	0x00001310
    22f0:	00001318 	.word	0x00001318
    22f4:	00001320 	.word	0x00001320
    22f8:	00001328 	.word	0x00001328
    22fc:	00001048 	.word	0x00001048
    2300:	0000000c 	.word	0x0000000c
    2304:	00000000 	.word	0x00000000
    2308:	00001330 	.word	0x00001330
    230c:	00001338 	.word	0x00001338
    2310:	00001340 	.word	0x00001340
    2314:	00001354 	.word	0x00001354
    2318:	000001c0 	.word	0x000001c0
    231c:	0000135c 	.word	0x0000135c
    2320:	000001c8 	.word	0x000001c8
    2324:	00000000 	.word	0x00000000
    2328:	00001364 	.word	0x00001364
    232c:	0000136c 	.word	0x0000136c
    2330:	00001374 	.word	0x00001374
    2334:	0000137c 	.word	0x0000137c
    2338:	000000d0 	.word	0x000000d0
    233c:	000017c0 	.word	0x000017c0
    2340:	000017c8 	.word	0x000017c8
    2344:	00000000 	.word	0x00000000
    2348:	0000000c 	.word	0x0000000c
    234c:	000017d0 	.word	0x000017d0
    2350:	000017d8 	.word	0x000017d8
    2354:	000017e0 	.word	0x000017e0
    2358:	000001d0 	.word	0x000001d0
    235c:	000017e8 	.word	0x000017e8
    2360:	000001d8 	.word	0x000001d8
    2364:	00000000 	.word	0x00000000
    2368:	00000028 	.word	0x00000028
    236c:	000017f0 	.word	0x000017f0
    2370:	000017f8 	.word	0x000017f8
    2374:	00001800 	.word	0x00001800
    2378:	00001808 	.word	0x00001808
    237c:	00001050 	.word	0x00001050
    2380:	0000000c 	.word	0x0000000c
    2384:	000001e0 	.word	0x000001e0
    2388:	00001810 	.word	0x00001810
    238c:	00000ecc 	.word	0x00000ecc
    2390:	00001818 	.word	0x00001818
    2394:	0000182c 	.word	0x0000182c
    2398:	000001e8 	.word	0x000001e8
    239c:	00000eec 	.word	0x00000eec
    23a0:	00000000 	.word	0x00000000
    23a4:	000001f0 	.word	0x000001f0
    23a8:	00001834 	.word	0x00001834
    23ac:	00000f08 	.word	0x00000f08
    23b0:	0000183c 	.word	0x0000183c
    23b4:	0000186c 	.word	0x0000186c
    23b8:	000000ec 	.word	0x000000ec
    23bc:	00000f54 	.word	0x00000f54
    23c0:	00000f64 	.word	0x00000f64
    23c4:	000001f8 	.word	0x000001f8
    23c8:	0000000c 	.word	0x0000000c
    23cc:	00000f84 	.word	0x00000f84
    23d0:	00001874 	.word	0x00001874
    23d4:	0000187c 	.word	0x0000187c
    23d8:	00000200 	.word	0x00000200
    23dc:	00000f9c 	.word	0x00000f9c
    23e0:	00000208 	.word	0x00000208
    23e4:	000003d8 	.word	0x000003d8
    23e8:	00000028 	.word	0x00000028
    23ec:	00000fc0 	.word	0x00000fc0
    23f0:	00001884 	.word	0x00001884
    23f4:	000018a4 	.word	0x000018a4

000023f8 <branchsavewords>:
    23f8:	e1c600f0 	strd	r0, [r6]
    23fc:	e5861008 	str	r1, [r6, #8]
    2400:	e586100c 	str	r1, [r6, #12]

00002404 <jitend2byteexit>:
    2404:	e59f06a8 	ldr	r0, [pc, #1704]	; 2ab4 <decimal_mode_sbc+0x38>
    2408:	eb00005b 	bl	257c <fillinjittedtable>
    240c:	e2800022 	add	r0, r0, #34	; 0x22
    2410:	e2822002 	add	r2, r2, #2
    2414:	e5810004 	str	r0, [r1, #4]

00002418 <dojitexit>:
    2418:	f57ff04f 	dsb	sy
    241c:	e51fca44 	ldr	ip, [pc, #-2628]	; 19e0 <cacheline>
    2420:	e1a02182 	lsl	r2, r2, #3
    2424:	e243440d 	sub	r4, r3, #218103808	; 0xd000000
    2428:	e282240d 	add	r2, r2, #218103808	; 0xd000000
    242c:	e1a040a4 	lsr	r4, r4, #1
    2430:	e28446d1 	add	r4, r4, #219152384	; 0xd100000
    2434:	e24c0001 	sub	r0, ip, #1
    2438:	e1c33000 	bic	r3, r3, r0
    243c:	e1c44000 	bic	r4, r4, r0

00002440 <cacheflushloop>:
    2440:	ee073f3b 	mcr	15, 0, r3, cr7, cr11, {1}
    2444:	ee073f35 	mcr	15, 0, r3, cr7, cr5, {1}
    2448:	e083300c 	add	r3, r3, ip
    244c:	ee073f3b 	mcr	15, 0, r3, cr7, cr11, {1}
    2450:	ee073f35 	mcr	15, 0, r3, cr7, cr5, {1}
    2454:	e083300c 	add	r3, r3, ip
    2458:	ee074f3b 	mcr	15, 0, r4, cr7, cr11, {1}
    245c:	ee074f35 	mcr	15, 0, r4, cr7, cr5, {1}
    2460:	e084400c 	add	r4, r4, ip
    2464:	e1520003 	cmp	r2, r3
    2468:	8afffff4 	bhi	2440 <cacheflushloop>
    246c:	f57ff04f 	dsb	sy
    2470:	e3a00000 	mov	r0, #0
    2474:	ee070fd5 	mcr	15, 0, r0, cr7, cr5, {6}
    2478:	f57ff04f 	dsb	sy
    247c:	f57ff06f 	isb	sy
    2480:	e8bd5fff 	pop	{r0, r1, r2, r3, r4, r5, r6, r7, r8, r9, sl, fp, ip, lr}
    2484:	e129f004 	msr	CPSR_fc, r4
    2488:	e12fff1e 	bx	lr

0000248c <singleopcodeexit>:
    248c:	e1a09129 	lsr	r9, r9, #2
    2490:	e0499126 	sub	r9, r9, r6, lsr #2
    2494:	e38994eb 	orr	r9, r9, #-352321536	; 0xeb000000

00002498 <singleopcodeexitstore>:
    2498:	e1c680f0 	strd	r8, [r6]
    249c:	e59f0614 	ldr	r0, [pc, #1556]	; 2ab8 <decimal_mode_sbc+0x3c>
    24a0:	eb000035 	bl	257c <fillinjittedtable>
    24a4:	e2822001 	add	r2, r2, #1
    24a8:	eaffffda 	b	2418 <dojitexit>

000024ac <singleopcodeBLend>:
    24ac:	e1a09129 	lsr	r9, r9, #2
    24b0:	e0499126 	sub	r9, r9, r6, lsr #2
    24b4:	e38994eb 	orr	r9, r9, #-352321536	; 0xeb000000

000024b8 <jitend1bytestore2>:
    24b8:	e1c680f0 	strd	r8, [r6]

000024bc <jitend1byte>:
    24bc:	e59f05f4 	ldr	r0, [pc, #1524]	; 2ab8 <decimal_mode_sbc+0x3c>
    24c0:	eb00002d 	bl	257c <fillinjittedtable>
    24c4:	e2822001 	add	r2, r2, #1
    24c8:	eafffec2 	b	1fd8 <dojitloop>

000024cc <jitend3byteloadstoreoperandBL8>:
    24cc:	e8911f80 	ldm	r1, {r7, r8, r9, sl, fp, ip}
    24d0:	e1877005 	orr	r7, r7, r5
    24d4:	e1888004 	orr	r8, r8, r4
    24d8:	e1a09129 	lsr	r9, r9, #2
    24dc:	e0499126 	sub	r9, r9, r6, lsr #2
    24e0:	e38994eb 	orr	r9, r9, #-352321536	; 0xeb000000
    24e4:	ea000009 	b	2510 <jitend3bytestore>

000024e8 <jitend3byteloadstoreoperandBL>:
    24e8:	e8911f80 	ldm	r1, {r7, r8, r9, sl, fp, ip}
    24ec:	e1877005 	orr	r7, r7, r5
    24f0:	e1888004 	orr	r8, r8, r4

000024f4 <jitend3bytestoreoperandBL>:
    24f4:	e1a0c12c 	lsr	ip, ip, #2
    24f8:	e04cc126 	sub	ip, ip, r6, lsr #2
    24fc:	e38cc4eb 	orr	ip, ip, #-352321536	; 0xeb000000
    2500:	ea000002 	b	2510 <jitend3bytestore>

00002504 <jitend3byteloadstoreoperand>:
    2504:	e8911f80 	ldm	r1, {r7, r8, r9, sl, fp, ip}

00002508 <jitend3bytestoreoperand>:
    2508:	e1877005 	orr	r7, r7, r5
    250c:	e1888004 	orr	r8, r8, r4

00002510 <jitend3bytestore>:
    2510:	e8861f80 	stm	r6, {r7, r8, r9, sl, fp, ip}

00002514 <jitend3byte>:
    2514:	e59f05a0 	ldr	r0, [pc, #1440]	; 2abc <decimal_mode_sbc+0x40>
    2518:	eb000017 	bl	257c <fillinjittedtable>
    251c:	e2800027 	add	r0, r0, #39	; 0x27
    2520:	e2822003 	add	r2, r2, #3
    2524:	e5810004 	str	r0, [r1, #4]
    2528:	e2800027 	add	r0, r0, #39	; 0x27
    252c:	e5810008 	str	r0, [r1, #8]
    2530:	eafffea8 	b	1fd8 <dojitloop>

00002534 <jitend3byteexitBBRS>:
    2534:	e8911f80 	ldm	r1, {r7, r8, r9, sl, fp, ip}
    2538:	e6af5075 	sxtb	r5, r5
    253c:	e1a05085 	lsl	r5, r5, #1
    2540:	e3c554ff 	bic	r5, r5, #-16777216	; 0xff000000
    2544:	e385b4ea 	orr	fp, r5, #-369098752	; 0xea000000
    2548:	e1877004 	orr	r7, r7, r4
    254c:	e1a0a12a 	lsr	sl, sl, #2
    2550:	e04aa126 	sub	sl, sl, r6, lsr #2
    2554:	e38aa4eb 	orr	sl, sl, #-352321536	; 0xeb000000

00002558 <jitend3byteexitstore6>:
    2558:	e8861f80 	stm	r6, {r7, r8, r9, sl, fp, ip}

0000255c <jitend3byteexit>:
    255c:	e59f0558 	ldr	r0, [pc, #1368]	; 2abc <decimal_mode_sbc+0x40>
    2560:	eb000005 	bl	257c <fillinjittedtable>
    2564:	e2800027 	add	r0, r0, #39	; 0x27
    2568:	e2822003 	add	r2, r2, #3
    256c:	e5810004 	str	r0, [r1, #4]
    2570:	e2800027 	add	r0, r0, #39	; 0x27
    2574:	e5810008 	str	r0, [r1, #8]
    2578:	eaffffa6 	b	2418 <dojitexit>

0000257c <fillinjittedtable>:
    257c:	e3a016d1 	mov	r1, #219152384	; 0xd100000
    2580:	e0620120 	rsb	r0, r2, r0, lsr #2
    2584:	e38004ea 	orr	r0, r0, #-369098752	; 0xea000000
    2588:	e7a10102 	str	r0, [r1, r2, lsl #2]!
    258c:	e12fff1e 	bx	lr

00002590 <createbranchtojitlet>:
    2590:	e1a0008c 	lsl	r0, ip, #1
    2594:	e280050d 	add	r0, r0, #54525952	; 0x3400000
    2598:	e0400126 	sub	r0, r0, r6, lsr #2
    259c:	e2400002 	sub	r0, r0, #2
    25a0:	e3c004ff 	bic	r0, r0, #-16777216	; 0xff000000
    25a4:	e38004ea 	orr	r0, r0, #-369098752	; 0xea000000
    25a8:	e5860000 	str	r0, [r6]
    25ac:	eaffffea 	b	255c <jitend3byteexit>

000025b0 <createbranchlinkm8>:
    25b0:	e1a00120 	lsr	r0, r0, #2
    25b4:	e0400126 	sub	r0, r0, r6, lsr #2
    25b8:	e38004eb 	orr	r0, r0, #-352321536	; 0xeb000000
    25bc:	e5860000 	str	r0, [r6]
    25c0:	e12fff1e 	bx	lr

000025c4 <fixuptype2accessload4>:
    25c4:	e8910f00 	ldm	r1, {r8, r9, sl, fp}

000025c8 <fixuptype2accessstore4>:
    25c8:	e20410f0 	and	r1, r4, #240	; 0xf0
    25cc:	e204c00f 	and	ip, r4, #15
    25d0:	e1888201 	orr	r8, r8, r1, lsl #4
    25d4:	e188800c 	orr	r8, r8, ip
    25d8:	eafffe78 	b	1fc0 <jitend2bytestore4>

000025dc <fixuptype2accessquick>:
    25dc:	e8911f80 	ldm	r1, {r7, r8, r9, sl, fp, ip}
    25e0:	e20410f0 	and	r1, r4, #240	; 0xf0
    25e4:	e204400f 	and	r4, r4, #15
    25e8:	e1877005 	orr	r7, r7, r5
    25ec:	e1888201 	orr	r8, r8, r1, lsl #4
    25f0:	e1888004 	orr	r8, r8, r4
    25f4:	e12fff1e 	bx	lr

000025f8 <ioload>:
    25f8:	e52de004 	push	{lr}		; (str lr, [sp, #-4]!)
    25fc:	e10f4000 	mrs	r4, CPSR
    2600:	f10c00c0 	cpsid	if
    2604:	ebfffffe 	bl	0 <tube_parasite_read>
    2608:	e129f004 	msr	CPSR_fc, r4
    260c:	e49df004 	pop	{pc}		; (ldr pc, [sp], #4)

00002610 <iostore>:
    2610:	e52de004 	push	{lr}		; (str lr, [sp, #-4]!)
    2614:	e10f4000 	mrs	r4, CPSR
    2618:	f10c00c0 	cpsid	if
    261c:	ebfffffe 	bl	0 <tube_parasite_write_banksel>
    2620:	e129f004 	msr	CPSR_fc, r4
    2624:	e49df004 	pop	{pc}		; (ldr pc, [sp], #4)

00002628 <brk>:
    2628:	e24e140d 	sub	r1, lr, #218103808	; 0xd000000
    262c:	e1a011a1 	lsr	r1, r1, #3
    2630:	e2811001 	add	r1, r1, #1
    2634:	e2499002 	sub	r9, r9, #2
    2638:	e3a0c801 	mov	ip, #65536	; 0x10000
    263c:	e1c910b1 	strh	r1, [r9, #1]
    2640:	e3899c01 	orr	r9, r9, #256	; 0x100
    2644:	e15c00b2 	ldrh	r0, [ip, #-2]
    2648:	e387c030 	orr	ip, r7, #48	; 0x30
    264c:	438cc080 	orrmi	ip, ip, #128	; 0x80
    2650:	238cc001 	orrcs	ip, ip, #1
    2654:	038cc002 	orreq	ip, ip, #2
    2658:	e449c001 	strb	ip, [r9], #-1
    265c:	e3899c01 	orr	r9, r9, #256	; 0x100
    2660:	e3877004 	orr	r7, r7, #4
    2664:	e3c77008 	bic	r7, r7, #8
    2668:	e1a00180 	lsl	r0, r0, #3
    266c:	e280040d 	add	r0, r0, #218103808	; 0xd000000
    2670:	f10800c0 	cpsie	if
    2674:	e12fff10 	bx	r0

00002678 <rti>:
    2678:	e6592f9c 	uadd8	r2, r9, ip
    267c:	e5d22000 	ldrb	r2, [r2]
    2680:	e6599f9c 	uadd8	r9, r9, ip
    2684:	e3c7c0ff 	bic	ip, r7, #255	; 0xff
    2688:	e18cc002 	orr	ip, ip, r2
    268c:	e3cc70b3 	bic	r7, ip, #179	; 0xb3
    2690:	e202c080 	and	ip, r2, #128	; 0x80
    2694:	e2022003 	and	r2, r2, #3
    2698:	e1a0cc0c 	lsl	ip, ip, #24
    269c:	e18cce82 	orr	ip, ip, r2, lsl #29
    26a0:	e1d910b1 	ldrh	r1, [r9, #1]
    26a4:	e3a00002 	mov	r0, #2
    26a8:	e6599f90 	uadd8	r9, r9, r0
    26ac:	e2810001 	add	r0, r1, #1
    26b0:	e3500801 	cmp	r0, #65536	; 0x10000
    26b4:	0afffcf8 	beq	1a9c <noirq>
    26b8:	e59f0400 	ldr	r0, [pc, #1024]	; 2ac0 <decimal_mode_sbc+0x44>
    26bc:	e5900000 	ldr	r0, [r0]
    26c0:	e3170004 	tst	r7, #4
    26c4:	02200001 	eoreq	r0, r0, #1
    26c8:	03100001 	tsteq	r0, #1
    26cc:	0a000003 	beq	26e0 <handle_irqrti>
    26d0:	e128f00c 	msr	CPSR_f, ip
    26d4:	e1a01181 	lsl	r1, r1, #3
    26d8:	e281140d 	add	r1, r1, #218103808	; 0xd000000
    26dc:	e12fff11 	bx	r1

000026e0 <handle_irqrti>:
    26e0:	e128f00c 	msr	CPSR_f, ip
    26e4:	e2499002 	sub	r9, r9, #2
    26e8:	e3a0c801 	mov	ip, #65536	; 0x10000
    26ec:	e1c910b1 	strh	r1, [r9, #1]
    26f0:	e3899c01 	orr	r9, r9, #256	; 0x100
    26f4:	e15c00b2 	ldrh	r0, [ip, #-2]
    26f8:	e387c020 	orr	ip, r7, #32
    26fc:	438cc080 	orrmi	ip, ip, #128	; 0x80
    2700:	238cc001 	orrcs	ip, ip, #1
    2704:	038cc002 	orreq	ip, ip, #2
    2708:	e449c001 	strb	ip, [r9], #-1
    270c:	e3899c01 	orr	r9, r9, #256	; 0x100
    2710:	e3877004 	orr	r7, r7, #4
    2714:	e3c77008 	bic	r7, r7, #8
    2718:	e1a00180 	lsl	r0, r0, #3
    271c:	e280040d 	add	r0, r0, #218103808	; 0xd000000
    2720:	e12fff10 	bx	r0

00002724 <cli>:
    2724:	e10fc000 	mrs	ip, CPSR
    2728:	ea000009 	b	2754 <check_irq_plp>

0000272c <plp>:
    272c:	e6592f9c 	uadd8	r2, r9, ip
    2730:	e5d22000 	ldrb	r2, [r2]
    2734:	e6599f9c 	uadd8	r9, r9, ip
    2738:	e3c7c0ff 	bic	ip, r7, #255	; 0xff
    273c:	e18cc002 	orr	ip, ip, r2
    2740:	e3cc70b3 	bic	r7, ip, #179	; 0xb3
    2744:	e202c080 	and	ip, r2, #128	; 0x80
    2748:	e2022003 	and	r2, r2, #3
    274c:	e1a0cc0c 	lsl	ip, ip, #24
    2750:	e18cce82 	orr	ip, ip, r2, lsl #29

00002754 <check_irq_plp>:
    2754:	e59f0364 	ldr	r0, [pc, #868]	; 2ac0 <decimal_mode_sbc+0x44>
    2758:	e5900000 	ldr	r0, [r0]
    275c:	e3170004 	tst	r7, #4
    2760:	02200001 	eoreq	r0, r0, #1
    2764:	03100001 	tsteq	r0, #1
    2768:	0a000001 	beq	2774 <handle_irqplp>
    276c:	e128f00c 	msr	CPSR_f, ip
    2770:	e12fff1e 	bx	lr

00002774 <handle_irqplp>:
    2774:	e24e140d 	sub	r1, lr, #218103808	; 0xd000000
    2778:	e1a011a1 	lsr	r1, r1, #3
    277c:	e128f00c 	msr	CPSR_f, ip
    2780:	e2499002 	sub	r9, r9, #2
    2784:	e3a0c801 	mov	ip, #65536	; 0x10000
    2788:	e1c910b1 	strh	r1, [r9, #1]
    278c:	e3899c01 	orr	r9, r9, #256	; 0x100
    2790:	e15c00b2 	ldrh	r0, [ip, #-2]
    2794:	e387c020 	orr	ip, r7, #32
    2798:	438cc080 	orrmi	ip, ip, #128	; 0x80
    279c:	238cc001 	orrcs	ip, ip, #1
    27a0:	038cc002 	orreq	ip, ip, #2
    27a4:	e449c001 	strb	ip, [r9], #-1
    27a8:	e3899c01 	orr	r9, r9, #256	; 0x100
    27ac:	e3877004 	orr	r7, r7, #4
    27b0:	e3c77008 	bic	r7, r7, #8
    27b4:	e1a00180 	lsl	r0, r0, #3
    27b8:	e280040d 	add	r0, r0, #218103808	; 0xd000000
    27bc:	e12fff10 	bx	r0

000027c0 <putcharopcode>:
    27c0:	e92d5200 	push	{r9, ip, lr}
    27c4:	e10f9000 	mrs	r9, CPSR
    27c8:	e59fc2f4 	ldr	ip, [pc, #756]	; 2ac4 <decimal_mode_sbc+0x48>
    27cc:	e1a0000a 	mov	r0, sl
    27d0:	e12fff3c 	blx	ip
    27d4:	e128f009 	msr	CPSR_f, r9
    27d8:	e8bd9200 	pop	{r9, ip, pc}

000027dc <debugopcode>:
    27dc:	e12fff1e 	bx	lr

000027e0 <invertcarry>:
    27e0:	e10f0000 	mrs	r0, CPSR
    27e4:	e2200202 	eor	r0, r0, #536870912	; 0x20000000
    27e8:	e128f000 	msr	CPSR_f, r0
    27ec:	e12fff1e 	bx	lr

000027f0 <testvflagC>:
    27f0:	e10f1000 	mrs	r1, CPSR
    27f4:	e3170040 	tst	r7, #64	; 0x40
    27f8:	128ef008 	addne	pc, lr, #8
    27fc:	e12fff1e 	bx	lr

00002800 <testvflagS>:
    2800:	e10f1000 	mrs	r1, CPSR
    2804:	e3170040 	tst	r7, #64	; 0x40
    2808:	028ef008 	addeq	pc, lr, #8
    280c:	e12fff1e 	bx	lr

00002810 <bbrreturn>:
    2810:	128ef004 	addne	pc, lr, #4
    2814:	e128f001 	msr	CPSR_f, r1
    2818:	e12fff1e 	bx	lr

0000281c <bbsreturn>:
    281c:	028ef004 	addeq	pc, lr, #4
    2820:	e128f001 	msr	CPSR_f, r1
    2824:	e12fff1e 	bx	lr

00002828 <bitimm>:
    2828:	13c11101 	bicne	r1, r1, #1073741824	; 0x40000000
    282c:	03811101 	orreq	r1, r1, #1073741824	; 0x40000000
    2830:	e128f001 	msr	CPSR_f, r1
    2834:	e12fff1e 	bx	lr

00002838 <jitstxytable>:
    2838:	e0850b21 	add	r0, r5, r1, lsr #22
    283c:	e12fff10 	bx	r0

00002840 <jitstatable>:
    2840:	e5c1a000 	strb	sl, [r1]
    2844:	e0850101 	add	r0, r5, r1, lsl #2
    2848:	e12fff10 	bx	r0

0000284c <storeXflags>:
    284c:	e7c60c21 	strb	r0, [r6, r1, lsr #24]

00002850 <tempflags>:
    2850:	e6af0070 	sxtb	r0, r0
    2854:	e3300000 	teq	r0, #0
    2858:	e12fff1e 	bx	lr

0000285c <incstore>:
    285c:	e28cc001 	add	ip, ip, #1
    2860:	e5c1c000 	strb	ip, [r1]
    2864:	e12fff1e 	bx	lr

00002868 <plx>:
    2868:	e659bf91 	uadd8	fp, r9, r1
    286c:	e5dbb000 	ldrb	fp, [fp]
    2870:	e6599f91 	uadd8	r9, r9, r1
    2874:	e1a0bc0b 	lsl	fp, fp, #24
    2878:	e33b0000 	teq	fp, #0
    287c:	e12fff1e 	bx	lr

00002880 <ply>:
    2880:	e6598f91 	uadd8	r8, r9, r1
    2884:	e5d88000 	ldrb	r8, [r8]
    2888:	e6599f91 	uadd8	r9, r9, r1
    288c:	e1a08c08 	lsl	r8, r8, #24
    2890:	e3380000 	teq	r8, #0
    2894:	e12fff1e 	bx	lr

00002898 <pla>:
    2898:	e659af91 	uadd8	sl, r9, r1
    289c:	e1daa0d0 	ldrsb	sl, [sl]
    28a0:	e6599f91 	uadd8	r9, r9, r1
    28a4:	e33a0000 	teq	sl, #0
    28a8:	e12fff1e 	bx	lr

000028ac <rts>:
    28ac:	e3a01002 	mov	r1, #2
    28b0:	e3a0c40d 	mov	ip, #218103808	; 0xd000000
    28b4:	e6599f91 	uadd8	r9, r9, r1
    28b8:	e28c1008 	add	r1, ip, #8
    28bc:	e0811180 	add	r1, r1, r0, lsl #3
    28c0:	e12fff11 	bx	r1

000028c4 <rora>:
    28c4:	224aac01 	subcs	sl, sl, #256	; 0x100
    28c8:	e1b0a06a 	rrxs	sl, sl
    28cc:	e12fff1e 	bx	lr

000028d0 <ror>:
    28d0:	238ccc01 	orrcs	ip, ip, #256	; 0x100
    28d4:	e1b0c06c 	rrxs	ip, ip
    28d8:	e5c1c000 	strb	ip, [r1]
    28dc:	e12fff1e 	bx	lr

000028e0 <rol>:
    28e0:	e0acc00c 	adc	ip, ip, ip
    28e4:	e5c1c000 	strb	ip, [r1]
    28e8:	e1b0cc0c 	lsls	ip, ip, #24
    28ec:	e12fff1e 	bx	lr

000028f0 <rola>:
    28f0:	e1b01c0a 	lsls	r1, sl, #24
    28f4:	e6afa07a 	sxtb	sl, sl
    28f8:	e12fff1e 	bx	lr

000028fc <bitioload>:
    28fc:	e52de004 	push	{lr}		; (str lr, [sp, #-4]!)
    2900:	ebffff3c 	bl	25f8 <ioload>
    2904:	e49de004 	pop	{lr}		; (ldr lr, [sp], #4)

00002908 <bitadjustr14>:
    2908:	e28e2010 	add	r2, lr, #16
    290c:	e3c77040 	bic	r7, r7, #64	; 0x40
    2910:	e110000a 	tst	r0, sl
    2914:	e10fc000 	mrs	ip, CPSR
    2918:	e2001080 	and	r1, r0, #128	; 0x80
    291c:	e2000040 	and	r0, r0, #64	; 0x40
    2920:	e1877000 	orr	r7, r7, r0
    2924:	e18ccc01 	orr	ip, ip, r1, lsl #24
    2928:	e128f00c 	msr	CPSR_f, ip
    292c:	e12fff12 	bx	r2

00002930 <bit>:
    2930:	e11c000a 	tst	ip, sl

00002934 <bit2>:
    2934:	e10f0000 	mrs	r0, CPSR
    2938:	e20c1080 	and	r1, ip, #128	; 0x80
    293c:	e20cc040 	and	ip, ip, #64	; 0x40
    2940:	e187700c 	orr	r7, r7, ip
    2944:	e1800c01 	orr	r0, r0, r1, lsl #24
    2948:	e128f000 	msr	CPSR_f, r0
    294c:	e12fff1e 	bx	lr

00002950 <cmpa>:
    2950:	e5d10000 	ldrb	r0, [r1]
    2954:	e1a01c0a 	lsl	r1, sl, #24
    2958:	e1510c00 	cmp	r1, r0, lsl #24
    295c:	e12fff1e 	bx	lr

00002960 <loada>:
    2960:	e1d1a0d0 	ldrsb	sl, [r1]
    2964:	e33a0000 	teq	sl, #0
    2968:	e12fff1e 	bx	lr

0000296c <aflags>:
    296c:	e6afa07a 	sxtb	sl, sl
    2970:	e33a0000 	teq	sl, #0
    2974:	e12fff1e 	bx	lr

00002978 <asl>:
    2978:	e08cc00c 	add	ip, ip, ip
    297c:	e5c1c000 	strb	ip, [r1]
    2980:	e1b0cc0c 	lsls	ip, ip, #24
    2984:	e12fff1e 	bx	lr

00002988 <php>:
    2988:	438cc080 	orrmi	ip, ip, #128	; 0x80
    298c:	238cc001 	orrcs	ip, ip, #1
    2990:	038cc002 	orreq	ip, ip, #2

00002994 <pushtemp>:
    2994:	e449c001 	strb	ip, [r9], #-1
    2998:	e3899c01 	orr	r9, r9, #256	; 0x100
    299c:	e12fff1e 	bx	lr

000029a0 <trb>:
    29a0:	e3c00101 	bic	r0, r0, #1073741824	; 0x40000000
    29a4:	e11c000a 	tst	ip, sl

000029a8 <trb2>:
    29a8:	e1ccc00a 	bic	ip, ip, sl
    29ac:	e5c1c000 	strb	ip, [r1]
    29b0:	03800101 	orreq	r0, r0, #1073741824	; 0x40000000
    29b4:	e128f000 	msr	CPSR_f, r0
    29b8:	e12fff1e 	bx	lr

000029bc <tsb>:
    29bc:	e3c00101 	bic	r0, r0, #1073741824	; 0x40000000
    29c0:	e11c000a 	tst	ip, sl

000029c4 <tsb2>:
    29c4:	e18cc00a 	orr	ip, ip, sl
    29c8:	e5c1c000 	strb	ip, [r1]
    29cc:	03800101 	orreq	r0, r0, #1073741824	; 0x40000000
    29d0:	e128f000 	msr	CPSR_f, r0
    29d4:	e12fff1e 	bx	lr

000029d8 <ldrhldrsb>:
    29d8:	e1d100b0 	ldrh	r0, [r1]
    29dc:	e1d000d0 	ldrsb	r0, [r0]
    29e0:	e12fff1e 	bx	lr

000029e4 <ADCload>:
    29e4:	e5d1c000 	ldrb	ip, [r1]

000029e8 <ADC0>:
    29e8:	e3170008 	tst	r7, #8

000029ec <ADC1>:
    29ec:	e3c77040 	bic	r7, r7, #64	; 0x40

000029f0 <ADC2>:
    29f0:	e1a0ac0a 	lsl	sl, sl, #24

000029f4 <ADC3>:
    29f4:	224ccc01 	subcs	ip, ip, #256	; 0x100
    29f8:	1a000003 	bne	2a0c <decimal_mode_adc>
    29fc:	e0baa46c 	adcs	sl, sl, ip, ror #8
    2a00:	63877040 	orrvs	r7, r7, #64	; 0x40
    2a04:	e6afac7a 	sxtb	sl, sl, ror #24
    2a08:	e12fff1e 	bx	lr

00002a0c <decimal_mode_adc>:
    2a0c:	e20a040f 	and	r0, sl, #251658240	; 0xf000000
    2a10:	e20c100f 	and	r1, ip, #15
    2a14:	e0a11c20 	adc	r1, r1, r0, lsr #24
    2a18:	e351000a 	cmp	r1, #10
    2a1c:	2241100a 	subcs	r1, r1, #10
    2a20:	e201100f 	and	r1, r1, #15
    2a24:	238cc00f 	orrcs	ip, ip, #15
    2a28:	e20aa20f 	and	sl, sl, #-268435456	; 0xf0000000
    2a2c:	238aa40f 	orrcs	sl, sl, #251658240	; 0xf000000
    2a30:	e0baa46c 	adcs	sl, sl, ip, ror #8
    2a34:	63877040 	orrvs	r7, r7, #64	; 0x40
    2a38:	335a020a 	cmpcc	sl, #-1610612736	; 0xa0000000
    2a3c:	224aa20a 	subcs	sl, sl, #-1610612736	; 0xa0000000
    2a40:	e20aa20f 	and	sl, sl, #-268435456	; 0xf0000000
    2a44:	e18aac01 	orr	sl, sl, r1, lsl #24
    2a48:	e6afac7a 	sxtb	sl, sl, ror #24
    2a4c:	e33a0000 	teq	sl, #0
    2a50:	e12fff1e 	bx	lr

00002a54 <SBCload>:
    2a54:	e5d1c000 	ldrb	ip, [r1]

00002a58 <SBC0>:
    2a58:	e3170008 	tst	r7, #8

00002a5c <SBC1>:
    2a5c:	e3c77040 	bic	r7, r7, #64	; 0x40

00002a60 <SBC2>:
    2a60:	e1a0ac0a 	lsl	sl, sl, #24

00002a64 <SBC3>:
    2a64:	1a000004 	bne	2a7c <decimal_mode_sbc>
    2a68:	324ccc01 	subcc	ip, ip, #256	; 0x100
    2a6c:	e0daa46c 	sbcs	sl, sl, ip, ror #8
    2a70:	63877040 	orrvs	r7, r7, #64	; 0x40
    2a74:	e6afac7a 	sxtb	sl, sl, ror #24
    2a78:	e12fff1e 	bx	lr

00002a7c <decimal_mode_sbc>:
    2a7c:	e3cc00f0 	bic	r0, ip, #240	; 0xf0
    2a80:	e20a140f 	and	r1, sl, #251658240	; 0xf000000
    2a84:	e0c11460 	sbc	r1, r1, r0, ror #8
    2a88:	e0daa46c 	sbcs	sl, sl, ip, ror #8
    2a8c:	63877040 	orrvs	r7, r7, #64	; 0x40
    2a90:	324aa206 	subcc	sl, sl, #1610612736	; 0x60000000
    2a94:	e3310000 	teq	r1, #0
    2a98:	424aa406 	submi	sl, sl, #100663296	; 0x6000000
    2a9c:	e6afac7a 	sxtb	sl, sl, ror #24
    2aa0:	e33a0000 	teq	sl, #0
    2aa4:	e12fff1e 	bx	lr
    2aa8:	f3001f34 	.word	0xf3001f34
    2aac:	e12fff1e 	.word	0xe12fff1e
    2ab0:	3f20001c 	.word	0x3f20001c
    2ab4:	f2f01c3c 	.word	0xf2f01c3c
    2ab8:	f2f01be4 	.word	0xf2f01be4
    2abc:	f2f01d54 	.word	0xf2f01d54
	...

00002ac8 <immediatesignextenedtable>:
    2ac8:	e3a00000 	mov	r0, #0
    2acc:	e3a00001 	mov	r0, #1
    2ad0:	e3a00002 	mov	r0, #2
    2ad4:	e3a00003 	mov	r0, #3
    2ad8:	e3a00004 	mov	r0, #4
    2adc:	e3a00005 	mov	r0, #5
    2ae0:	e3a00006 	mov	r0, #6
    2ae4:	e3a00007 	mov	r0, #7
    2ae8:	e3a00008 	mov	r0, #8
    2aec:	e3a00009 	mov	r0, #9
    2af0:	e3a0000a 	mov	r0, #10
    2af4:	e3a0000b 	mov	r0, #11
    2af8:	e3a0000c 	mov	r0, #12
    2afc:	e3a0000d 	mov	r0, #13
    2b00:	e3a0000e 	mov	r0, #14
    2b04:	e3a0000f 	mov	r0, #15
    2b08:	e3a00010 	mov	r0, #16
    2b0c:	e3a00011 	mov	r0, #17
    2b10:	e3a00012 	mov	r0, #18
    2b14:	e3a00013 	mov	r0, #19
    2b18:	e3a00014 	mov	r0, #20
    2b1c:	e3a00015 	mov	r0, #21
    2b20:	e3a00016 	mov	r0, #22
    2b24:	e3a00017 	mov	r0, #23
    2b28:	e3a00018 	mov	r0, #24
    2b2c:	e3a00019 	mov	r0, #25
    2b30:	e3a0001a 	mov	r0, #26
    2b34:	e3a0001b 	mov	r0, #27
    2b38:	e3a0001c 	mov	r0, #28
    2b3c:	e3a0001d 	mov	r0, #29
    2b40:	e3a0001e 	mov	r0, #30
    2b44:	e3a0001f 	mov	r0, #31
    2b48:	e3a00020 	mov	r0, #32
    2b4c:	e3a00021 	mov	r0, #33	; 0x21
    2b50:	e3a00022 	mov	r0, #34	; 0x22
    2b54:	e3a00023 	mov	r0, #35	; 0x23
    2b58:	e3a00024 	mov	r0, #36	; 0x24
    2b5c:	e3a00025 	mov	r0, #37	; 0x25
    2b60:	e3a00026 	mov	r0, #38	; 0x26
    2b64:	e3a00027 	mov	r0, #39	; 0x27
    2b68:	e3a00028 	mov	r0, #40	; 0x28
    2b6c:	e3a00029 	mov	r0, #41	; 0x29
    2b70:	e3a0002a 	mov	r0, #42	; 0x2a
    2b74:	e3a0002b 	mov	r0, #43	; 0x2b
    2b78:	e3a0002c 	mov	r0, #44	; 0x2c
    2b7c:	e3a0002d 	mov	r0, #45	; 0x2d
    2b80:	e3a0002e 	mov	r0, #46	; 0x2e
    2b84:	e3a0002f 	mov	r0, #47	; 0x2f
    2b88:	e3a00030 	mov	r0, #48	; 0x30
    2b8c:	e3a00031 	mov	r0, #49	; 0x31
    2b90:	e3a00032 	mov	r0, #50	; 0x32
    2b94:	e3a00033 	mov	r0, #51	; 0x33
    2b98:	e3a00034 	mov	r0, #52	; 0x34
    2b9c:	e3a00035 	mov	r0, #53	; 0x35
    2ba0:	e3a00036 	mov	r0, #54	; 0x36
    2ba4:	e3a00037 	mov	r0, #55	; 0x37
    2ba8:	e3a00038 	mov	r0, #56	; 0x38
    2bac:	e3a00039 	mov	r0, #57	; 0x39
    2bb0:	e3a0003a 	mov	r0, #58	; 0x3a
    2bb4:	e3a0003b 	mov	r0, #59	; 0x3b
    2bb8:	e3a0003c 	mov	r0, #60	; 0x3c
    2bbc:	e3a0003d 	mov	r0, #61	; 0x3d
    2bc0:	e3a0003e 	mov	r0, #62	; 0x3e
    2bc4:	e3a0003f 	mov	r0, #63	; 0x3f
    2bc8:	e3a00040 	mov	r0, #64	; 0x40
    2bcc:	e3a00041 	mov	r0, #65	; 0x41
    2bd0:	e3a00042 	mov	r0, #66	; 0x42
    2bd4:	e3a00043 	mov	r0, #67	; 0x43
    2bd8:	e3a00044 	mov	r0, #68	; 0x44
    2bdc:	e3a00045 	mov	r0, #69	; 0x45
    2be0:	e3a00046 	mov	r0, #70	; 0x46
    2be4:	e3a00047 	mov	r0, #71	; 0x47
    2be8:	e3a00048 	mov	r0, #72	; 0x48
    2bec:	e3a00049 	mov	r0, #73	; 0x49
    2bf0:	e3a0004a 	mov	r0, #74	; 0x4a
    2bf4:	e3a0004b 	mov	r0, #75	; 0x4b
    2bf8:	e3a0004c 	mov	r0, #76	; 0x4c
    2bfc:	e3a0004d 	mov	r0, #77	; 0x4d
    2c00:	e3a0004e 	mov	r0, #78	; 0x4e
    2c04:	e3a0004f 	mov	r0, #79	; 0x4f
    2c08:	e3a00050 	mov	r0, #80	; 0x50
    2c0c:	e3a00051 	mov	r0, #81	; 0x51
    2c10:	e3a00052 	mov	r0, #82	; 0x52
    2c14:	e3a00053 	mov	r0, #83	; 0x53
    2c18:	e3a00054 	mov	r0, #84	; 0x54
    2c1c:	e3a00055 	mov	r0, #85	; 0x55
    2c20:	e3a00056 	mov	r0, #86	; 0x56
    2c24:	e3a00057 	mov	r0, #87	; 0x57
    2c28:	e3a00058 	mov	r0, #88	; 0x58
    2c2c:	e3a00059 	mov	r0, #89	; 0x59
    2c30:	e3a0005a 	mov	r0, #90	; 0x5a
    2c34:	e3a0005b 	mov	r0, #91	; 0x5b
    2c38:	e3a0005c 	mov	r0, #92	; 0x5c
    2c3c:	e3a0005d 	mov	r0, #93	; 0x5d
    2c40:	e3a0005e 	mov	r0, #94	; 0x5e
    2c44:	e3a0005f 	mov	r0, #95	; 0x5f
    2c48:	e3a00060 	mov	r0, #96	; 0x60
    2c4c:	e3a00061 	mov	r0, #97	; 0x61
    2c50:	e3a00062 	mov	r0, #98	; 0x62
    2c54:	e3a00063 	mov	r0, #99	; 0x63
    2c58:	e3a00064 	mov	r0, #100	; 0x64
    2c5c:	e3a00065 	mov	r0, #101	; 0x65
    2c60:	e3a00066 	mov	r0, #102	; 0x66
    2c64:	e3a00067 	mov	r0, #103	; 0x67
    2c68:	e3a00068 	mov	r0, #104	; 0x68
    2c6c:	e3a00069 	mov	r0, #105	; 0x69
    2c70:	e3a0006a 	mov	r0, #106	; 0x6a
    2c74:	e3a0006b 	mov	r0, #107	; 0x6b
    2c78:	e3a0006c 	mov	r0, #108	; 0x6c
    2c7c:	e3a0006d 	mov	r0, #109	; 0x6d
    2c80:	e3a0006e 	mov	r0, #110	; 0x6e
    2c84:	e3a0006f 	mov	r0, #111	; 0x6f
    2c88:	e3a00070 	mov	r0, #112	; 0x70
    2c8c:	e3a00071 	mov	r0, #113	; 0x71
    2c90:	e3a00072 	mov	r0, #114	; 0x72
    2c94:	e3a00073 	mov	r0, #115	; 0x73
    2c98:	e3a00074 	mov	r0, #116	; 0x74
    2c9c:	e3a00075 	mov	r0, #117	; 0x75
    2ca0:	e3a00076 	mov	r0, #118	; 0x76
    2ca4:	e3a00077 	mov	r0, #119	; 0x77
    2ca8:	e3a00078 	mov	r0, #120	; 0x78
    2cac:	e3a00079 	mov	r0, #121	; 0x79
    2cb0:	e3a0007a 	mov	r0, #122	; 0x7a
    2cb4:	e3a0007b 	mov	r0, #123	; 0x7b
    2cb8:	e3a0007c 	mov	r0, #124	; 0x7c
    2cbc:	e3a0007d 	mov	r0, #125	; 0x7d
    2cc0:	e3a0007e 	mov	r0, #126	; 0x7e
    2cc4:	e3a0007f 	mov	r0, #127	; 0x7f
    2cc8:	e3e0007f 	mvn	r0, #127	; 0x7f
    2ccc:	e3e0007e 	mvn	r0, #126	; 0x7e
    2cd0:	e3e0007d 	mvn	r0, #125	; 0x7d
    2cd4:	e3e0007c 	mvn	r0, #124	; 0x7c
    2cd8:	e3e0007b 	mvn	r0, #123	; 0x7b
    2cdc:	e3e0007a 	mvn	r0, #122	; 0x7a
    2ce0:	e3e00079 	mvn	r0, #121	; 0x79
    2ce4:	e3e00078 	mvn	r0, #120	; 0x78
    2ce8:	e3e00077 	mvn	r0, #119	; 0x77
    2cec:	e3e00076 	mvn	r0, #118	; 0x76
    2cf0:	e3e00075 	mvn	r0, #117	; 0x75
    2cf4:	e3e00074 	mvn	r0, #116	; 0x74
    2cf8:	e3e00073 	mvn	r0, #115	; 0x73
    2cfc:	e3e00072 	mvn	r0, #114	; 0x72
    2d00:	e3e00071 	mvn	r0, #113	; 0x71
    2d04:	e3e00070 	mvn	r0, #112	; 0x70
    2d08:	e3e0006f 	mvn	r0, #111	; 0x6f
    2d0c:	e3e0006e 	mvn	r0, #110	; 0x6e
    2d10:	e3e0006d 	mvn	r0, #109	; 0x6d
    2d14:	e3e0006c 	mvn	r0, #108	; 0x6c
    2d18:	e3e0006b 	mvn	r0, #107	; 0x6b
    2d1c:	e3e0006a 	mvn	r0, #106	; 0x6a
    2d20:	e3e00069 	mvn	r0, #105	; 0x69
    2d24:	e3e00068 	mvn	r0, #104	; 0x68
    2d28:	e3e00067 	mvn	r0, #103	; 0x67
    2d2c:	e3e00066 	mvn	r0, #102	; 0x66
    2d30:	e3e00065 	mvn	r0, #101	; 0x65
    2d34:	e3e00064 	mvn	r0, #100	; 0x64
    2d38:	e3e00063 	mvn	r0, #99	; 0x63
    2d3c:	e3e00062 	mvn	r0, #98	; 0x62
    2d40:	e3e00061 	mvn	r0, #97	; 0x61
    2d44:	e3e00060 	mvn	r0, #96	; 0x60
    2d48:	e3e0005f 	mvn	r0, #95	; 0x5f
    2d4c:	e3e0005e 	mvn	r0, #94	; 0x5e
    2d50:	e3e0005d 	mvn	r0, #93	; 0x5d
    2d54:	e3e0005c 	mvn	r0, #92	; 0x5c
    2d58:	e3e0005b 	mvn	r0, #91	; 0x5b
    2d5c:	e3e0005a 	mvn	r0, #90	; 0x5a
    2d60:	e3e00059 	mvn	r0, #89	; 0x59
    2d64:	e3e00058 	mvn	r0, #88	; 0x58
    2d68:	e3e00057 	mvn	r0, #87	; 0x57
    2d6c:	e3e00056 	mvn	r0, #86	; 0x56
    2d70:	e3e00055 	mvn	r0, #85	; 0x55
    2d74:	e3e00054 	mvn	r0, #84	; 0x54
    2d78:	e3e00053 	mvn	r0, #83	; 0x53
    2d7c:	e3e00052 	mvn	r0, #82	; 0x52
    2d80:	e3e00051 	mvn	r0, #81	; 0x51
    2d84:	e3e00050 	mvn	r0, #80	; 0x50
    2d88:	e3e0004f 	mvn	r0, #79	; 0x4f
    2d8c:	e3e0004e 	mvn	r0, #78	; 0x4e
    2d90:	e3e0004d 	mvn	r0, #77	; 0x4d
    2d94:	e3e0004c 	mvn	r0, #76	; 0x4c
    2d98:	e3e0004b 	mvn	r0, #75	; 0x4b
    2d9c:	e3e0004a 	mvn	r0, #74	; 0x4a
    2da0:	e3e00049 	mvn	r0, #73	; 0x49
    2da4:	e3e00048 	mvn	r0, #72	; 0x48
    2da8:	e3e00047 	mvn	r0, #71	; 0x47
    2dac:	e3e00046 	mvn	r0, #70	; 0x46
    2db0:	e3e00045 	mvn	r0, #69	; 0x45
    2db4:	e3e00044 	mvn	r0, #68	; 0x44
    2db8:	e3e00043 	mvn	r0, #67	; 0x43
    2dbc:	e3e00042 	mvn	r0, #66	; 0x42
    2dc0:	e3e00041 	mvn	r0, #65	; 0x41
    2dc4:	e3e00040 	mvn	r0, #64	; 0x40
    2dc8:	e3e0003f 	mvn	r0, #63	; 0x3f
    2dcc:	e3e0003e 	mvn	r0, #62	; 0x3e
    2dd0:	e3e0003d 	mvn	r0, #61	; 0x3d
    2dd4:	e3e0003c 	mvn	r0, #60	; 0x3c
    2dd8:	e3e0003b 	mvn	r0, #59	; 0x3b
    2ddc:	e3e0003a 	mvn	r0, #58	; 0x3a
    2de0:	e3e00039 	mvn	r0, #57	; 0x39
    2de4:	e3e00038 	mvn	r0, #56	; 0x38
    2de8:	e3e00037 	mvn	r0, #55	; 0x37
    2dec:	e3e00036 	mvn	r0, #54	; 0x36
    2df0:	e3e00035 	mvn	r0, #53	; 0x35
    2df4:	e3e00034 	mvn	r0, #52	; 0x34
    2df8:	e3e00033 	mvn	r0, #51	; 0x33
    2dfc:	e3e00032 	mvn	r0, #50	; 0x32
    2e00:	e3e00031 	mvn	r0, #49	; 0x31
    2e04:	e3e00030 	mvn	r0, #48	; 0x30
    2e08:	e3e0002f 	mvn	r0, #47	; 0x2f
    2e0c:	e3e0002e 	mvn	r0, #46	; 0x2e
    2e10:	e3e0002d 	mvn	r0, #45	; 0x2d
    2e14:	e3e0002c 	mvn	r0, #44	; 0x2c
    2e18:	e3e0002b 	mvn	r0, #43	; 0x2b
    2e1c:	e3e0002a 	mvn	r0, #42	; 0x2a
    2e20:	e3e00029 	mvn	r0, #41	; 0x29
    2e24:	e3e00028 	mvn	r0, #40	; 0x28
    2e28:	e3e00027 	mvn	r0, #39	; 0x27
    2e2c:	e3e00026 	mvn	r0, #38	; 0x26
    2e30:	e3e00025 	mvn	r0, #37	; 0x25
    2e34:	e3e00024 	mvn	r0, #36	; 0x24
    2e38:	e3e00023 	mvn	r0, #35	; 0x23
    2e3c:	e3e00022 	mvn	r0, #34	; 0x22
    2e40:	e3e00021 	mvn	r0, #33	; 0x21
    2e44:	e3e00020 	mvn	r0, #32
    2e48:	e3e0001f 	mvn	r0, #31
    2e4c:	e3e0001e 	mvn	r0, #30
    2e50:	e3e0001d 	mvn	r0, #29
    2e54:	e3e0001c 	mvn	r0, #28
    2e58:	e3e0001b 	mvn	r0, #27
    2e5c:	e3e0001a 	mvn	r0, #26
    2e60:	e3e00019 	mvn	r0, #25
    2e64:	e3e00018 	mvn	r0, #24
    2e68:	e3e00017 	mvn	r0, #23
    2e6c:	e3e00016 	mvn	r0, #22
    2e70:	e3e00015 	mvn	r0, #21
    2e74:	e3e00014 	mvn	r0, #20
    2e78:	e3e00013 	mvn	r0, #19
    2e7c:	e3e00012 	mvn	r0, #18
    2e80:	e3e00011 	mvn	r0, #17
    2e84:	e3e00010 	mvn	r0, #16
    2e88:	e3e0000f 	mvn	r0, #15
    2e8c:	e3e0000e 	mvn	r0, #14
    2e90:	e3e0000d 	mvn	r0, #13
    2e94:	e3e0000c 	mvn	r0, #12
    2e98:	e3e0000b 	mvn	r0, #11
    2e9c:	e3e0000a 	mvn	r0, #10
    2ea0:	e3e00009 	mvn	r0, #9
    2ea4:	e3e00008 	mvn	r0, #8
    2ea8:	e3e00007 	mvn	r0, #7
    2eac:	e3e00006 	mvn	r0, #6
    2eb0:	e3e00005 	mvn	r0, #5
    2eb4:	e3e00004 	mvn	r0, #4
    2eb8:	e3e00003 	mvn	r0, #3
    2ebc:	e3e00002 	mvn	r0, #2
    2ec0:	e3e00001 	mvn	r0, #1
    2ec4:	e3e00000 	mvn	r0, #0

00002ec8 <bitabstable>:
    2ec8:	e5d10000 	ldrb	r0, [r1]
    2ecc:	eafffe8d 	b	2908 <bitadjustr14>
    2ed0:	e5d10001 	ldrb	r0, [r1, #1]
    2ed4:	eafffe8b 	b	2908 <bitadjustr14>
    2ed8:	e5d10002 	ldrb	r0, [r1, #2]
    2edc:	eafffe89 	b	2908 <bitadjustr14>
    2ee0:	e5d10003 	ldrb	r0, [r1, #3]
    2ee4:	eafffe87 	b	2908 <bitadjustr14>
    2ee8:	e5d10004 	ldrb	r0, [r1, #4]
    2eec:	eafffe85 	b	2908 <bitadjustr14>
    2ef0:	e5d10005 	ldrb	r0, [r1, #5]
    2ef4:	eafffe83 	b	2908 <bitadjustr14>
    2ef8:	e5d10006 	ldrb	r0, [r1, #6]
    2efc:	eafffe81 	b	2908 <bitadjustr14>
    2f00:	e5d10007 	ldrb	r0, [r1, #7]
    2f04:	eafffe7f 	b	2908 <bitadjustr14>
    2f08:	e5d10008 	ldrb	r0, [r1, #8]
    2f0c:	eafffe7d 	b	2908 <bitadjustr14>
    2f10:	e5d10009 	ldrb	r0, [r1, #9]
    2f14:	eafffe7b 	b	2908 <bitadjustr14>
    2f18:	e5d1000a 	ldrb	r0, [r1, #10]
    2f1c:	eafffe79 	b	2908 <bitadjustr14>
    2f20:	e5d1000b 	ldrb	r0, [r1, #11]
    2f24:	eafffe77 	b	2908 <bitadjustr14>
    2f28:	e5d1000c 	ldrb	r0, [r1, #12]
    2f2c:	eafffe75 	b	2908 <bitadjustr14>
    2f30:	e5d1000d 	ldrb	r0, [r1, #13]
    2f34:	eafffe73 	b	2908 <bitadjustr14>
    2f38:	e5d1000e 	ldrb	r0, [r1, #14]
    2f3c:	eafffe71 	b	2908 <bitadjustr14>
    2f40:	e5d1000f 	ldrb	r0, [r1, #15]
    2f44:	eafffe6f 	b	2908 <bitadjustr14>
    2f48:	e5d10010 	ldrb	r0, [r1, #16]
    2f4c:	eafffe6d 	b	2908 <bitadjustr14>
    2f50:	e5d10011 	ldrb	r0, [r1, #17]
    2f54:	eafffe6b 	b	2908 <bitadjustr14>
    2f58:	e5d10012 	ldrb	r0, [r1, #18]
    2f5c:	eafffe69 	b	2908 <bitadjustr14>
    2f60:	e5d10013 	ldrb	r0, [r1, #19]
    2f64:	eafffe67 	b	2908 <bitadjustr14>
    2f68:	e5d10014 	ldrb	r0, [r1, #20]
    2f6c:	eafffe65 	b	2908 <bitadjustr14>
    2f70:	e5d10015 	ldrb	r0, [r1, #21]
    2f74:	eafffe63 	b	2908 <bitadjustr14>
    2f78:	e5d10016 	ldrb	r0, [r1, #22]
    2f7c:	eafffe61 	b	2908 <bitadjustr14>
    2f80:	e5d10017 	ldrb	r0, [r1, #23]
    2f84:	eafffe5f 	b	2908 <bitadjustr14>
    2f88:	e5d10018 	ldrb	r0, [r1, #24]
    2f8c:	eafffe5d 	b	2908 <bitadjustr14>
    2f90:	e5d10019 	ldrb	r0, [r1, #25]
    2f94:	eafffe5b 	b	2908 <bitadjustr14>
    2f98:	e5d1001a 	ldrb	r0, [r1, #26]
    2f9c:	eafffe59 	b	2908 <bitadjustr14>
    2fa0:	e5d1001b 	ldrb	r0, [r1, #27]
    2fa4:	eafffe57 	b	2908 <bitadjustr14>
    2fa8:	e5d1001c 	ldrb	r0, [r1, #28]
    2fac:	eafffe55 	b	2908 <bitadjustr14>
    2fb0:	e5d1001d 	ldrb	r0, [r1, #29]
    2fb4:	eafffe53 	b	2908 <bitadjustr14>
    2fb8:	e5d1001e 	ldrb	r0, [r1, #30]
    2fbc:	eafffe51 	b	2908 <bitadjustr14>
    2fc0:	e5d1001f 	ldrb	r0, [r1, #31]
    2fc4:	eafffe4f 	b	2908 <bitadjustr14>
    2fc8:	e5d10020 	ldrb	r0, [r1, #32]
    2fcc:	eafffe4d 	b	2908 <bitadjustr14>
    2fd0:	e5d10021 	ldrb	r0, [r1, #33]	; 0x21
    2fd4:	eafffe4b 	b	2908 <bitadjustr14>
    2fd8:	e5d10022 	ldrb	r0, [r1, #34]	; 0x22
    2fdc:	eafffe49 	b	2908 <bitadjustr14>
    2fe0:	e5d10023 	ldrb	r0, [r1, #35]	; 0x23
    2fe4:	eafffe47 	b	2908 <bitadjustr14>
    2fe8:	e5d10024 	ldrb	r0, [r1, #36]	; 0x24
    2fec:	eafffe45 	b	2908 <bitadjustr14>
    2ff0:	e5d10025 	ldrb	r0, [r1, #37]	; 0x25
    2ff4:	eafffe43 	b	2908 <bitadjustr14>
    2ff8:	e5d10026 	ldrb	r0, [r1, #38]	; 0x26
    2ffc:	eafffe41 	b	2908 <bitadjustr14>
    3000:	e5d10027 	ldrb	r0, [r1, #39]	; 0x27
    3004:	eafffe3f 	b	2908 <bitadjustr14>
    3008:	e5d10028 	ldrb	r0, [r1, #40]	; 0x28
    300c:	eafffe3d 	b	2908 <bitadjustr14>
    3010:	e5d10029 	ldrb	r0, [r1, #41]	; 0x29
    3014:	eafffe3b 	b	2908 <bitadjustr14>
    3018:	e5d1002a 	ldrb	r0, [r1, #42]	; 0x2a
    301c:	eafffe39 	b	2908 <bitadjustr14>
    3020:	e5d1002b 	ldrb	r0, [r1, #43]	; 0x2b
    3024:	eafffe37 	b	2908 <bitadjustr14>
    3028:	e5d1002c 	ldrb	r0, [r1, #44]	; 0x2c
    302c:	eafffe35 	b	2908 <bitadjustr14>
    3030:	e5d1002d 	ldrb	r0, [r1, #45]	; 0x2d
    3034:	eafffe33 	b	2908 <bitadjustr14>
    3038:	e5d1002e 	ldrb	r0, [r1, #46]	; 0x2e
    303c:	eafffe31 	b	2908 <bitadjustr14>
    3040:	e5d1002f 	ldrb	r0, [r1, #47]	; 0x2f
    3044:	eafffe2f 	b	2908 <bitadjustr14>
    3048:	e5d10030 	ldrb	r0, [r1, #48]	; 0x30
    304c:	eafffe2d 	b	2908 <bitadjustr14>
    3050:	e5d10031 	ldrb	r0, [r1, #49]	; 0x31
    3054:	eafffe2b 	b	2908 <bitadjustr14>
    3058:	e5d10032 	ldrb	r0, [r1, #50]	; 0x32
    305c:	eafffe29 	b	2908 <bitadjustr14>
    3060:	e5d10033 	ldrb	r0, [r1, #51]	; 0x33
    3064:	eafffe27 	b	2908 <bitadjustr14>
    3068:	e5d10034 	ldrb	r0, [r1, #52]	; 0x34
    306c:	eafffe25 	b	2908 <bitadjustr14>
    3070:	e5d10035 	ldrb	r0, [r1, #53]	; 0x35
    3074:	eafffe23 	b	2908 <bitadjustr14>
    3078:	e5d10036 	ldrb	r0, [r1, #54]	; 0x36
    307c:	eafffe21 	b	2908 <bitadjustr14>
    3080:	e5d10037 	ldrb	r0, [r1, #55]	; 0x37
    3084:	eafffe1f 	b	2908 <bitadjustr14>
    3088:	e5d10038 	ldrb	r0, [r1, #56]	; 0x38
    308c:	eafffe1d 	b	2908 <bitadjustr14>
    3090:	e5d10039 	ldrb	r0, [r1, #57]	; 0x39
    3094:	eafffe1b 	b	2908 <bitadjustr14>
    3098:	e5d1003a 	ldrb	r0, [r1, #58]	; 0x3a
    309c:	eafffe19 	b	2908 <bitadjustr14>
    30a0:	e5d1003b 	ldrb	r0, [r1, #59]	; 0x3b
    30a4:	eafffe17 	b	2908 <bitadjustr14>
    30a8:	e5d1003c 	ldrb	r0, [r1, #60]	; 0x3c
    30ac:	eafffe15 	b	2908 <bitadjustr14>
    30b0:	e5d1003d 	ldrb	r0, [r1, #61]	; 0x3d
    30b4:	eafffe13 	b	2908 <bitadjustr14>
    30b8:	e5d1003e 	ldrb	r0, [r1, #62]	; 0x3e
    30bc:	eafffe11 	b	2908 <bitadjustr14>
    30c0:	e5d1003f 	ldrb	r0, [r1, #63]	; 0x3f
    30c4:	eafffe0f 	b	2908 <bitadjustr14>
    30c8:	e5d10040 	ldrb	r0, [r1, #64]	; 0x40
    30cc:	eafffe0d 	b	2908 <bitadjustr14>
    30d0:	e5d10041 	ldrb	r0, [r1, #65]	; 0x41
    30d4:	eafffe0b 	b	2908 <bitadjustr14>
    30d8:	e5d10042 	ldrb	r0, [r1, #66]	; 0x42
    30dc:	eafffe09 	b	2908 <bitadjustr14>
    30e0:	e5d10043 	ldrb	r0, [r1, #67]	; 0x43
    30e4:	eafffe07 	b	2908 <bitadjustr14>
    30e8:	e5d10044 	ldrb	r0, [r1, #68]	; 0x44
    30ec:	eafffe05 	b	2908 <bitadjustr14>
    30f0:	e5d10045 	ldrb	r0, [r1, #69]	; 0x45
    30f4:	eafffe03 	b	2908 <bitadjustr14>
    30f8:	e5d10046 	ldrb	r0, [r1, #70]	; 0x46
    30fc:	eafffe01 	b	2908 <bitadjustr14>
    3100:	e5d10047 	ldrb	r0, [r1, #71]	; 0x47
    3104:	eafffdff 	b	2908 <bitadjustr14>
    3108:	e5d10048 	ldrb	r0, [r1, #72]	; 0x48
    310c:	eafffdfd 	b	2908 <bitadjustr14>
    3110:	e5d10049 	ldrb	r0, [r1, #73]	; 0x49
    3114:	eafffdfb 	b	2908 <bitadjustr14>
    3118:	e5d1004a 	ldrb	r0, [r1, #74]	; 0x4a
    311c:	eafffdf9 	b	2908 <bitadjustr14>
    3120:	e5d1004b 	ldrb	r0, [r1, #75]	; 0x4b
    3124:	eafffdf7 	b	2908 <bitadjustr14>
    3128:	e5d1004c 	ldrb	r0, [r1, #76]	; 0x4c
    312c:	eafffdf5 	b	2908 <bitadjustr14>
    3130:	e5d1004d 	ldrb	r0, [r1, #77]	; 0x4d
    3134:	eafffdf3 	b	2908 <bitadjustr14>
    3138:	e5d1004e 	ldrb	r0, [r1, #78]	; 0x4e
    313c:	eafffdf1 	b	2908 <bitadjustr14>
    3140:	e5d1004f 	ldrb	r0, [r1, #79]	; 0x4f
    3144:	eafffdef 	b	2908 <bitadjustr14>
    3148:	e5d10050 	ldrb	r0, [r1, #80]	; 0x50
    314c:	eafffded 	b	2908 <bitadjustr14>
    3150:	e5d10051 	ldrb	r0, [r1, #81]	; 0x51
    3154:	eafffdeb 	b	2908 <bitadjustr14>
    3158:	e5d10052 	ldrb	r0, [r1, #82]	; 0x52
    315c:	eafffde9 	b	2908 <bitadjustr14>
    3160:	e5d10053 	ldrb	r0, [r1, #83]	; 0x53
    3164:	eafffde7 	b	2908 <bitadjustr14>
    3168:	e5d10054 	ldrb	r0, [r1, #84]	; 0x54
    316c:	eafffde5 	b	2908 <bitadjustr14>
    3170:	e5d10055 	ldrb	r0, [r1, #85]	; 0x55
    3174:	eafffde3 	b	2908 <bitadjustr14>
    3178:	e5d10056 	ldrb	r0, [r1, #86]	; 0x56
    317c:	eafffde1 	b	2908 <bitadjustr14>
    3180:	e5d10057 	ldrb	r0, [r1, #87]	; 0x57
    3184:	eafffddf 	b	2908 <bitadjustr14>
    3188:	e5d10058 	ldrb	r0, [r1, #88]	; 0x58
    318c:	eafffddd 	b	2908 <bitadjustr14>
    3190:	e5d10059 	ldrb	r0, [r1, #89]	; 0x59
    3194:	eafffddb 	b	2908 <bitadjustr14>
    3198:	e5d1005a 	ldrb	r0, [r1, #90]	; 0x5a
    319c:	eafffdd9 	b	2908 <bitadjustr14>
    31a0:	e5d1005b 	ldrb	r0, [r1, #91]	; 0x5b
    31a4:	eafffdd7 	b	2908 <bitadjustr14>
    31a8:	e5d1005c 	ldrb	r0, [r1, #92]	; 0x5c
    31ac:	eafffdd5 	b	2908 <bitadjustr14>
    31b0:	e5d1005d 	ldrb	r0, [r1, #93]	; 0x5d
    31b4:	eafffdd3 	b	2908 <bitadjustr14>
    31b8:	e5d1005e 	ldrb	r0, [r1, #94]	; 0x5e
    31bc:	eafffdd1 	b	2908 <bitadjustr14>
    31c0:	e5d1005f 	ldrb	r0, [r1, #95]	; 0x5f
    31c4:	eafffdcf 	b	2908 <bitadjustr14>
    31c8:	e5d10060 	ldrb	r0, [r1, #96]	; 0x60
    31cc:	eafffdcd 	b	2908 <bitadjustr14>
    31d0:	e5d10061 	ldrb	r0, [r1, #97]	; 0x61
    31d4:	eafffdcb 	b	2908 <bitadjustr14>
    31d8:	e5d10062 	ldrb	r0, [r1, #98]	; 0x62
    31dc:	eafffdc9 	b	2908 <bitadjustr14>
    31e0:	e5d10063 	ldrb	r0, [r1, #99]	; 0x63
    31e4:	eafffdc7 	b	2908 <bitadjustr14>
    31e8:	e5d10064 	ldrb	r0, [r1, #100]	; 0x64
    31ec:	eafffdc5 	b	2908 <bitadjustr14>
    31f0:	e5d10065 	ldrb	r0, [r1, #101]	; 0x65
    31f4:	eafffdc3 	b	2908 <bitadjustr14>
    31f8:	e5d10066 	ldrb	r0, [r1, #102]	; 0x66
    31fc:	eafffdc1 	b	2908 <bitadjustr14>
    3200:	e5d10067 	ldrb	r0, [r1, #103]	; 0x67
    3204:	eafffdbf 	b	2908 <bitadjustr14>
    3208:	e5d10068 	ldrb	r0, [r1, #104]	; 0x68
    320c:	eafffdbd 	b	2908 <bitadjustr14>
    3210:	e5d10069 	ldrb	r0, [r1, #105]	; 0x69
    3214:	eafffdbb 	b	2908 <bitadjustr14>
    3218:	e5d1006a 	ldrb	r0, [r1, #106]	; 0x6a
    321c:	eafffdb9 	b	2908 <bitadjustr14>
    3220:	e5d1006b 	ldrb	r0, [r1, #107]	; 0x6b
    3224:	eafffdb7 	b	2908 <bitadjustr14>
    3228:	e5d1006c 	ldrb	r0, [r1, #108]	; 0x6c
    322c:	eafffdb5 	b	2908 <bitadjustr14>
    3230:	e5d1006d 	ldrb	r0, [r1, #109]	; 0x6d
    3234:	eafffdb3 	b	2908 <bitadjustr14>
    3238:	e5d1006e 	ldrb	r0, [r1, #110]	; 0x6e
    323c:	eafffdb1 	b	2908 <bitadjustr14>
    3240:	e5d1006f 	ldrb	r0, [r1, #111]	; 0x6f
    3244:	eafffdaf 	b	2908 <bitadjustr14>
    3248:	e5d10070 	ldrb	r0, [r1, #112]	; 0x70
    324c:	eafffdad 	b	2908 <bitadjustr14>
    3250:	e5d10071 	ldrb	r0, [r1, #113]	; 0x71
    3254:	eafffdab 	b	2908 <bitadjustr14>
    3258:	e5d10072 	ldrb	r0, [r1, #114]	; 0x72
    325c:	eafffda9 	b	2908 <bitadjustr14>
    3260:	e5d10073 	ldrb	r0, [r1, #115]	; 0x73
    3264:	eafffda7 	b	2908 <bitadjustr14>
    3268:	e5d10074 	ldrb	r0, [r1, #116]	; 0x74
    326c:	eafffda5 	b	2908 <bitadjustr14>
    3270:	e5d10075 	ldrb	r0, [r1, #117]	; 0x75
    3274:	eafffda3 	b	2908 <bitadjustr14>
    3278:	e5d10076 	ldrb	r0, [r1, #118]	; 0x76
    327c:	eafffda1 	b	2908 <bitadjustr14>
    3280:	e5d10077 	ldrb	r0, [r1, #119]	; 0x77
    3284:	eafffd9f 	b	2908 <bitadjustr14>
    3288:	e5d10078 	ldrb	r0, [r1, #120]	; 0x78
    328c:	eafffd9d 	b	2908 <bitadjustr14>
    3290:	e5d10079 	ldrb	r0, [r1, #121]	; 0x79
    3294:	eafffd9b 	b	2908 <bitadjustr14>
    3298:	e5d1007a 	ldrb	r0, [r1, #122]	; 0x7a
    329c:	eafffd99 	b	2908 <bitadjustr14>
    32a0:	e5d1007b 	ldrb	r0, [r1, #123]	; 0x7b
    32a4:	eafffd97 	b	2908 <bitadjustr14>
    32a8:	e5d1007c 	ldrb	r0, [r1, #124]	; 0x7c
    32ac:	eafffd95 	b	2908 <bitadjustr14>
    32b0:	e5d1007d 	ldrb	r0, [r1, #125]	; 0x7d
    32b4:	eafffd93 	b	2908 <bitadjustr14>
    32b8:	e5d1007e 	ldrb	r0, [r1, #126]	; 0x7e
    32bc:	eafffd91 	b	2908 <bitadjustr14>
    32c0:	e5d1007f 	ldrb	r0, [r1, #127]	; 0x7f
    32c4:	eafffd8f 	b	2908 <bitadjustr14>
    32c8:	e5d10080 	ldrb	r0, [r1, #128]	; 0x80
    32cc:	eafffd8d 	b	2908 <bitadjustr14>
    32d0:	e5d10081 	ldrb	r0, [r1, #129]	; 0x81
    32d4:	eafffd8b 	b	2908 <bitadjustr14>
    32d8:	e5d10082 	ldrb	r0, [r1, #130]	; 0x82
    32dc:	eafffd89 	b	2908 <bitadjustr14>
    32e0:	e5d10083 	ldrb	r0, [r1, #131]	; 0x83
    32e4:	eafffd87 	b	2908 <bitadjustr14>
    32e8:	e5d10084 	ldrb	r0, [r1, #132]	; 0x84
    32ec:	eafffd85 	b	2908 <bitadjustr14>
    32f0:	e5d10085 	ldrb	r0, [r1, #133]	; 0x85
    32f4:	eafffd83 	b	2908 <bitadjustr14>
    32f8:	e5d10086 	ldrb	r0, [r1, #134]	; 0x86
    32fc:	eafffd81 	b	2908 <bitadjustr14>
    3300:	e5d10087 	ldrb	r0, [r1, #135]	; 0x87
    3304:	eafffd7f 	b	2908 <bitadjustr14>
    3308:	e5d10088 	ldrb	r0, [r1, #136]	; 0x88
    330c:	eafffd7d 	b	2908 <bitadjustr14>
    3310:	e5d10089 	ldrb	r0, [r1, #137]	; 0x89
    3314:	eafffd7b 	b	2908 <bitadjustr14>
    3318:	e5d1008a 	ldrb	r0, [r1, #138]	; 0x8a
    331c:	eafffd79 	b	2908 <bitadjustr14>
    3320:	e5d1008b 	ldrb	r0, [r1, #139]	; 0x8b
    3324:	eafffd77 	b	2908 <bitadjustr14>
    3328:	e5d1008c 	ldrb	r0, [r1, #140]	; 0x8c
    332c:	eafffd75 	b	2908 <bitadjustr14>
    3330:	e5d1008d 	ldrb	r0, [r1, #141]	; 0x8d
    3334:	eafffd73 	b	2908 <bitadjustr14>
    3338:	e5d1008e 	ldrb	r0, [r1, #142]	; 0x8e
    333c:	eafffd71 	b	2908 <bitadjustr14>
    3340:	e5d1008f 	ldrb	r0, [r1, #143]	; 0x8f
    3344:	eafffd6f 	b	2908 <bitadjustr14>
    3348:	e5d10090 	ldrb	r0, [r1, #144]	; 0x90
    334c:	eafffd6d 	b	2908 <bitadjustr14>
    3350:	e5d10091 	ldrb	r0, [r1, #145]	; 0x91
    3354:	eafffd6b 	b	2908 <bitadjustr14>
    3358:	e5d10092 	ldrb	r0, [r1, #146]	; 0x92
    335c:	eafffd69 	b	2908 <bitadjustr14>
    3360:	e5d10093 	ldrb	r0, [r1, #147]	; 0x93
    3364:	eafffd67 	b	2908 <bitadjustr14>
    3368:	e5d10094 	ldrb	r0, [r1, #148]	; 0x94
    336c:	eafffd65 	b	2908 <bitadjustr14>
    3370:	e5d10095 	ldrb	r0, [r1, #149]	; 0x95
    3374:	eafffd63 	b	2908 <bitadjustr14>
    3378:	e5d10096 	ldrb	r0, [r1, #150]	; 0x96
    337c:	eafffd61 	b	2908 <bitadjustr14>
    3380:	e5d10097 	ldrb	r0, [r1, #151]	; 0x97
    3384:	eafffd5f 	b	2908 <bitadjustr14>
    3388:	e5d10098 	ldrb	r0, [r1, #152]	; 0x98
    338c:	eafffd5d 	b	2908 <bitadjustr14>
    3390:	e5d10099 	ldrb	r0, [r1, #153]	; 0x99
    3394:	eafffd5b 	b	2908 <bitadjustr14>
    3398:	e5d1009a 	ldrb	r0, [r1, #154]	; 0x9a
    339c:	eafffd59 	b	2908 <bitadjustr14>
    33a0:	e5d1009b 	ldrb	r0, [r1, #155]	; 0x9b
    33a4:	eafffd57 	b	2908 <bitadjustr14>
    33a8:	e5d1009c 	ldrb	r0, [r1, #156]	; 0x9c
    33ac:	eafffd55 	b	2908 <bitadjustr14>
    33b0:	e5d1009d 	ldrb	r0, [r1, #157]	; 0x9d
    33b4:	eafffd53 	b	2908 <bitadjustr14>
    33b8:	e5d1009e 	ldrb	r0, [r1, #158]	; 0x9e
    33bc:	eafffd51 	b	2908 <bitadjustr14>
    33c0:	e5d1009f 	ldrb	r0, [r1, #159]	; 0x9f
    33c4:	eafffd4f 	b	2908 <bitadjustr14>
    33c8:	e5d100a0 	ldrb	r0, [r1, #160]	; 0xa0
    33cc:	eafffd4d 	b	2908 <bitadjustr14>
    33d0:	e5d100a1 	ldrb	r0, [r1, #161]	; 0xa1
    33d4:	eafffd4b 	b	2908 <bitadjustr14>
    33d8:	e5d100a2 	ldrb	r0, [r1, #162]	; 0xa2
    33dc:	eafffd49 	b	2908 <bitadjustr14>
    33e0:	e5d100a3 	ldrb	r0, [r1, #163]	; 0xa3
    33e4:	eafffd47 	b	2908 <bitadjustr14>
    33e8:	e5d100a4 	ldrb	r0, [r1, #164]	; 0xa4
    33ec:	eafffd45 	b	2908 <bitadjustr14>
    33f0:	e5d100a5 	ldrb	r0, [r1, #165]	; 0xa5
    33f4:	eafffd43 	b	2908 <bitadjustr14>
    33f8:	e5d100a6 	ldrb	r0, [r1, #166]	; 0xa6
    33fc:	eafffd41 	b	2908 <bitadjustr14>
    3400:	e5d100a7 	ldrb	r0, [r1, #167]	; 0xa7
    3404:	eafffd3f 	b	2908 <bitadjustr14>
    3408:	e5d100a8 	ldrb	r0, [r1, #168]	; 0xa8
    340c:	eafffd3d 	b	2908 <bitadjustr14>
    3410:	e5d100a9 	ldrb	r0, [r1, #169]	; 0xa9
    3414:	eafffd3b 	b	2908 <bitadjustr14>
    3418:	e5d100aa 	ldrb	r0, [r1, #170]	; 0xaa
    341c:	eafffd39 	b	2908 <bitadjustr14>
    3420:	e5d100ab 	ldrb	r0, [r1, #171]	; 0xab
    3424:	eafffd37 	b	2908 <bitadjustr14>
    3428:	e5d100ac 	ldrb	r0, [r1, #172]	; 0xac
    342c:	eafffd35 	b	2908 <bitadjustr14>
    3430:	e5d100ad 	ldrb	r0, [r1, #173]	; 0xad
    3434:	eafffd33 	b	2908 <bitadjustr14>
    3438:	e5d100ae 	ldrb	r0, [r1, #174]	; 0xae
    343c:	eafffd31 	b	2908 <bitadjustr14>
    3440:	e5d100af 	ldrb	r0, [r1, #175]	; 0xaf
    3444:	eafffd2f 	b	2908 <bitadjustr14>
    3448:	e5d100b0 	ldrb	r0, [r1, #176]	; 0xb0
    344c:	eafffd2d 	b	2908 <bitadjustr14>
    3450:	e5d100b1 	ldrb	r0, [r1, #177]	; 0xb1
    3454:	eafffd2b 	b	2908 <bitadjustr14>
    3458:	e5d100b2 	ldrb	r0, [r1, #178]	; 0xb2
    345c:	eafffd29 	b	2908 <bitadjustr14>
    3460:	e5d100b3 	ldrb	r0, [r1, #179]	; 0xb3
    3464:	eafffd27 	b	2908 <bitadjustr14>
    3468:	e5d100b4 	ldrb	r0, [r1, #180]	; 0xb4
    346c:	eafffd25 	b	2908 <bitadjustr14>
    3470:	e5d100b5 	ldrb	r0, [r1, #181]	; 0xb5
    3474:	eafffd23 	b	2908 <bitadjustr14>
    3478:	e5d100b6 	ldrb	r0, [r1, #182]	; 0xb6
    347c:	eafffd21 	b	2908 <bitadjustr14>
    3480:	e5d100b7 	ldrb	r0, [r1, #183]	; 0xb7
    3484:	eafffd1f 	b	2908 <bitadjustr14>
    3488:	e5d100b8 	ldrb	r0, [r1, #184]	; 0xb8
    348c:	eafffd1d 	b	2908 <bitadjustr14>
    3490:	e5d100b9 	ldrb	r0, [r1, #185]	; 0xb9
    3494:	eafffd1b 	b	2908 <bitadjustr14>
    3498:	e5d100ba 	ldrb	r0, [r1, #186]	; 0xba
    349c:	eafffd19 	b	2908 <bitadjustr14>
    34a0:	e5d100bb 	ldrb	r0, [r1, #187]	; 0xbb
    34a4:	eafffd17 	b	2908 <bitadjustr14>
    34a8:	e5d100bc 	ldrb	r0, [r1, #188]	; 0xbc
    34ac:	eafffd15 	b	2908 <bitadjustr14>
    34b0:	e5d100bd 	ldrb	r0, [r1, #189]	; 0xbd
    34b4:	eafffd13 	b	2908 <bitadjustr14>
    34b8:	e5d100be 	ldrb	r0, [r1, #190]	; 0xbe
    34bc:	eafffd11 	b	2908 <bitadjustr14>
    34c0:	e5d100bf 	ldrb	r0, [r1, #191]	; 0xbf
    34c4:	eafffd0f 	b	2908 <bitadjustr14>
    34c8:	e5d100c0 	ldrb	r0, [r1, #192]	; 0xc0
    34cc:	eafffd0d 	b	2908 <bitadjustr14>
    34d0:	e5d100c1 	ldrb	r0, [r1, #193]	; 0xc1
    34d4:	eafffd0b 	b	2908 <bitadjustr14>
    34d8:	e5d100c2 	ldrb	r0, [r1, #194]	; 0xc2
    34dc:	eafffd09 	b	2908 <bitadjustr14>
    34e0:	e5d100c3 	ldrb	r0, [r1, #195]	; 0xc3
    34e4:	eafffd07 	b	2908 <bitadjustr14>
    34e8:	e5d100c4 	ldrb	r0, [r1, #196]	; 0xc4
    34ec:	eafffd05 	b	2908 <bitadjustr14>
    34f0:	e5d100c5 	ldrb	r0, [r1, #197]	; 0xc5
    34f4:	eafffd03 	b	2908 <bitadjustr14>
    34f8:	e5d100c6 	ldrb	r0, [r1, #198]	; 0xc6
    34fc:	eafffd01 	b	2908 <bitadjustr14>
    3500:	e5d100c7 	ldrb	r0, [r1, #199]	; 0xc7
    3504:	eafffcff 	b	2908 <bitadjustr14>
    3508:	e5d100c8 	ldrb	r0, [r1, #200]	; 0xc8
    350c:	eafffcfd 	b	2908 <bitadjustr14>
    3510:	e5d100c9 	ldrb	r0, [r1, #201]	; 0xc9
    3514:	eafffcfb 	b	2908 <bitadjustr14>
    3518:	e5d100ca 	ldrb	r0, [r1, #202]	; 0xca
    351c:	eafffcf9 	b	2908 <bitadjustr14>
    3520:	e5d100cb 	ldrb	r0, [r1, #203]	; 0xcb
    3524:	eafffcf7 	b	2908 <bitadjustr14>
    3528:	e5d100cc 	ldrb	r0, [r1, #204]	; 0xcc
    352c:	eafffcf5 	b	2908 <bitadjustr14>
    3530:	e5d100cd 	ldrb	r0, [r1, #205]	; 0xcd
    3534:	eafffcf3 	b	2908 <bitadjustr14>
    3538:	e5d100ce 	ldrb	r0, [r1, #206]	; 0xce
    353c:	eafffcf1 	b	2908 <bitadjustr14>
    3540:	e5d100cf 	ldrb	r0, [r1, #207]	; 0xcf
    3544:	eafffcef 	b	2908 <bitadjustr14>
    3548:	e5d100d0 	ldrb	r0, [r1, #208]	; 0xd0
    354c:	eafffced 	b	2908 <bitadjustr14>
    3550:	e5d100d1 	ldrb	r0, [r1, #209]	; 0xd1
    3554:	eafffceb 	b	2908 <bitadjustr14>
    3558:	e5d100d2 	ldrb	r0, [r1, #210]	; 0xd2
    355c:	eafffce9 	b	2908 <bitadjustr14>
    3560:	e5d100d3 	ldrb	r0, [r1, #211]	; 0xd3
    3564:	eafffce7 	b	2908 <bitadjustr14>
    3568:	e5d100d4 	ldrb	r0, [r1, #212]	; 0xd4
    356c:	eafffce5 	b	2908 <bitadjustr14>
    3570:	e5d100d5 	ldrb	r0, [r1, #213]	; 0xd5
    3574:	eafffce3 	b	2908 <bitadjustr14>
    3578:	e5d100d6 	ldrb	r0, [r1, #214]	; 0xd6
    357c:	eafffce1 	b	2908 <bitadjustr14>
    3580:	e5d100d7 	ldrb	r0, [r1, #215]	; 0xd7
    3584:	eafffcdf 	b	2908 <bitadjustr14>
    3588:	e5d100d8 	ldrb	r0, [r1, #216]	; 0xd8
    358c:	eafffcdd 	b	2908 <bitadjustr14>
    3590:	e5d100d9 	ldrb	r0, [r1, #217]	; 0xd9
    3594:	eafffcdb 	b	2908 <bitadjustr14>
    3598:	e5d100da 	ldrb	r0, [r1, #218]	; 0xda
    359c:	eafffcd9 	b	2908 <bitadjustr14>
    35a0:	e5d100db 	ldrb	r0, [r1, #219]	; 0xdb
    35a4:	eafffcd7 	b	2908 <bitadjustr14>
    35a8:	e5d100dc 	ldrb	r0, [r1, #220]	; 0xdc
    35ac:	eafffcd5 	b	2908 <bitadjustr14>
    35b0:	e5d100dd 	ldrb	r0, [r1, #221]	; 0xdd
    35b4:	eafffcd3 	b	2908 <bitadjustr14>
    35b8:	e5d100de 	ldrb	r0, [r1, #222]	; 0xde
    35bc:	eafffcd1 	b	2908 <bitadjustr14>
    35c0:	e5d100df 	ldrb	r0, [r1, #223]	; 0xdf
    35c4:	eafffccf 	b	2908 <bitadjustr14>
    35c8:	e5d100e0 	ldrb	r0, [r1, #224]	; 0xe0
    35cc:	eafffccd 	b	2908 <bitadjustr14>
    35d0:	e5d100e1 	ldrb	r0, [r1, #225]	; 0xe1
    35d4:	eafffccb 	b	2908 <bitadjustr14>
    35d8:	e5d100e2 	ldrb	r0, [r1, #226]	; 0xe2
    35dc:	eafffcc9 	b	2908 <bitadjustr14>
    35e0:	e5d100e3 	ldrb	r0, [r1, #227]	; 0xe3
    35e4:	eafffcc7 	b	2908 <bitadjustr14>
    35e8:	e5d100e4 	ldrb	r0, [r1, #228]	; 0xe4
    35ec:	eafffcc5 	b	2908 <bitadjustr14>
    35f0:	e5d100e5 	ldrb	r0, [r1, #229]	; 0xe5
    35f4:	eafffcc3 	b	2908 <bitadjustr14>
    35f8:	e5d100e6 	ldrb	r0, [r1, #230]	; 0xe6
    35fc:	eafffcc1 	b	2908 <bitadjustr14>
    3600:	e5d100e7 	ldrb	r0, [r1, #231]	; 0xe7
    3604:	eafffcbf 	b	2908 <bitadjustr14>
    3608:	e5d100e8 	ldrb	r0, [r1, #232]	; 0xe8
    360c:	eafffcbd 	b	2908 <bitadjustr14>
    3610:	e5d100e9 	ldrb	r0, [r1, #233]	; 0xe9
    3614:	eafffcbb 	b	2908 <bitadjustr14>
    3618:	e5d100ea 	ldrb	r0, [r1, #234]	; 0xea
    361c:	eafffcb9 	b	2908 <bitadjustr14>
    3620:	e5d100eb 	ldrb	r0, [r1, #235]	; 0xeb
    3624:	eafffcb7 	b	2908 <bitadjustr14>
    3628:	e5d100ec 	ldrb	r0, [r1, #236]	; 0xec
    362c:	eafffcb5 	b	2908 <bitadjustr14>
    3630:	e5d100ed 	ldrb	r0, [r1, #237]	; 0xed
    3634:	eafffcb3 	b	2908 <bitadjustr14>
    3638:	e5d100ee 	ldrb	r0, [r1, #238]	; 0xee
    363c:	eafffcb1 	b	2908 <bitadjustr14>
    3640:	e5d100ef 	ldrb	r0, [r1, #239]	; 0xef
    3644:	eafffcaf 	b	2908 <bitadjustr14>
    3648:	e5d100f0 	ldrb	r0, [r1, #240]	; 0xf0
    364c:	eafffcad 	b	2908 <bitadjustr14>
    3650:	e5d100f1 	ldrb	r0, [r1, #241]	; 0xf1
    3654:	eafffcab 	b	2908 <bitadjustr14>
    3658:	e5d100f2 	ldrb	r0, [r1, #242]	; 0xf2
    365c:	eafffca9 	b	2908 <bitadjustr14>
    3660:	e5d100f3 	ldrb	r0, [r1, #243]	; 0xf3
    3664:	eafffca7 	b	2908 <bitadjustr14>
    3668:	e5d100f4 	ldrb	r0, [r1, #244]	; 0xf4
    366c:	eafffca5 	b	2908 <bitadjustr14>
    3670:	e5d100f5 	ldrb	r0, [r1, #245]	; 0xf5
    3674:	eafffca3 	b	2908 <bitadjustr14>
    3678:	e5d100f6 	ldrb	r0, [r1, #246]	; 0xf6
    367c:	eafffca1 	b	2908 <bitadjustr14>
    3680:	e5d100f7 	ldrb	r0, [r1, #247]	; 0xf7
    3684:	eafffc9f 	b	2908 <bitadjustr14>
    3688:	e5d100f8 	ldrb	r0, [r1, #248]	; 0xf8
    368c:	eafffc9d 	b	2908 <bitadjustr14>
    3690:	e5d100f9 	ldrb	r0, [r1, #249]	; 0xf9
    3694:	eafffc9b 	b	2908 <bitadjustr14>
    3698:	e5d100fa 	ldrb	r0, [r1, #250]	; 0xfa
    369c:	eafffc99 	b	2908 <bitadjustr14>
    36a0:	e5d100fb 	ldrb	r0, [r1, #251]	; 0xfb
    36a4:	eafffc97 	b	2908 <bitadjustr14>
    36a8:	e5d100fc 	ldrb	r0, [r1, #252]	; 0xfc
    36ac:	eafffc95 	b	2908 <bitadjustr14>
    36b0:	e5d100fd 	ldrb	r0, [r1, #253]	; 0xfd
    36b4:	eafffc93 	b	2908 <bitadjustr14>
    36b8:	e5d100fe 	ldrb	r0, [r1, #254]	; 0xfe
    36bc:	eafffc91 	b	2908 <bitadjustr14>
    36c0:	e5d100ff 	ldrb	r0, [r1, #255]	; 0xff
    36c4:	eafffc8f 	b	2908 <bitadjustr14>
