Archive member included to satisfy reference by file (symbol)

/usr/lib/gcc/arm-none-eabi/11.2.0/../../../../arm-none-eabi/lib/thumb/v7+fp/hard/libm.a(lib_a-wf_sqrt.o)
                              CMakeFiles/tube-client.dir/framebuffer/primitives.c.obj (sqrtf)
/usr/lib/gcc/arm-none-eabi/11.2.0/../../../../arm-none-eabi/lib/thumb/v7+fp/hard/libm.a(lib_a-w_sqrt.o)
                              CMakeFiles/tube-client.dir/framebuffer/primitives.c.obj (sqrt)
/usr/lib/gcc/arm-none-eabi/11.2.0/../../../../arm-none-eabi/lib/thumb/v7+fp/hard/libm.a(lib_a-ef_sqrt.o)
                              /usr/lib/gcc/arm-none-eabi/11.2.0/../../../../arm-none-eabi/lib/thumb/v7+fp/hard/libm.a(lib_a-wf_sqrt.o) (__ieee754_sqrtf)
/usr/lib/gcc/arm-none-eabi/11.2.0/../../../../arm-none-eabi/lib/thumb/v7+fp/hard/libm.a(lib_a-e_sqrt.o)
                              /usr/lib/gcc/arm-none-eabi/11.2.0/../../../../arm-none-eabi/lib/thumb/v7+fp/hard/libm.a(lib_a-w_sqrt.o) (__ieee754_sqrt)
/usr/lib/gcc/arm-none-eabi/11.2.0/thumb/v7+fp/hard/libgcc.a(_aeabi_uldivmod.o)
                              CMakeFiles/tube-client.dir/NS32016/32016.c.obj (__aeabi_uldivmod)
/usr/lib/gcc/arm-none-eabi/11.2.0/thumb/v7+fp/hard/libgcc.a(_udivmoddi4.o)
                              /usr/lib/gcc/arm-none-eabi/11.2.0/thumb/v7+fp/hard/libgcc.a(_aeabi_uldivmod.o) (__udivmoddi4)
/usr/lib/gcc/arm-none-eabi/11.2.0/thumb/v7+fp/hard/libgcc.a(_dvmd_tls.o)
                              /usr/lib/gcc/arm-none-eabi/11.2.0/thumb/v7+fp/hard/libgcc.a(_aeabi_uldivmod.o) (__aeabi_ldiv0)
/usr/lib/gcc/arm-none-eabi/11.2.0/../../../../arm-none-eabi/lib/thumb/v7+fp/hard/libc_nano.a(lib_a-atoi.o)
                              CMakeFiles/tube-client.dir/tube-client.c.obj (atoi)
/usr/lib/gcc/arm-none-eabi/11.2.0/../../../../arm-none-eabi/lib/thumb/v7+fp/hard/libc_nano.a(lib_a-calloc.o)
                              CMakeFiles/tube-client.dir/framebuffer/fonts.c.obj (calloc)
/usr/lib/gcc/arm-none-eabi/11.2.0/../../../../arm-none-eabi/lib/thumb/v7+fp/hard/libc_nano.a(lib_a-ctype_.o)
                              CMakeFiles/tube-client.dir/darm/darm.c.obj (_ctype_)
/usr/lib/gcc/arm-none-eabi/11.2.0/../../../../arm-none-eabi/lib/thumb/v7+fp/hard/libc_nano.a(lib_a-errno.o)
                              /usr/lib/gcc/arm-none-eabi/11.2.0/../../../../arm-none-eabi/lib/thumb/v7+fp/hard/libm.a(lib_a-wf_sqrt.o) (__errno)
/usr/lib/gcc/arm-none-eabi/11.2.0/../../../../arm-none-eabi/lib/thumb/v7+fp/hard/libc_nano.a(lib_a-fflush.o)
                              CMakeFiles/tube-client.dir/lib6502.c.obj (fflush)
/usr/lib/gcc/arm-none-eabi/11.2.0/../../../../arm-none-eabi/lib/thumb/v7+fp/hard/libc_nano.a(lib_a-findfp.o)
                              /usr/lib/gcc/arm-none-eabi/11.2.0/../../../../arm-none-eabi/lib/thumb/v7+fp/hard/libc_nano.a(lib_a-fflush.o) (__sinit)
/usr/lib/gcc/arm-none-eabi/11.2.0/../../../../arm-none-eabi/lib/thumb/v7+fp/hard/libc_nano.a(lib_a-fwalk.o)
                              /usr/lib/gcc/arm-none-eabi/11.2.0/../../../../arm-none-eabi/lib/thumb/v7+fp/hard/libc_nano.a(lib_a-findfp.o) (_fwalk)
/usr/lib/gcc/arm-none-eabi/11.2.0/../../../../arm-none-eabi/lib/thumb/v7+fp/hard/libc_nano.a(lib_a-fwrite.o)
                              CMakeFiles/tube-client.dir/lib6502.c.obj (fwrite)
/usr/lib/gcc/arm-none-eabi/11.2.0/../../../../arm-none-eabi/lib/thumb/v7+fp/hard/libc_nano.a(lib_a-impure.o)
                              /usr/lib/gcc/arm-none-eabi/11.2.0/../../../../arm-none-eabi/lib/thumb/v7+fp/hard/libc_nano.a(lib_a-fflush.o) (_global_impure_ptr)
/usr/lib/gcc/arm-none-eabi/11.2.0/../../../../arm-none-eabi/lib/thumb/v7+fp/hard/libc_nano.a(lib_a-lock.o)
                              /usr/lib/gcc/arm-none-eabi/11.2.0/../../../../arm-none-eabi/lib/thumb/v7+fp/hard/libc_nano.a(lib_a-findfp.o) (__retarget_lock_init_recursive)
/usr/lib/gcc/arm-none-eabi/11.2.0/../../../../arm-none-eabi/lib/thumb/v7+fp/hard/libc_nano.a(lib_a-malloc.o)
                              CMakeFiles/tube-client.dir/framebuffer/primitives.c.obj (malloc)
/usr/lib/gcc/arm-none-eabi/11.2.0/../../../../arm-none-eabi/lib/thumb/v7+fp/hard/libc_nano.a(lib_a-memcpy-stub.o)
                              CMakeFiles/tube-client.dir/framebuffer/fonts.c.obj (memcpy)
/usr/lib/gcc/arm-none-eabi/11.2.0/../../../../arm-none-eabi/lib/thumb/v7+fp/hard/libc_nano.a(lib_a-memmove.o)
                              CMakeFiles/tube-client.dir/framebuffer/primitives.c.obj (memmove)
/usr/lib/gcc/arm-none-eabi/11.2.0/../../../../arm-none-eabi/lib/thumb/v7+fp/hard/libc_nano.a(lib_a-memset.o)
                              CMakeFiles/tube-client.dir/armc-cstartup.c.obj (memset)
/usr/lib/gcc/arm-none-eabi/11.2.0/../../../../arm-none-eabi/lib/thumb/v7+fp/hard/libc_nano.a(lib_a-nano-callocr.o)
                              /usr/lib/gcc/arm-none-eabi/11.2.0/../../../../arm-none-eabi/lib/thumb/v7+fp/hard/libc_nano.a(lib_a-calloc.o) (_calloc_r)
/usr/lib/gcc/arm-none-eabi/11.2.0/../../../../arm-none-eabi/lib/thumb/v7+fp/hard/libc_nano.a(lib_a-nano-freer.o)
                              /usr/lib/gcc/arm-none-eabi/11.2.0/../../../../arm-none-eabi/lib/thumb/v7+fp/hard/libc_nano.a(lib_a-fflush.o) (_free_r)
/usr/lib/gcc/arm-none-eabi/11.2.0/../../../../arm-none-eabi/lib/thumb/v7+fp/hard/libc_nano.a(lib_a-nano-mallocr.o)
                              /usr/lib/gcc/arm-none-eabi/11.2.0/../../../../arm-none-eabi/lib/thumb/v7+fp/hard/libc_nano.a(lib_a-findfp.o) (_malloc_r)
/usr/lib/gcc/arm-none-eabi/11.2.0/../../../../arm-none-eabi/lib/thumb/v7+fp/hard/libc_nano.a(lib_a-nano-vfprintf_float.o)
                              (_printf_float)
/usr/lib/gcc/arm-none-eabi/11.2.0/../../../../arm-none-eabi/lib/thumb/v7+fp/hard/libc_nano.a(lib_a-nano-vfprintf_i.o)
                              /usr/lib/gcc/arm-none-eabi/11.2.0/../../../../arm-none-eabi/lib/thumb/v7+fp/hard/libc_nano.a(lib_a-nano-vfprintf_float.o) (_printf_common)
/usr/lib/gcc/arm-none-eabi/11.2.0/../../../../arm-none-eabi/lib/thumb/v7+fp/hard/libc_nano.a(lib_a-printf.o)
                              CMakeFiles/tube-client.dir/framebuffer/framebuffer.c.obj (printf)
/usr/lib/gcc/arm-none-eabi/11.2.0/../../../../arm-none-eabi/lib/thumb/v7+fp/hard/libc_nano.a(lib_a-putchar.o)
                              CMakeFiles/tube-client.dir/jit.S.obj (putchar)
/usr/lib/gcc/arm-none-eabi/11.2.0/../../../../arm-none-eabi/lib/thumb/v7+fp/hard/libc_nano.a(lib_a-putc.o)
                              /usr/lib/gcc/arm-none-eabi/11.2.0/../../../../arm-none-eabi/lib/thumb/v7+fp/hard/libc_nano.a(lib_a-putchar.o) (_putc_r)
/usr/lib/gcc/arm-none-eabi/11.2.0/../../../../arm-none-eabi/lib/thumb/v7+fp/hard/libc_nano.a(lib_a-puts.o)
                              CMakeFiles/tube-client.dir/framebuffer/v3d.c.obj (puts)
/usr/lib/gcc/arm-none-eabi/11.2.0/../../../../arm-none-eabi/lib/thumb/v7+fp/hard/libc_nano.a(lib_a-random.o)
                              CMakeFiles/tube-client.dir/tube-commands.c.obj (random)
/usr/lib/gcc/arm-none-eabi/11.2.0/../../../../arm-none-eabi/lib/thumb/v7+fp/hard/libc_nano.a(lib_a-reent.o)
                              CMakeFiles/tube-client.dir/armc-cstubs.c.obj (errno)
/usr/lib/gcc/arm-none-eabi/11.2.0/../../../../arm-none-eabi/lib/thumb/v7+fp/hard/libc_nano.a(lib_a-sbrkr.o)
                              /usr/lib/gcc/arm-none-eabi/11.2.0/../../../../arm-none-eabi/lib/thumb/v7+fp/hard/libc_nano.a(lib_a-nano-mallocr.o) (_sbrk_r)
/usr/lib/gcc/arm-none-eabi/11.2.0/../../../../arm-none-eabi/lib/thumb/v7+fp/hard/libc_nano.a(lib_a-setjmp.o)
                              CMakeFiles/tube-client.dir/pdp11/pdp11.c.obj (setjmp)
/usr/lib/gcc/arm-none-eabi/11.2.0/../../../../arm-none-eabi/lib/thumb/v7+fp/hard/libc_nano.a(lib_a-snprintf.o)
                              CMakeFiles/tube-client.dir/programs.c.obj (snprintf)
/usr/lib/gcc/arm-none-eabi/11.2.0/../../../../arm-none-eabi/lib/thumb/v7+fp/hard/libc_nano.a(lib_a-sprintf.o)
                              CMakeFiles/tube-client.dir/framebuffer/framebuffer.c.obj (sprintf)
/usr/lib/gcc/arm-none-eabi/11.2.0/../../../../arm-none-eabi/lib/thumb/v7+fp/hard/libc_nano.a(lib_a-sscanf.o)
                              CMakeFiles/tube-client.dir/tube-commands.c.obj (sscanf)
/usr/lib/gcc/arm-none-eabi/11.2.0/../../../../arm-none-eabi/lib/thumb/v7+fp/hard/libc_nano.a(lib_a-stdio.o)
                              /usr/lib/gcc/arm-none-eabi/11.2.0/../../../../arm-none-eabi/lib/thumb/v7+fp/hard/libc_nano.a(lib_a-findfp.o) (__sread)
/usr/lib/gcc/arm-none-eabi/11.2.0/../../../../arm-none-eabi/lib/thumb/v7+fp/hard/libc_nano.a(lib_a-strcasecmp.o)
                              CMakeFiles/tube-client.dir/framebuffer/fonts.c.obj (strcasecmp)
/usr/lib/gcc/arm-none-eabi/11.2.0/../../../../arm-none-eabi/lib/thumb/v7+fp/hard/libc_nano.a(lib_a-strchr.o)
                              CMakeFiles/tube-client.dir/info.c.obj (strchr)
/usr/lib/gcc/arm-none-eabi/11.2.0/../../../../arm-none-eabi/lib/thumb/v7+fp/hard/libc_nano.a(lib_a-strcmp.o)
                              CMakeFiles/tube-client.dir/cpu80186/i386dasm.c.obj (strcmp)
/usr/lib/gcc/arm-none-eabi/11.2.0/../../../../arm-none-eabi/lib/thumb/v7+fp/hard/libc_nano.a(lib_a-strcpy.o)
                              CMakeFiles/tube-client.dir/programs.c.obj (strcpy)
/usr/lib/gcc/arm-none-eabi/11.2.0/../../../../arm-none-eabi/lib/thumb/v7+fp/hard/libc_nano.a(lib_a-strlen.o)
                              CMakeFiles/tube-client.dir/framebuffer/swi_impl.c.obj (strlen)
/usr/lib/gcc/arm-none-eabi/11.2.0/../../../../arm-none-eabi/lib/thumb/v7+fp/hard/libc_nano.a(lib_a-strncasecmp.o)
                              CMakeFiles/tube-client.dir/info.c.obj (strncasecmp)
/usr/lib/gcc/arm-none-eabi/11.2.0/../../../../arm-none-eabi/lib/thumb/v7+fp/hard/libc_nano.a(lib_a-strncmp.o)
                              CMakeFiles/tube-client.dir/framebuffer/fonts.c.obj (strncmp)
/usr/lib/gcc/arm-none-eabi/11.2.0/../../../../arm-none-eabi/lib/thumb/v7+fp/hard/libc_nano.a(lib_a-strncpy.o)
                              CMakeFiles/tube-client.dir/copro-65tubejit.c.obj (strncpy)
/usr/lib/gcc/arm-none-eabi/11.2.0/../../../../arm-none-eabi/lib/thumb/v7+fp/hard/libc_nano.a(lib_a-strtol.o)
                              /usr/lib/gcc/arm-none-eabi/11.2.0/../../../../arm-none-eabi/lib/thumb/v7+fp/hard/libc_nano.a(lib_a-atoi.o) (_strtol_r)
/usr/lib/gcc/arm-none-eabi/11.2.0/../../../../arm-none-eabi/lib/thumb/v7+fp/hard/libc_nano.a(lib_a-vprintf.o)
                              CMakeFiles/tube-client.dir/logging.c.obj (vprintf)
/usr/lib/gcc/arm-none-eabi/11.2.0/../../../../arm-none-eabi/lib/thumb/v7+fp/hard/libc_nano.a(lib_a-vsnprintf.o)
                              CMakeFiles/tube-client.dir/NS32016/32016.c.obj (vsnprintf)
/usr/lib/gcc/arm-none-eabi/11.2.0/../../../../arm-none-eabi/lib/thumb/v7+fp/hard/libc_nano.a(lib_a-wbuf.o)
                              /usr/lib/gcc/arm-none-eabi/11.2.0/../../../../arm-none-eabi/lib/thumb/v7+fp/hard/libc_nano.a(lib_a-fwrite.o) (__swbuf_r)
/usr/lib/gcc/arm-none-eabi/11.2.0/../../../../arm-none-eabi/lib/thumb/v7+fp/hard/libc_nano.a(lib_a-writer.o)
                              /usr/lib/gcc/arm-none-eabi/11.2.0/../../../../arm-none-eabi/lib/thumb/v7+fp/hard/libc_nano.a(lib_a-stdio.o) (_write_r)
/usr/lib/gcc/arm-none-eabi/11.2.0/../../../../arm-none-eabi/lib/thumb/v7+fp/hard/libc_nano.a(lib_a-wsetup.o)
                              /usr/lib/gcc/arm-none-eabi/11.2.0/../../../../arm-none-eabi/lib/thumb/v7+fp/hard/libc_nano.a(lib_a-fwrite.o) (__swsetup_r)
/usr/lib/gcc/arm-none-eabi/11.2.0/../../../../arm-none-eabi/lib/thumb/v7+fp/hard/libc_nano.a(lib_a-assert.o)
                              /usr/lib/gcc/arm-none-eabi/11.2.0/../../../../arm-none-eabi/lib/thumb/v7+fp/hard/libc_nano.a(lib_a-random.o) (__assert_func)
/usr/lib/gcc/arm-none-eabi/11.2.0/../../../../arm-none-eabi/lib/thumb/v7+fp/hard/libc_nano.a(lib_a-closer.o)
                              /usr/lib/gcc/arm-none-eabi/11.2.0/../../../../arm-none-eabi/lib/thumb/v7+fp/hard/libc_nano.a(lib_a-stdio.o) (_close_r)
/usr/lib/gcc/arm-none-eabi/11.2.0/../../../../arm-none-eabi/lib/thumb/v7+fp/hard/libc_nano.a(lib_a-dtoa.o)
                              /usr/lib/gcc/arm-none-eabi/11.2.0/../../../../arm-none-eabi/lib/thumb/v7+fp/hard/libc_nano.a(lib_a-nano-vfprintf_float.o) (_dtoa_r)
/usr/lib/gcc/arm-none-eabi/11.2.0/../../../../arm-none-eabi/lib/thumb/v7+fp/hard/libc_nano.a(lib_a-fprintf.o)
                              /usr/lib/gcc/arm-none-eabi/11.2.0/../../../../arm-none-eabi/lib/thumb/v7+fp/hard/libc_nano.a(lib_a-assert.o) (fiprintf)
/usr/lib/gcc/arm-none-eabi/11.2.0/../../../../arm-none-eabi/lib/thumb/v7+fp/hard/libc_nano.a(lib_a-localeconv.o)
                              /usr/lib/gcc/arm-none-eabi/11.2.0/../../../../arm-none-eabi/lib/thumb/v7+fp/hard/libc_nano.a(lib_a-nano-vfprintf_float.o) (_localeconv_r)
/usr/lib/gcc/arm-none-eabi/11.2.0/../../../../arm-none-eabi/lib/thumb/v7+fp/hard/libc_nano.a(lib_a-locale.o)
                              /usr/lib/gcc/arm-none-eabi/11.2.0/../../../../arm-none-eabi/lib/thumb/v7+fp/hard/libc_nano.a(lib_a-localeconv.o) (__global_locale)
/usr/lib/gcc/arm-none-eabi/11.2.0/../../../../arm-none-eabi/lib/thumb/v7+fp/hard/libc_nano.a(lib_a-lseekr.o)
                              /usr/lib/gcc/arm-none-eabi/11.2.0/../../../../arm-none-eabi/lib/thumb/v7+fp/hard/libc_nano.a(lib_a-stdio.o) (_lseek_r)
/usr/lib/gcc/arm-none-eabi/11.2.0/../../../../arm-none-eabi/lib/thumb/v7+fp/hard/libc_nano.a(lib_a-makebuf.o)
                              /usr/lib/gcc/arm-none-eabi/11.2.0/../../../../arm-none-eabi/lib/thumb/v7+fp/hard/libc_nano.a(lib_a-wsetup.o) (__smakebuf_r)
/usr/lib/gcc/arm-none-eabi/11.2.0/../../../../arm-none-eabi/lib/thumb/v7+fp/hard/libc_nano.a(lib_a-mbtowc_r.o)
                              /usr/lib/gcc/arm-none-eabi/11.2.0/../../../../arm-none-eabi/lib/thumb/v7+fp/hard/libc_nano.a(lib_a-locale.o) (__ascii_mbtowc)
/usr/lib/gcc/arm-none-eabi/11.2.0/../../../../arm-none-eabi/lib/thumb/v7+fp/hard/libc_nano.a(lib_a-memchr-stub.o)
                              /usr/lib/gcc/arm-none-eabi/11.2.0/../../../../arm-none-eabi/lib/thumb/v7+fp/hard/libc_nano.a(lib_a-nano-vfprintf_i.o) (memchr)
/usr/lib/gcc/arm-none-eabi/11.2.0/../../../../arm-none-eabi/lib/thumb/v7+fp/hard/libc_nano.a(lib_a-mlock.o)
                              /usr/lib/gcc/arm-none-eabi/11.2.0/../../../../arm-none-eabi/lib/thumb/v7+fp/hard/libc_nano.a(lib_a-nano-freer.o) (__malloc_lock)
/usr/lib/gcc/arm-none-eabi/11.2.0/../../../../arm-none-eabi/lib/thumb/v7+fp/hard/libc_nano.a(lib_a-mprec.o)
                              /usr/lib/gcc/arm-none-eabi/11.2.0/../../../../arm-none-eabi/lib/thumb/v7+fp/hard/libc_nano.a(lib_a-dtoa.o) (_Balloc)
/usr/lib/gcc/arm-none-eabi/11.2.0/../../../../arm-none-eabi/lib/thumb/v7+fp/hard/libc_nano.a(lib_a-nano-svfprintf.o)
                              /usr/lib/gcc/arm-none-eabi/11.2.0/../../../../arm-none-eabi/lib/thumb/v7+fp/hard/libc_nano.a(lib_a-snprintf.o) (_svfprintf_r)
/usr/lib/gcc/arm-none-eabi/11.2.0/../../../../arm-none-eabi/lib/thumb/v7+fp/hard/libc_nano.a(lib_a-nano-svfscanf.o)
                              /usr/lib/gcc/arm-none-eabi/11.2.0/../../../../arm-none-eabi/lib/thumb/v7+fp/hard/libc_nano.a(lib_a-sscanf.o) (__ssvfscanf_r)
/usr/lib/gcc/arm-none-eabi/11.2.0/../../../../arm-none-eabi/lib/thumb/v7+fp/hard/libc_nano.a(lib_a-nano-vfprintf.o)
                              /usr/lib/gcc/arm-none-eabi/11.2.0/../../../../arm-none-eabi/lib/thumb/v7+fp/hard/libc_nano.a(lib_a-printf.o) (_vfprintf_r)
/usr/lib/gcc/arm-none-eabi/11.2.0/../../../../arm-none-eabi/lib/thumb/v7+fp/hard/libc_nano.a(lib_a-nano-vfscanf_i.o)
                              /usr/lib/gcc/arm-none-eabi/11.2.0/../../../../arm-none-eabi/lib/thumb/v7+fp/hard/libc_nano.a(lib_a-nano-svfscanf.o) (_scanf_chars)
/usr/lib/gcc/arm-none-eabi/11.2.0/../../../../arm-none-eabi/lib/thumb/v7+fp/hard/libc_nano.a(lib_a-readr.o)
                              /usr/lib/gcc/arm-none-eabi/11.2.0/../../../../arm-none-eabi/lib/thumb/v7+fp/hard/libc_nano.a(lib_a-stdio.o) (_read_r)
/usr/lib/gcc/arm-none-eabi/11.2.0/../../../../arm-none-eabi/lib/thumb/v7+fp/hard/libc_nano.a(lib_a-sccl.o)
                              /usr/lib/gcc/arm-none-eabi/11.2.0/../../../../arm-none-eabi/lib/thumb/v7+fp/hard/libc_nano.a(lib_a-nano-svfscanf.o) (__sccl)
/usr/lib/gcc/arm-none-eabi/11.2.0/../../../../arm-none-eabi/lib/thumb/v7+fp/hard/libc_nano.a(lib_a-strtoul.o)
                              /usr/lib/gcc/arm-none-eabi/11.2.0/../../../../arm-none-eabi/lib/thumb/v7+fp/hard/libc_nano.a(lib_a-nano-vfscanf_i.o) (_strtoul_r)
/usr/lib/gcc/arm-none-eabi/11.2.0/../../../../arm-none-eabi/lib/thumb/v7+fp/hard/libc_nano.a(lib_a-ungetc.o)
                              /usr/lib/gcc/arm-none-eabi/11.2.0/../../../../arm-none-eabi/lib/thumb/v7+fp/hard/libc_nano.a(lib_a-nano-svfscanf.o) (__submore)
/usr/lib/gcc/arm-none-eabi/11.2.0/../../../../arm-none-eabi/lib/thumb/v7+fp/hard/libc_nano.a(lib_a-wctomb_r.o)
                              /usr/lib/gcc/arm-none-eabi/11.2.0/../../../../arm-none-eabi/lib/thumb/v7+fp/hard/libc_nano.a(lib_a-locale.o) (__ascii_wctomb)
/usr/lib/gcc/arm-none-eabi/11.2.0/../../../../arm-none-eabi/lib/thumb/v7+fp/hard/libc_nano.a(lib_a-abort.o)
                              /usr/lib/gcc/arm-none-eabi/11.2.0/../../../../arm-none-eabi/lib/thumb/v7+fp/hard/libc_nano.a(lib_a-assert.o) (abort)
/usr/lib/gcc/arm-none-eabi/11.2.0/../../../../arm-none-eabi/lib/thumb/v7+fp/hard/libc_nano.a(lib_a-fstatr.o)
                              /usr/lib/gcc/arm-none-eabi/11.2.0/../../../../arm-none-eabi/lib/thumb/v7+fp/hard/libc_nano.a(lib_a-makebuf.o) (_fstat_r)
/usr/lib/gcc/arm-none-eabi/11.2.0/../../../../arm-none-eabi/lib/thumb/v7+fp/hard/libc_nano.a(lib_a-fvwrite.o)
                              /usr/lib/gcc/arm-none-eabi/11.2.0/../../../../arm-none-eabi/lib/thumb/v7+fp/hard/libc_nano.a(lib_a-nano-vfprintf.o) (__sfvwrite_r)
/usr/lib/gcc/arm-none-eabi/11.2.0/../../../../arm-none-eabi/lib/thumb/v7+fp/hard/libc_nano.a(lib_a-isattyr.o)
                              /usr/lib/gcc/arm-none-eabi/11.2.0/../../../../arm-none-eabi/lib/thumb/v7+fp/hard/libc_nano.a(lib_a-makebuf.o) (_isatty_r)
/usr/lib/gcc/arm-none-eabi/11.2.0/../../../../arm-none-eabi/lib/thumb/v7+fp/hard/libc_nano.a(lib_a-nano-reallocr.o)
                              /usr/lib/gcc/arm-none-eabi/11.2.0/../../../../arm-none-eabi/lib/thumb/v7+fp/hard/libc_nano.a(lib_a-nano-svfprintf.o) (_realloc_r)
/usr/lib/gcc/arm-none-eabi/11.2.0/../../../../arm-none-eabi/lib/thumb/v7+fp/hard/libc_nano.a(lib_a-signal.o)
                              /usr/lib/gcc/arm-none-eabi/11.2.0/../../../../arm-none-eabi/lib/thumb/v7+fp/hard/libc_nano.a(lib_a-abort.o) (raise)
/usr/lib/gcc/arm-none-eabi/11.2.0/../../../../arm-none-eabi/lib/thumb/v7+fp/hard/libc_nano.a(lib_a-signalr.o)
                              /usr/lib/gcc/arm-none-eabi/11.2.0/../../../../arm-none-eabi/lib/thumb/v7+fp/hard/libc_nano.a(lib_a-signal.o) (_kill_r)
/usr/lib/gcc/arm-none-eabi/11.2.0/../../../../arm-none-eabi/lib/thumb/v7+fp/hard/libc_nano.a(lib_a-nano-msizer.o)
                              /usr/lib/gcc/arm-none-eabi/11.2.0/../../../../arm-none-eabi/lib/thumb/v7+fp/hard/libc_nano.a(lib_a-nano-reallocr.o) (_malloc_usable_size_r)
/usr/lib/gcc/arm-none-eabi/11.2.0/thumb/v7+fp/hard/libgcc.a(_udivsi3.o)
                              /usr/lib/gcc/arm-none-eabi/11.2.0/../../../../arm-none-eabi/lib/thumb/v7+fp/hard/libc_nano.a(lib_a-fwrite.o) (__aeabi_uidiv)
/usr/lib/gcc/arm-none-eabi/11.2.0/thumb/v7+fp/hard/libgcc.a(_divsi3.o)
                              /usr/lib/gcc/arm-none-eabi/11.2.0/../../../../arm-none-eabi/lib/thumb/v7+fp/hard/libc_nano.a(lib_a-fvwrite.o) (__aeabi_idiv)
/usr/lib/gcc/arm-none-eabi/11.2.0/../../../../arm-none-eabi/lib/thumb/v7+fp/hard/libnosys.a(getpid.o)
                              /usr/lib/gcc/arm-none-eabi/11.2.0/../../../../arm-none-eabi/lib/thumb/v7+fp/hard/libc_nano.a(lib_a-signalr.o) (_getpid)
/usr/lib/gcc/arm-none-eabi/11.2.0/../../../../arm-none-eabi/lib/thumb/v7+fp/hard/libnosys.a(kill.o)
                              /usr/lib/gcc/arm-none-eabi/11.2.0/../../../../arm-none-eabi/lib/thumb/v7+fp/hard/libc_nano.a(lib_a-signalr.o) (_kill)

Discarded input sections

 .text          0x0000000000000000        0x0 CMakeFiles/tube-client.dir/armc-cstartup.c.obj
 .data          0x0000000000000000        0x0 CMakeFiles/tube-client.dir/armc-cstartup.c.obj
 .bss           0x0000000000000000        0x0 CMakeFiles/tube-client.dir/armc-cstartup.c.obj
 .text          0x0000000000000000        0x0 CMakeFiles/tube-client.dir/armc-cstubs.c.obj
 .data          0x0000000000000000        0x0 CMakeFiles/tube-client.dir/armc-cstubs.c.obj
 .bss           0x0000000000000000        0x0 CMakeFiles/tube-client.dir/armc-cstubs.c.obj
 .text.execve   0x0000000000000000       0x18 CMakeFiles/tube-client.dir/armc-cstubs.c.obj
 .text.fork     0x0000000000000000       0x18 CMakeFiles/tube-client.dir/armc-cstubs.c.obj
 .text.getpid   0x0000000000000000        0x8 CMakeFiles/tube-client.dir/armc-cstubs.c.obj
 .text.kill     0x0000000000000000       0x18 CMakeFiles/tube-client.dir/armc-cstubs.c.obj
 .text.link     0x0000000000000000       0x18 CMakeFiles/tube-client.dir/armc-cstubs.c.obj
 .text.open     0x0000000000000000        0x8 CMakeFiles/tube-client.dir/armc-cstubs.c.obj
 .text.stat     0x0000000000000000       0x10 CMakeFiles/tube-client.dir/armc-cstubs.c.obj
 .text.times    0x0000000000000000        0x8 CMakeFiles/tube-client.dir/armc-cstubs.c.obj
 .text.unlink   0x0000000000000000       0x18 CMakeFiles/tube-client.dir/armc-cstubs.c.obj
 .text.wait     0x0000000000000000       0x18 CMakeFiles/tube-client.dir/armc-cstubs.c.obj
 .bss.__env     0x0000000000000000        0x4 CMakeFiles/tube-client.dir/armc-cstubs.c.obj
 .data.environ  0x0000000000000000        0x4 CMakeFiles/tube-client.dir/armc-cstubs.c.obj
 .text          0x0000000000000000        0x0 CMakeFiles/tube-client.dir/armc-start.S.obj
 .data          0x0000000000000000        0x0 CMakeFiles/tube-client.dir/armc-start.S.obj
 .bss           0x0000000000000000        0x0 CMakeFiles/tube-client.dir/armc-start.S.obj
 .text._get_stack_pointer
                0x0000000000000000        0x8 CMakeFiles/tube-client.dir/armc-start.S.obj
 .text._invalidate_dcache
                0x0000000000000000        0xc CMakeFiles/tube-client.dir/armc-start.S.obj
 .text._clean_invalidate_dcache
                0x0000000000000000        0xc CMakeFiles/tube-client.dir/armc-start.S.obj
 .text._invalidate_dcache_mva
                0x0000000000000000        0x8 CMakeFiles/tube-client.dir/armc-start.S.obj
 .text._clean_invalidate_dcache_mva
                0x0000000000000000        0x8 CMakeFiles/tube-client.dir/armc-start.S.obj
 .text._invalidate_dtlb
                0x0000000000000000        0xc CMakeFiles/tube-client.dir/armc-start.S.obj
 .text          0x0000000000000000        0x0 CMakeFiles/tube-client.dir/cache.c.obj
 .data          0x0000000000000000        0x0 CMakeFiles/tube-client.dir/cache.c.obj
 .bss           0x0000000000000000        0x0 CMakeFiles/tube-client.dir/cache.c.obj
 .text          0x0000000000000000        0x0 CMakeFiles/tube-client.dir/copro-defs.c.obj
 .data          0x0000000000000000        0x0 CMakeFiles/tube-client.dir/copro-defs.c.obj
 .bss           0x0000000000000000        0x0 CMakeFiles/tube-client.dir/copro-defs.c.obj
 .text          0x0000000000000000        0x0 CMakeFiles/tube-client.dir/framebuffer/fonts.c.obj
 .data          0x0000000000000000        0x0 CMakeFiles/tube-client.dir/framebuffer/fonts.c.obj
 .bss           0x0000000000000000        0x0 CMakeFiles/tube-client.dir/framebuffer/fonts.c.obj
 .text          0x0000000000000000        0x0 CMakeFiles/tube-client.dir/framebuffer/framebuffer.c.obj
 .data          0x0000000000000000        0x0 CMakeFiles/tube-client.dir/framebuffer/framebuffer.c.obj
 .bss           0x0000000000000000        0x0 CMakeFiles/tube-client.dir/framebuffer/framebuffer.c.obj
 .text.fb_destroy
                0x0000000000000000       0x38 CMakeFiles/tube-client.dir/framebuffer/framebuffer.c.obj
 .text          0x0000000000000000        0x0 CMakeFiles/tube-client.dir/framebuffer/primitives.c.obj
 .data          0x0000000000000000        0x0 CMakeFiles/tube-client.dir/framebuffer/primitives.c.obj
 .bss           0x0000000000000000        0x0 CMakeFiles/tube-client.dir/framebuffer/primitives.c.obj
 .text          0x0000000000000000        0x0 CMakeFiles/tube-client.dir/framebuffer/screen_modes.c.obj
 .data          0x0000000000000000        0x0 CMakeFiles/tube-client.dir/framebuffer/screen_modes.c.obj
 .bss           0x0000000000000000        0x0 CMakeFiles/tube-client.dir/framebuffer/screen_modes.c.obj
 .text          0x0000000000000000        0x0 CMakeFiles/tube-client.dir/framebuffer/swi_impl.c.obj
 .data          0x0000000000000000        0x0 CMakeFiles/tube-client.dir/framebuffer/swi_impl.c.obj
 .bss           0x0000000000000000        0x0 CMakeFiles/tube-client.dir/framebuffer/swi_impl.c.obj
 .text.fb_remove_swi_handlers
                0x0000000000000000       0x34 CMakeFiles/tube-client.dir/framebuffer/swi_impl.c.obj
 .text          0x0000000000000000        0x0 CMakeFiles/tube-client.dir/framebuffer/teletext.c.obj
 .data          0x0000000000000000        0x0 CMakeFiles/tube-client.dir/framebuffer/teletext.c.obj
 .bss           0x0000000000000000        0x0 CMakeFiles/tube-client.dir/framebuffer/teletext.c.obj
 .text          0x0000000000000000        0x0 CMakeFiles/tube-client.dir/framebuffer/v3d.c.obj
 .data          0x0000000000000000        0x0 CMakeFiles/tube-client.dir/framebuffer/v3d.c.obj
 .bss           0x0000000000000000        0x0 CMakeFiles/tube-client.dir/framebuffer/v3d.c.obj
 .rodata.v3d_draw_triangle.str1.4
                0x0000000000000000       0x47 CMakeFiles/tube-client.dir/framebuffer/v3d.c.obj
 .text.v3d_draw_triangle
                0x0000000000000000      0xc88 CMakeFiles/tube-client.dir/framebuffer/v3d.c.obj
 .rodata.v3d_initialize.str1.4
                0x0000000000000000       0xa0 CMakeFiles/tube-client.dir/framebuffer/v3d.c.obj
 .text.v3d_initialize
                0x0000000000000000       0xe4 CMakeFiles/tube-client.dir/framebuffer/v3d.c.obj
 .rodata.v3d_test.str1.4
                0x0000000000000000       0x1d CMakeFiles/tube-client.dir/framebuffer/v3d.c.obj
 .text.v3d_test
                0x0000000000000000       0x60 CMakeFiles/tube-client.dir/framebuffer/v3d.c.obj
 .text.v3d_close
                0x0000000000000000        0x8 CMakeFiles/tube-client.dir/framebuffer/v3d.c.obj
 .bss.bus_addr  0x0000000000000000        0x4 CMakeFiles/tube-client.dir/framebuffer/v3d.c.obj
 .bss.list      0x0000000000000000        0x4 CMakeFiles/tube-client.dir/framebuffer/v3d.c.obj
 .bss.v3d       0x0000000000000000        0x4 CMakeFiles/tube-client.dir/framebuffer/v3d.c.obj
 .bss.v3d_buffer
                0x0000000000000000   0x106000 CMakeFiles/tube-client.dir/framebuffer/v3d.c.obj
 .comment       0x0000000000000000       0x1f CMakeFiles/tube-client.dir/framebuffer/v3d.c.obj
 .text          0x0000000000000000        0x0 CMakeFiles/tube-client.dir/info.c.obj
 .data          0x0000000000000000        0x0 CMakeFiles/tube-client.dir/info.c.obj
 .bss           0x0000000000000000        0x0 CMakeFiles/tube-client.dir/info.c.obj
 .rodata.print_tag_value.str1.4
                0x0000000000000000       0x2a CMakeFiles/tube-client.dir/info.c.obj
 .text.print_tag_value
                0x0000000000000000       0xa0 CMakeFiles/tube-client.dir/info.c.obj
 .rodata.dump_useful_info.str1.4
                0x0000000000000000      0x174 CMakeFiles/tube-client.dir/info.c.obj
 .text.dump_useful_info
                0x0000000000000000      0x36c CMakeFiles/tube-client.dir/info.c.obj
 .text          0x0000000000000000        0x0 CMakeFiles/tube-client.dir/logging.c.obj
 .data          0x0000000000000000        0x0 CMakeFiles/tube-client.dir/logging.c.obj
 .bss           0x0000000000000000        0x0 CMakeFiles/tube-client.dir/logging.c.obj
 .rodata.log_error.str1.4
                0x0000000000000000        0x8 CMakeFiles/tube-client.dir/logging.c.obj
 .text.log_error
                0x0000000000000000       0x44 CMakeFiles/tube-client.dir/logging.c.obj
 .rodata.log_fatal.str1.4
                0x0000000000000000        0x8 CMakeFiles/tube-client.dir/logging.c.obj
 .text.log_fatal
                0x0000000000000000       0x44 CMakeFiles/tube-client.dir/logging.c.obj
 .text          0x0000000000000000        0x0 CMakeFiles/tube-client.dir/performance.c.obj
 .data          0x0000000000000000        0x0 CMakeFiles/tube-client.dir/performance.c.obj
 .bss           0x0000000000000000        0x0 CMakeFiles/tube-client.dir/performance.c.obj
 .text.read_performance_counters
                0x0000000000000000       0x3c CMakeFiles/tube-client.dir/performance.c.obj
 .rodata.print_performance_counters.str1.4
                0x0000000000000000       0x28 CMakeFiles/tube-client.dir/performance.c.obj
 .text.print_performance_counters
                0x0000000000000000      0x10c CMakeFiles/tube-client.dir/performance.c.obj
 .bss.bfr       0x0000000000000000       0x15 CMakeFiles/tube-client.dir/performance.c.obj
 .text          0x0000000000000000        0x0 CMakeFiles/tube-client.dir/programs.c.obj
 .data          0x0000000000000000        0x0 CMakeFiles/tube-client.dir/programs.c.obj
 .bss           0x0000000000000000        0x0 CMakeFiles/tube-client.dir/programs.c.obj
 .text          0x0000000000000000        0x0 CMakeFiles/tube-client.dir/rpi-aux.c.obj
 .data          0x0000000000000000        0x0 CMakeFiles/tube-client.dir/rpi-aux.c.obj
 .bss           0x0000000000000000        0x0 CMakeFiles/tube-client.dir/rpi-aux.c.obj
 .text.RPI_EnableUart
                0x0000000000000000       0x24 CMakeFiles/tube-client.dir/rpi-aux.c.obj
 .text          0x0000000000000000        0x0 CMakeFiles/tube-client.dir/rpi-gpio.c.obj
 .data          0x0000000000000000        0x0 CMakeFiles/tube-client.dir/rpi-gpio.c.obj
 .bss           0x0000000000000000        0x0 CMakeFiles/tube-client.dir/rpi-gpio.c.obj
 .text.RPI_SetGpioOutput
                0x0000000000000000       0x70 CMakeFiles/tube-client.dir/rpi-gpio.c.obj
 .text.RPI_SetGpioInput
                0x0000000000000000       0x64 CMakeFiles/tube-client.dir/rpi-gpio.c.obj
 .text.RPI_GetGpioValue
                0x0000000000000000       0x60 CMakeFiles/tube-client.dir/rpi-gpio.c.obj
 .text.RPI_ToggleGpio
                0x0000000000000000       0x70 CMakeFiles/tube-client.dir/rpi-gpio.c.obj
 .text.RPI_SetGpioValue
                0x0000000000000000       0xa8 CMakeFiles/tube-client.dir/rpi-gpio.c.obj
 .text          0x0000000000000000        0x0 CMakeFiles/tube-client.dir/rpi-interrupts.c.obj
 .data          0x0000000000000000        0x0 CMakeFiles/tube-client.dir/rpi-interrupts.c.obj
 .bss           0x0000000000000000        0x0 CMakeFiles/tube-client.dir/rpi-interrupts.c.obj
 .text          0x0000000000000000        0x0 CMakeFiles/tube-client.dir/rpi-mailbox-interface.c.obj
 .data          0x0000000000000000        0x0 CMakeFiles/tube-client.dir/rpi-mailbox-interface.c.obj
 .bss           0x0000000000000000        0x0 CMakeFiles/tube-client.dir/rpi-mailbox-interface.c.obj
 .rodata.RPI_PropertyProcessDebug.str1.4
                0x0000000000000000       0x43 CMakeFiles/tube-client.dir/rpi-mailbox-interface.c.obj
 .text.RPI_PropertyProcessDebug
                0x0000000000000000       0xe4 CMakeFiles/tube-client.dir/rpi-mailbox-interface.c.obj
 .text.RPI_PropertyProcessNoCheck
                0x0000000000000000       0x30 CMakeFiles/tube-client.dir/rpi-mailbox-interface.c.obj
 .text.RPI_PropertyProcessNoCheckDebug
                0x0000000000000000       0x90 CMakeFiles/tube-client.dir/rpi-mailbox-interface.c.obj
 .rodata.__func__.1
                0x0000000000000000       0x23 CMakeFiles/tube-client.dir/rpi-mailbox-interface.c.obj
 .rodata.__func__.2
                0x0000000000000000       0x1c CMakeFiles/tube-client.dir/rpi-mailbox-interface.c.obj
 .text          0x0000000000000000        0x0 CMakeFiles/tube-client.dir/rpi-mailbox.c.obj
 .data          0x0000000000000000        0x0 CMakeFiles/tube-client.dir/rpi-mailbox.c.obj
 .bss           0x0000000000000000        0x0 CMakeFiles/tube-client.dir/rpi-mailbox.c.obj
 .text          0x0000000000000000        0x0 CMakeFiles/tube-client.dir/rpi-systimer.c.obj
 .data          0x0000000000000000        0x0 CMakeFiles/tube-client.dir/rpi-systimer.c.obj
 .bss           0x0000000000000000        0x0 CMakeFiles/tube-client.dir/rpi-systimer.c.obj
 .text.RPI_GetSystemTimer
                0x0000000000000000        0xc CMakeFiles/tube-client.dir/rpi-systimer.c.obj
 .text          0x0000000000000000        0x0 CMakeFiles/tube-client.dir/tube-client.c.obj
 .data          0x0000000000000000        0x0 CMakeFiles/tube-client.dir/tube-client.c.obj
 .bss           0x0000000000000000        0x0 CMakeFiles/tube-client.dir/tube-client.c.obj
 .text          0x0000000000000000        0x0 CMakeFiles/tube-client.dir/tube-exception.c.obj
 .data          0x0000000000000000        0x0 CMakeFiles/tube-client.dir/tube-exception.c.obj
 .bss           0x0000000000000000        0x0 CMakeFiles/tube-client.dir/tube-exception.c.obj
 .text          0x0000000000000000        0x0 CMakeFiles/tube-client.dir/tube-ula.c.obj
 .data          0x0000000000000000        0x0 CMakeFiles/tube-client.dir/tube-ula.c.obj
 .bss           0x0000000000000000        0x0 CMakeFiles/tube-client.dir/tube-ula.c.obj
 .data          0x0000000000000000        0x0 CMakeFiles/tube-client.dir/tube.S.obj
 .bss           0x0000000000000000        0x0 CMakeFiles/tube-client.dir/tube.S.obj
 .text          0x0000000000000000        0x0 CMakeFiles/tube-client.dir/tubevc.c.obj
 .data          0x0000000000000000        0x0 CMakeFiles/tube-client.dir/tubevc.c.obj
 .bss           0x0000000000000000        0x0 CMakeFiles/tube-client.dir/tubevc.c.obj
 .data.tubevc_doorbell_asm_len
                0x0000000000000000        0x4 CMakeFiles/tube-client.dir/tubevc.c.obj
 .data.tubevc_mailbox_asm
                0x0000000000000000      0x252 CMakeFiles/tube-client.dir/tubevc.c.obj
 .data.tubevc_mailbox_asm_len
                0x0000000000000000        0x4 CMakeFiles/tube-client.dir/tubevc.c.obj
 .text          0x0000000000000000        0x0 CMakeFiles/tube-client.dir/utils.c.obj
 .data          0x0000000000000000        0x0 CMakeFiles/tube-client.dir/utils.c.obj
 .bss           0x0000000000000000        0x0 CMakeFiles/tube-client.dir/utils.c.obj
 .text          0x0000000000000000        0x0 CMakeFiles/tube-client.dir/copro-65tube.c.obj
 .data          0x0000000000000000        0x0 CMakeFiles/tube-client.dir/copro-65tube.c.obj
 .bss           0x0000000000000000        0x0 CMakeFiles/tube-client.dir/copro-65tube.c.obj
 .data          0x0000000000000000        0x0 CMakeFiles/tube-client.dir/copro-65tubeasm.S.obj
 .bss           0x0000000000000000        0x0 CMakeFiles/tube-client.dir/copro-65tubeasm.S.obj
 .text          0x0000000000000000        0x0 CMakeFiles/tube-client.dir/copro-65tubejit.c.obj
 .data          0x0000000000000000        0x0 CMakeFiles/tube-client.dir/copro-65tubejit.c.obj
 .bss           0x0000000000000000        0x0 CMakeFiles/tube-client.dir/copro-65tubejit.c.obj
 .rodata.dis6502.str1.4
                0x0000000000000000       0x15 CMakeFiles/tube-client.dir/copro-65tubejit.c.obj
 .text.dis6502  0x0000000000000000       0x48 CMakeFiles/tube-client.dir/copro-65tubejit.c.obj
 .rodata.disarm.str1.4
                0x0000000000000000       0x19 CMakeFiles/tube-client.dir/copro-65tubejit.c.obj
 .text.disarm   0x0000000000000000      0x108 CMakeFiles/tube-client.dir/copro-65tubejit.c.obj
 .bss.dis       0x0000000000000000       0x80 CMakeFiles/tube-client.dir/copro-65tubejit.c.obj
 .bss.dis_str   0x0000000000000000      0x118 CMakeFiles/tube-client.dir/copro-65tubejit.c.obj
 .data          0x0000000000000000        0x0 CMakeFiles/tube-client.dir/jit.S.obj
 .bss           0x0000000000000000        0x0 CMakeFiles/tube-client.dir/jit.S.obj
 .text          0x0000000000000000        0x0 CMakeFiles/tube-client.dir/copro-lib6502.c.obj
 .data          0x0000000000000000        0x0 CMakeFiles/tube-client.dir/copro-lib6502.c.obj
 .bss           0x0000000000000000        0x0 CMakeFiles/tube-client.dir/copro-lib6502.c.obj
 .text          0x0000000000000000        0x0 CMakeFiles/tube-client.dir/lib6502.c.obj
 .data          0x0000000000000000        0x0 CMakeFiles/tube-client.dir/lib6502.c.obj
 .bss           0x0000000000000000        0x0 CMakeFiles/tube-client.dir/lib6502.c.obj
 .rodata.M6502_trace.str1.4
                0x0000000000000000       0x1d CMakeFiles/tube-client.dir/lib6502.c.obj
 .text.M6502_trace
                0x0000000000000000       0x60 CMakeFiles/tube-client.dir/lib6502.c.obj
 .rodata.M6502_disassemble.str1.4
                0x0000000000000000      0x2c1 CMakeFiles/tube-client.dir/lib6502.c.obj
 .text.M6502_disassemble
                0x0000000000000000     0x2ec4 CMakeFiles/tube-client.dir/lib6502.c.obj
 .bss.previousPC
                0x0000000000000000        0x4 CMakeFiles/tube-client.dir/lib6502.c.obj
 .text          0x0000000000000000        0x0 CMakeFiles/tube-client.dir/tuberom_6502.c.obj
 .data          0x0000000000000000        0x0 CMakeFiles/tube-client.dir/tuberom_6502.c.obj
 .bss           0x0000000000000000        0x0 CMakeFiles/tube-client.dir/tuberom_6502.c.obj
 .data.tuberom_6502_intern_1_12_jgh
                0x0000000000000000      0x800 CMakeFiles/tube-client.dir/tuberom_6502.c.obj
 .text          0x0000000000000000        0x0 CMakeFiles/tube-client.dir/tuberom_6502_turbo.c.obj
 .data          0x0000000000000000        0x0 CMakeFiles/tube-client.dir/tuberom_6502_turbo.c.obj
 .bss           0x0000000000000000        0x0 CMakeFiles/tube-client.dir/tuberom_6502_turbo.c.obj
 .text          0x0000000000000000        0x0 CMakeFiles/tube-client.dir/copro-80186.c.obj
 .data          0x0000000000000000        0x0 CMakeFiles/tube-client.dir/copro-80186.c.obj
 .bss           0x0000000000000000        0x0 CMakeFiles/tube-client.dir/copro-80186.c.obj
 .text          0x0000000000000000        0x0 CMakeFiles/tube-client.dir/cpu80186/cpu80186.c.obj
 .data          0x0000000000000000        0x0 CMakeFiles/tube-client.dir/cpu80186/cpu80186.c.obj
 .bss           0x0000000000000000        0x0 CMakeFiles/tube-client.dir/cpu80186/cpu80186.c.obj
 .text          0x0000000000000000        0x0 CMakeFiles/tube-client.dir/cpu80186/i386dasm.c.obj
 .data          0x0000000000000000        0x0 CMakeFiles/tube-client.dir/cpu80186/i386dasm.c.obj
 .bss           0x0000000000000000        0x0 CMakeFiles/tube-client.dir/cpu80186/i386dasm.c.obj
 .text.FETCHD32
                0x0000000000000000       0x60 CMakeFiles/tube-client.dir/cpu80186/i386dasm.c.obj
 .rodata.handle_modrm.constprop.0.str1.4
                0x0000000000000000       0x96 CMakeFiles/tube-client.dir/cpu80186/i386dasm.c.obj
 .text.handle_modrm.constprop.0
                0x0000000000000000      0x6f0 CMakeFiles/tube-client.dir/cpu80186/i386dasm.c.obj
 .rodata.handle_param.str1.4
                0x0000000000000000       0x8b CMakeFiles/tube-client.dir/cpu80186/i386dasm.c.obj
 .text.handle_param
                0x0000000000000000      0x798 CMakeFiles/tube-client.dir/cpu80186/i386dasm.c.obj
 .rodata.i386_dasm_one.str1.4
                0x0000000000000000        0xb CMakeFiles/tube-client.dir/cpu80186/i386dasm.c.obj
 .text.i386_dasm_one
                0x0000000000000000      0x3bc CMakeFiles/tube-client.dir/cpu80186/i386dasm.c.obj
 .bss.address_size
                0x0000000000000000        0x4 CMakeFiles/tube-client.dir/cpu80186/i386dasm.c.obj
 .bss.dasm_flags
                0x0000000000000000        0x4 CMakeFiles/tube-client.dir/cpu80186/i386dasm.c.obj
 .bss.modrm     0x0000000000000000        0x1 CMakeFiles/tube-client.dir/cpu80186/i386dasm.c.obj
 .bss.modrm_string
                0x0000000000000000      0x100 CMakeFiles/tube-client.dir/cpu80186/i386dasm.c.obj
 .bss.opcode_table1
                0x0000000000000000        0x4 CMakeFiles/tube-client.dir/cpu80186/i386dasm.c.obj
 .bss.opcode_table2
                0x0000000000000000        0x4 CMakeFiles/tube-client.dir/cpu80186/i386dasm.c.obj
 .bss.operand_size
                0x0000000000000000        0x4 CMakeFiles/tube-client.dir/cpu80186/i386dasm.c.obj
 .bss.pc        0x0000000000000000        0x4 CMakeFiles/tube-client.dir/cpu80186/i386dasm.c.obj
 .bss.segment   0x0000000000000000        0x4 CMakeFiles/tube-client.dir/cpu80186/i386dasm.c.obj
 .data.group0F00_table
                0x0000000000000000      0x1a0 CMakeFiles/tube-client.dir/cpu80186/i386dasm.c.obj
 .data.group0F01_table
                0x0000000000000000      0x1a0 CMakeFiles/tube-client.dir/cpu80186/i386dasm.c.obj
 .data.group0FBA_table
                0x0000000000000000      0x1a0 CMakeFiles/tube-client.dir/cpu80186/i386dasm.c.obj
 .data.group80_table
                0x0000000000000000      0x1a0 CMakeFiles/tube-client.dir/cpu80186/i386dasm.c.obj
 .data.group81_table
                0x0000000000000000      0x1a0 CMakeFiles/tube-client.dir/cpu80186/i386dasm.c.obj
 .data.group83_table
                0x0000000000000000      0x1a0 CMakeFiles/tube-client.dir/cpu80186/i386dasm.c.obj
 .data.groupC0_table
                0x0000000000000000      0x1a0 CMakeFiles/tube-client.dir/cpu80186/i386dasm.c.obj
 .data.groupC1_table
                0x0000000000000000      0x1a0 CMakeFiles/tube-client.dir/cpu80186/i386dasm.c.obj
 .data.groupD0_table
                0x0000000000000000      0x1a0 CMakeFiles/tube-client.dir/cpu80186/i386dasm.c.obj
 .data.groupD1_table
                0x0000000000000000      0x1a0 CMakeFiles/tube-client.dir/cpu80186/i386dasm.c.obj
 .data.groupD2_table
                0x0000000000000000      0x1a0 CMakeFiles/tube-client.dir/cpu80186/i386dasm.c.obj
 .data.groupD3_table
                0x0000000000000000      0x1a0 CMakeFiles/tube-client.dir/cpu80186/i386dasm.c.obj
 .data.groupF6_table
                0x0000000000000000      0x1a0 CMakeFiles/tube-client.dir/cpu80186/i386dasm.c.obj
 .data.groupF7_table
                0x0000000000000000      0x1a0 CMakeFiles/tube-client.dir/cpu80186/i386dasm.c.obj
 .data.groupFE_table
                0x0000000000000000      0x1a0 CMakeFiles/tube-client.dir/cpu80186/i386dasm.c.obj
 .data.groupFF_table
                0x0000000000000000      0x1a0 CMakeFiles/tube-client.dir/cpu80186/i386dasm.c.obj
 .data.group_op_table
                0x0000000000000000      0x240 CMakeFiles/tube-client.dir/cpu80186/i386dasm.c.obj
 .data.i386_opcode_table1
                0x0000000000000000     0x3400 CMakeFiles/tube-client.dir/cpu80186/i386dasm.c.obj
 .data.i386_opcode_table2
                0x0000000000000000     0x3400 CMakeFiles/tube-client.dir/cpu80186/i386dasm.c.obj
 .data.i386_reg
                0x0000000000000000       0x40 CMakeFiles/tube-client.dir/cpu80186/i386dasm.c.obj
 .data.i386_reg8
                0x0000000000000000       0x20 CMakeFiles/tube-client.dir/cpu80186/i386dasm.c.obj
 .data.i386_sreg
                0x0000000000000000       0x20 CMakeFiles/tube-client.dir/cpu80186/i386dasm.c.obj
 .comment       0x0000000000000000       0x1f CMakeFiles/tube-client.dir/cpu80186/i386dasm.c.obj
 .text          0x0000000000000000        0x0 CMakeFiles/tube-client.dir/cpu80186/iop80186.c.obj
 .data          0x0000000000000000        0x0 CMakeFiles/tube-client.dir/cpu80186/iop80186.c.obj
 .bss           0x0000000000000000        0x0 CMakeFiles/tube-client.dir/cpu80186/iop80186.c.obj
 .text          0x0000000000000000        0x0 CMakeFiles/tube-client.dir/cpu80186/mem80186.c.obj
 .data          0x0000000000000000        0x0 CMakeFiles/tube-client.dir/cpu80186/mem80186.c.obj
 .bss           0x0000000000000000        0x0 CMakeFiles/tube-client.dir/cpu80186/mem80186.c.obj
 .text          0x0000000000000000        0x0 CMakeFiles/tube-client.dir/copro-arm2.c.obj
 .data          0x0000000000000000        0x0 CMakeFiles/tube-client.dir/copro-arm2.c.obj
 .bss           0x0000000000000000        0x0 CMakeFiles/tube-client.dir/copro-arm2.c.obj
 .text          0x0000000000000000        0x0 CMakeFiles/tube-client.dir/mame/arm.c.obj
 .data          0x0000000000000000        0x0 CMakeFiles/tube-client.dir/mame/arm.c.obj
 .bss           0x0000000000000000        0x0 CMakeFiles/tube-client.dir/mame/arm.c.obj
 .text          0x0000000000000000        0x0 CMakeFiles/tube-client.dir/tuberom_arm.c.obj
 .data          0x0000000000000000        0x0 CMakeFiles/tube-client.dir/tuberom_arm.c.obj
 .bss           0x0000000000000000        0x0 CMakeFiles/tube-client.dir/tuberom_arm.c.obj
 .data.tuberom_arm_v101
                0x0000000000000000     0x4000 CMakeFiles/tube-client.dir/tuberom_arm.c.obj
 .text          0x0000000000000000        0x0 CMakeFiles/tube-client.dir/NS32016/32016.c.obj
 .data          0x0000000000000000        0x0 CMakeFiles/tube-client.dir/NS32016/32016.c.obj
 .bss           0x0000000000000000        0x0 CMakeFiles/tube-client.dir/NS32016/32016.c.obj
 .text.n32016_get_pc
                0x0000000000000000       0x10 CMakeFiles/tube-client.dir/NS32016/32016.c.obj
 .text.n32016_get_startpc
                0x0000000000000000       0x10 CMakeFiles/tube-client.dir/NS32016/32016.c.obj
 .text.n32016_set_pc
                0x0000000000000000       0x10 CMakeFiles/tube-client.dir/NS32016/32016.c.obj
 .text          0x0000000000000000        0x0 CMakeFiles/tube-client.dir/NS32016/Decode.c.obj
 .data          0x0000000000000000        0x0 CMakeFiles/tube-client.dir/NS32016/Decode.c.obj
 .bss           0x0000000000000000        0x0 CMakeFiles/tube-client.dir/NS32016/Decode.c.obj
 .text          0x0000000000000000        0x0 CMakeFiles/tube-client.dir/NS32016/NSDis.c.obj
 .data          0x0000000000000000        0x0 CMakeFiles/tube-client.dir/NS32016/NSDis.c.obj
 .bss           0x0000000000000000        0x0 CMakeFiles/tube-client.dir/NS32016/NSDis.c.obj
 .text.StringAppend
                0x0000000000000000       0x5c CMakeFiles/tube-client.dir/NS32016/NSDis.c.obj
 .rodata.ShowRegs.str1.4
                0x0000000000000000       0x12 CMakeFiles/tube-client.dir/NS32016/NSDis.c.obj
 .text.ShowRegs
                0x0000000000000000       0xa0 CMakeFiles/tube-client.dir/NS32016/NSDis.c.obj
 .rodata.AddInstructionText.part.0.str1.4
                0x0000000000000000       0x19 CMakeFiles/tube-client.dir/NS32016/NSDis.c.obj
 .text.AddInstructionText.part.0
                0x0000000000000000      0x1f0 CMakeFiles/tube-client.dir/NS32016/NSDis.c.obj
 .rodata.GetOperandText.isra.0.str1.4
                0x0000000000000000       0xb5 CMakeFiles/tube-client.dir/NS32016/NSDis.c.obj
 .text.GetOperandText.isra.0
                0x0000000000000000      0x2ec CMakeFiles/tube-client.dir/NS32016/NSDis.c.obj
 .rodata.n32016_show_instruction.part.0.str1.4
                0x0000000000000000       0x61 CMakeFiles/tube-client.dir/NS32016/NSDis.c.obj
 .text.n32016_show_instruction.part.0
                0x0000000000000000      0x5d4 CMakeFiles/tube-client.dir/NS32016/NSDis.c.obj
 .text.n32016_show_instruction
                0x0000000000000000       0x68 CMakeFiles/tube-client.dir/NS32016/NSDis.c.obj
 .text.ShowRegisterWrite
                0x0000000000000000        0x4 CMakeFiles/tube-client.dir/NS32016/NSDis.c.obj
 .text.n32016_disassemble
                0x0000000000000000      0x418 CMakeFiles/tube-client.dir/NS32016/NSDis.c.obj
 .bss.str_buf   0x0000000000000000        0x4 CMakeFiles/tube-client.dir/NS32016/NSDis.c.obj
 .bss.str_bufsize
                0x0000000000000000        0x4 CMakeFiles/tube-client.dir/NS32016/NSDis.c.obj
 .data.old_pc.0
                0x0000000000000000        0x4 CMakeFiles/tube-client.dir/NS32016/NSDis.c.obj
 .rodata.EightSpaces
                0x0000000000000000        0x9 CMakeFiles/tube-client.dir/NS32016/NSDis.c.obj
 .rodata.InstuctionText
                0x0000000000000000      0x788 CMakeFiles/tube-client.dir/NS32016/NSDis.c.obj
 .rodata.LPRLookUp
                0x0000000000000000      0x140 CMakeFiles/tube-client.dir/NS32016/NSDis.c.obj
 .rodata.PostFixLk
                0x0000000000000000        0x5 CMakeFiles/tube-client.dir/NS32016/NSDis.c.obj
 .rodata.PostFltLk
                0x0000000000000000        0x9 CMakeFiles/tube-client.dir/NS32016/NSDis.c.obj
 .comment       0x0000000000000000       0x1f CMakeFiles/tube-client.dir/NS32016/NSDis.c.obj
 .text          0x0000000000000000        0x0 CMakeFiles/tube-client.dir/NS32016/Profile.c.obj
 .data          0x0000000000000000        0x0 CMakeFiles/tube-client.dir/NS32016/Profile.c.obj
 .bss           0x0000000000000000        0x0 CMakeFiles/tube-client.dir/NS32016/Profile.c.obj
 .comment       0x0000000000000000       0x1f CMakeFiles/tube-client.dir/NS32016/Profile.c.obj
 .text          0x0000000000000000        0x0 CMakeFiles/tube-client.dir/NS32016/Trap.c.obj
 .data          0x0000000000000000        0x0 CMakeFiles/tube-client.dir/NS32016/Trap.c.obj
 .bss           0x0000000000000000        0x0 CMakeFiles/tube-client.dir/NS32016/Trap.c.obj
 .text          0x0000000000000000        0x0 CMakeFiles/tube-client.dir/NS32016/mem32016.c.obj
 .data          0x0000000000000000        0x0 CMakeFiles/tube-client.dir/NS32016/mem32016.c.obj
 .bss           0x0000000000000000        0x0 CMakeFiles/tube-client.dir/NS32016/mem32016.c.obj
 .text          0x0000000000000000        0x0 CMakeFiles/tube-client.dir/copro-32016.c.obj
 .data          0x0000000000000000        0x0 CMakeFiles/tube-client.dir/copro-32016.c.obj
 .bss           0x0000000000000000        0x0 CMakeFiles/tube-client.dir/copro-32016.c.obj
 .text          0x0000000000000000        0x0 CMakeFiles/tube-client.dir/copro-z80.c.obj
 .data          0x0000000000000000        0x0 CMakeFiles/tube-client.dir/copro-z80.c.obj
 .bss           0x0000000000000000        0x0 CMakeFiles/tube-client.dir/copro-z80.c.obj
 .text          0x0000000000000000        0x0 CMakeFiles/tube-client.dir/yaze/simz80.c.obj
 .data          0x0000000000000000        0x0 CMakeFiles/tube-client.dir/yaze/simz80.c.obj
 .bss           0x0000000000000000        0x0 CMakeFiles/tube-client.dir/yaze/simz80.c.obj
 .text          0x0000000000000000        0x0 CMakeFiles/tube-client.dir/copro-mc6809nc.c.obj
 .data          0x0000000000000000        0x0 CMakeFiles/tube-client.dir/copro-mc6809nc.c.obj
 .bss           0x0000000000000000        0x0 CMakeFiles/tube-client.dir/copro-mc6809nc.c.obj
 .text          0x0000000000000000        0x0 CMakeFiles/tube-client.dir/mc6809nc/mc6809.c.obj
 .data          0x0000000000000000        0x0 CMakeFiles/tube-client.dir/mc6809nc/mc6809.c.obj
 .bss           0x0000000000000000        0x0 CMakeFiles/tube-client.dir/mc6809nc/mc6809.c.obj
 .text.mc6809nc_release_irq
                0x0000000000000000       0x1c CMakeFiles/tube-client.dir/mc6809nc/mc6809.c.obj
 .text.mc6809nc_release_firq
                0x0000000000000000       0x1c CMakeFiles/tube-client.dir/mc6809nc/mc6809.c.obj
 .text.get_a    0x0000000000000000       0x10 CMakeFiles/tube-client.dir/mc6809nc/mc6809.c.obj
 .text.get_b    0x0000000000000000       0x10 CMakeFiles/tube-client.dir/mc6809nc/mc6809.c.obj
 .text.get_dp   0x0000000000000000       0x14 CMakeFiles/tube-client.dir/mc6809nc/mc6809.c.obj
 .text.get_x    0x0000000000000000       0x10 CMakeFiles/tube-client.dir/mc6809nc/mc6809.c.obj
 .text.get_y    0x0000000000000000       0x10 CMakeFiles/tube-client.dir/mc6809nc/mc6809.c.obj
 .text.get_s    0x0000000000000000       0x10 CMakeFiles/tube-client.dir/mc6809nc/mc6809.c.obj
 .text.get_u    0x0000000000000000       0x10 CMakeFiles/tube-client.dir/mc6809nc/mc6809.c.obj
 .text.get_pc   0x0000000000000000       0x10 CMakeFiles/tube-client.dir/mc6809nc/mc6809.c.obj
 .text.get_d    0x0000000000000000       0x20 CMakeFiles/tube-client.dir/mc6809nc/mc6809.c.obj
 .text.get_flags
                0x0000000000000000       0x10 CMakeFiles/tube-client.dir/mc6809nc/mc6809.c.obj
 .text.set_a    0x0000000000000000       0x10 CMakeFiles/tube-client.dir/mc6809nc/mc6809.c.obj
 .text.set_b    0x0000000000000000       0x10 CMakeFiles/tube-client.dir/mc6809nc/mc6809.c.obj
 .text.set_dp   0x0000000000000000       0x14 CMakeFiles/tube-client.dir/mc6809nc/mc6809.c.obj
 .text.set_x    0x0000000000000000       0x10 CMakeFiles/tube-client.dir/mc6809nc/mc6809.c.obj
 .text.set_y    0x0000000000000000       0x10 CMakeFiles/tube-client.dir/mc6809nc/mc6809.c.obj
 .text.set_s    0x0000000000000000       0x10 CMakeFiles/tube-client.dir/mc6809nc/mc6809.c.obj
 .text.set_u    0x0000000000000000       0x10 CMakeFiles/tube-client.dir/mc6809nc/mc6809.c.obj
 .text.set_pc   0x0000000000000000       0x10 CMakeFiles/tube-client.dir/mc6809nc/mc6809.c.obj
 .text.set_d    0x0000000000000000       0x20 CMakeFiles/tube-client.dir/mc6809nc/mc6809.c.obj
 .text          0x0000000000000000        0x0 CMakeFiles/tube-client.dir/tuberom_6809.c.obj
 .data          0x0000000000000000        0x0 CMakeFiles/tube-client.dir/tuberom_6809.c.obj
 .bss           0x0000000000000000        0x0 CMakeFiles/tube-client.dir/tuberom_6809.c.obj
 .text          0x0000000000000000        0x0 CMakeFiles/tube-client.dir/copro-opc5ls.c.obj
 .data          0x0000000000000000        0x0 CMakeFiles/tube-client.dir/copro-opc5ls.c.obj
 .bss           0x0000000000000000        0x0 CMakeFiles/tube-client.dir/copro-opc5ls.c.obj
 .text          0x0000000000000000        0x0 CMakeFiles/tube-client.dir/opc5ls/opc5ls.c.obj
 .data          0x0000000000000000        0x0 CMakeFiles/tube-client.dir/opc5ls/opc5ls.c.obj
 .bss           0x0000000000000000        0x0 CMakeFiles/tube-client.dir/opc5ls/opc5ls.c.obj
 .data.m_opc5ls
                0x0000000000000000        0x4 CMakeFiles/tube-client.dir/opc5ls/opc5ls.c.obj
 .text          0x0000000000000000        0x0 CMakeFiles/tube-client.dir/opc5ls/tuberom.c.obj
 .data          0x0000000000000000        0x0 CMakeFiles/tube-client.dir/opc5ls/tuberom.c.obj
 .bss           0x0000000000000000        0x0 CMakeFiles/tube-client.dir/opc5ls/tuberom.c.obj
 .text          0x0000000000000000        0x0 CMakeFiles/tube-client.dir/copro-opc6.c.obj
 .data          0x0000000000000000        0x0 CMakeFiles/tube-client.dir/copro-opc6.c.obj
 .bss           0x0000000000000000        0x0 CMakeFiles/tube-client.dir/copro-opc6.c.obj
 .text          0x0000000000000000        0x0 CMakeFiles/tube-client.dir/opc6/opc6.c.obj
 .data          0x0000000000000000        0x0 CMakeFiles/tube-client.dir/opc6/opc6.c.obj
 .bss           0x0000000000000000        0x0 CMakeFiles/tube-client.dir/opc6/opc6.c.obj
 .data.m_opc6   0x0000000000000000        0x4 CMakeFiles/tube-client.dir/opc6/opc6.c.obj
 .text          0x0000000000000000        0x0 CMakeFiles/tube-client.dir/opc6/tuberom.c.obj
 .data          0x0000000000000000        0x0 CMakeFiles/tube-client.dir/opc6/tuberom.c.obj
 .bss           0x0000000000000000        0x0 CMakeFiles/tube-client.dir/opc6/tuberom.c.obj
 .text          0x0000000000000000        0x0 CMakeFiles/tube-client.dir/copro-opc7.c.obj
 .data          0x0000000000000000        0x0 CMakeFiles/tube-client.dir/copro-opc7.c.obj
 .bss           0x0000000000000000        0x0 CMakeFiles/tube-client.dir/copro-opc7.c.obj
 .text          0x0000000000000000        0x0 CMakeFiles/tube-client.dir/opc7/opc7.c.obj
 .data          0x0000000000000000        0x0 CMakeFiles/tube-client.dir/opc7/opc7.c.obj
 .bss           0x0000000000000000        0x0 CMakeFiles/tube-client.dir/opc7/opc7.c.obj
 .data.m_opc7   0x0000000000000000        0x4 CMakeFiles/tube-client.dir/opc7/opc7.c.obj
 .text          0x0000000000000000        0x0 CMakeFiles/tube-client.dir/opc7/tuberom.c.obj
 .data          0x0000000000000000        0x0 CMakeFiles/tube-client.dir/opc7/tuberom.c.obj
 .bss           0x0000000000000000        0x0 CMakeFiles/tube-client.dir/opc7/tuberom.c.obj
 .text          0x0000000000000000        0x0 CMakeFiles/tube-client.dir/copro-f100.c.obj
 .data          0x0000000000000000        0x0 CMakeFiles/tube-client.dir/copro-f100.c.obj
 .bss           0x0000000000000000        0x0 CMakeFiles/tube-client.dir/copro-f100.c.obj
 .text          0x0000000000000000        0x0 CMakeFiles/tube-client.dir/f100/f100.c.obj
 .data          0x0000000000000000        0x0 CMakeFiles/tube-client.dir/f100/f100.c.obj
 .bss           0x0000000000000000        0x0 CMakeFiles/tube-client.dir/f100/f100.c.obj
 .data.m_f100   0x0000000000000000        0x4 CMakeFiles/tube-client.dir/f100/f100.c.obj
 .text          0x0000000000000000        0x0 CMakeFiles/tube-client.dir/f100/tuberom.c.obj
 .data          0x0000000000000000        0x0 CMakeFiles/tube-client.dir/f100/tuberom.c.obj
 .bss           0x0000000000000000        0x0 CMakeFiles/tube-client.dir/f100/tuberom.c.obj
 .text          0x0000000000000000        0x0 CMakeFiles/tube-client.dir/65816/65816.c.obj
 .data          0x0000000000000000        0x0 CMakeFiles/tube-client.dir/65816/65816.c.obj
 .bss           0x0000000000000000        0x0 CMakeFiles/tube-client.dir/65816/65816.c.obj
 .text.w65816_close
                0x0000000000000000        0x4 CMakeFiles/tube-client.dir/65816/65816.c.obj
 .text          0x0000000000000000        0x0 CMakeFiles/tube-client.dir/65816/tuberom_dominic65816.c.obj
 .data          0x0000000000000000        0x0 CMakeFiles/tube-client.dir/65816/tuberom_dominic65816.c.obj
 .bss           0x0000000000000000        0x0 CMakeFiles/tube-client.dir/65816/tuberom_dominic65816.c.obj
 .data.tuberom_dominic65816_bin_len
                0x0000000000000000        0x4 CMakeFiles/tube-client.dir/65816/tuberom_dominic65816.c.obj
 .text          0x0000000000000000        0x0 CMakeFiles/tube-client.dir/65816/tuberom_reco65816.c.obj
 .data          0x0000000000000000        0x0 CMakeFiles/tube-client.dir/65816/tuberom_reco65816.c.obj
 .bss           0x0000000000000000        0x0 CMakeFiles/tube-client.dir/65816/tuberom_reco65816.c.obj
 .text          0x0000000000000000        0x0 CMakeFiles/tube-client.dir/copro-65816.c.obj
 .data          0x0000000000000000        0x0 CMakeFiles/tube-client.dir/copro-65816.c.obj
 .bss           0x0000000000000000        0x0 CMakeFiles/tube-client.dir/copro-65816.c.obj
 .text          0x0000000000000000        0x0 CMakeFiles/tube-client.dir/copro-pdp11.c.obj
 .data          0x0000000000000000        0x0 CMakeFiles/tube-client.dir/copro-pdp11.c.obj
 .bss           0x0000000000000000        0x0 CMakeFiles/tube-client.dir/copro-pdp11.c.obj
 .text          0x0000000000000000        0x0 CMakeFiles/tube-client.dir/pdp11/pdp11.c.obj
 .data          0x0000000000000000        0x0 CMakeFiles/tube-client.dir/pdp11/pdp11.c.obj
 .bss           0x0000000000000000        0x0 CMakeFiles/tube-client.dir/pdp11/pdp11.c.obj
 .text.pdp11_switchmode
                0x0000000000000000       0x50 CMakeFiles/tube-client.dir/pdp11/pdp11.c.obj
 .text          0x0000000000000000        0x0 CMakeFiles/tube-client.dir/pdp11/tuberom.c.obj
 .data          0x0000000000000000        0x0 CMakeFiles/tube-client.dir/pdp11/tuberom.c.obj
 .bss           0x0000000000000000        0x0 CMakeFiles/tube-client.dir/pdp11/tuberom.c.obj
 .text          0x0000000000000000        0x0 CMakeFiles/tube-client.dir/copro-null.c.obj
 .data          0x0000000000000000        0x0 CMakeFiles/tube-client.dir/copro-null.c.obj
 .bss           0x0000000000000000        0x0 CMakeFiles/tube-client.dir/copro-null.c.obj
 .text          0x0000000000000000        0x0 CMakeFiles/tube-client.dir/armbasic.c.obj
 .data          0x0000000000000000        0x0 CMakeFiles/tube-client.dir/armbasic.c.obj
 .bss           0x0000000000000000        0x0 CMakeFiles/tube-client.dir/armbasic.c.obj
 .text          0x0000000000000000        0x0 CMakeFiles/tube-client.dir/copro-armnative.c.obj
 .data          0x0000000000000000        0x0 CMakeFiles/tube-client.dir/copro-armnative.c.obj
 .bss           0x0000000000000000        0x0 CMakeFiles/tube-client.dir/copro-armnative.c.obj
 .data          0x0000000000000000        0x0 CMakeFiles/tube-client.dir/copro-armnativeasm.S.obj
 .bss           0x0000000000000000        0x0 CMakeFiles/tube-client.dir/copro-armnativeasm.S.obj
 .text          0x0000000000000000        0x0 CMakeFiles/tube-client.dir/darm/armv7-tbl.c.obj
 .data          0x0000000000000000        0x0 CMakeFiles/tube-client.dir/darm/armv7-tbl.c.obj
 .bss           0x0000000000000000        0x0 CMakeFiles/tube-client.dir/darm/armv7-tbl.c.obj
 .text          0x0000000000000000        0x0 CMakeFiles/tube-client.dir/darm/armv7.c.obj
 .data          0x0000000000000000        0x0 CMakeFiles/tube-client.dir/darm/armv7.c.obj
 .bss           0x0000000000000000        0x0 CMakeFiles/tube-client.dir/darm/armv7.c.obj
 .text          0x0000000000000000        0x0 CMakeFiles/tube-client.dir/darm/darm-tbl.c.obj
 .data          0x0000000000000000        0x0 CMakeFiles/tube-client.dir/darm/darm-tbl.c.obj
 .bss           0x0000000000000000        0x0 CMakeFiles/tube-client.dir/darm/darm-tbl.c.obj
 .data.darm_enctypes
                0x0000000000000000      0x14c CMakeFiles/tube-client.dir/darm/darm-tbl.c.obj
 .text          0x0000000000000000        0x0 CMakeFiles/tube-client.dir/darm/darm.c.obj
 .data          0x0000000000000000        0x0 CMakeFiles/tube-client.dir/darm/darm.c.obj
 .bss           0x0000000000000000        0x0 CMakeFiles/tube-client.dir/darm/darm.c.obj
 .text.darm_disasm
                0x0000000000000000       0x5c CMakeFiles/tube-client.dir/darm/darm.c.obj
 .rodata.is_thumb2.0
                0x0000000000000000       0x20 CMakeFiles/tube-client.dir/darm/darm.c.obj
 .text          0x0000000000000000        0x0 CMakeFiles/tube-client.dir/darm/thumb-tbl.c.obj
 .data          0x0000000000000000        0x0 CMakeFiles/tube-client.dir/darm/thumb-tbl.c.obj
 .bss           0x0000000000000000        0x0 CMakeFiles/tube-client.dir/darm/thumb-tbl.c.obj
 .data.thumb_instr_labels
                0x0000000000000000      0x200 CMakeFiles/tube-client.dir/darm/thumb-tbl.c.obj
 .data.thumb_instr_types
                0x0000000000000000      0x100 CMakeFiles/tube-client.dir/darm/thumb-tbl.c.obj
 .data.type_extend_instr_lookup
                0x0000000000000000        0x8 CMakeFiles/tube-client.dir/darm/thumb-tbl.c.obj
 .data.type_gpi_instr_lookup
                0x0000000000000000       0x20 CMakeFiles/tube-client.dir/darm/thumb-tbl.c.obj
 .data.type_hints_instr_lookup
                0x0000000000000000       0x10 CMakeFiles/tube-client.dir/darm/thumb-tbl.c.obj
 .data.type_rev_instr_lookup
                0x0000000000000000        0x8 CMakeFiles/tube-client.dir/darm/thumb-tbl.c.obj
 .comment       0x0000000000000000       0x1f CMakeFiles/tube-client.dir/darm/thumb-tbl.c.obj
 .text          0x0000000000000000        0x0 CMakeFiles/tube-client.dir/darm/thumb.c.obj
 .data          0x0000000000000000        0x0 CMakeFiles/tube-client.dir/darm/thumb.c.obj
 .bss           0x0000000000000000        0x0 CMakeFiles/tube-client.dir/darm/thumb.c.obj
 .text.darm_thumb_disasm
                0x0000000000000000      0x7a0 CMakeFiles/tube-client.dir/darm/thumb.c.obj
 .comment       0x0000000000000000       0x1f CMakeFiles/tube-client.dir/darm/thumb.c.obj
 .text          0x0000000000000000        0x0 CMakeFiles/tube-client.dir/darm/thumb2-decoder.c.obj
 .data          0x0000000000000000        0x0 CMakeFiles/tube-client.dir/darm/thumb2-decoder.c.obj
 .bss           0x0000000000000000        0x0 CMakeFiles/tube-client.dir/darm/thumb2-decoder.c.obj
 .text.thumb2_decode_instruction
                0x0000000000000000     0x1624 CMakeFiles/tube-client.dir/darm/thumb2-decoder.c.obj
 .rodata.CSWTCH.12
                0x0000000000000000        0xa CMakeFiles/tube-client.dir/darm/thumb2-decoder.c.obj
 .rodata.CSWTCH.14
                0x0000000000000000        0xe CMakeFiles/tube-client.dir/darm/thumb2-decoder.c.obj
 .rodata.CSWTCH.21
                0x0000000000000000        0xe CMakeFiles/tube-client.dir/darm/thumb2-decoder.c.obj
 .rodata.CSWTCH.22
                0x0000000000000000        0xe CMakeFiles/tube-client.dir/darm/thumb2-decoder.c.obj
 .rodata.CSWTCH.23
                0x0000000000000000        0xe CMakeFiles/tube-client.dir/darm/thumb2-decoder.c.obj
 .rodata.CSWTCH.25
                0x0000000000000000        0xe CMakeFiles/tube-client.dir/darm/thumb2-decoder.c.obj
 .rodata.CSWTCH.26
                0x0000000000000000        0xe CMakeFiles/tube-client.dir/darm/thumb2-decoder.c.obj
 .rodata.CSWTCH.27
                0x0000000000000000        0xe CMakeFiles/tube-client.dir/darm/thumb2-decoder.c.obj
 .rodata.CSWTCH.29
                0x0000000000000000        0x6 CMakeFiles/tube-client.dir/darm/thumb2-decoder.c.obj
 .rodata.CSWTCH.30
                0x0000000000000000        0x6 CMakeFiles/tube-client.dir/darm/thumb2-decoder.c.obj
 .rodata.CSWTCH.32
                0x0000000000000000        0xe CMakeFiles/tube-client.dir/darm/thumb2-decoder.c.obj
 .comment       0x0000000000000000       0x1f CMakeFiles/tube-client.dir/darm/thumb2-decoder.c.obj
 .text          0x0000000000000000        0x0 CMakeFiles/tube-client.dir/darm/thumb2-tbl.c.obj
 .data          0x0000000000000000        0x0 CMakeFiles/tube-client.dir/darm/thumb2-tbl.c.obj
 .bss           0x0000000000000000        0x0 CMakeFiles/tube-client.dir/darm/thumb2-tbl.c.obj
 .rodata.str1.4
                0x0000000000000000      0x448 CMakeFiles/tube-client.dir/darm/thumb2-tbl.c.obj
 .data.thumb2_instr_labels
                0x0000000000000000      0x200 CMakeFiles/tube-client.dir/darm/thumb2-tbl.c.obj
 .data.thumb2_instruction_strings
                0x0000000000000000      0x400 CMakeFiles/tube-client.dir/darm/thumb2-tbl.c.obj
 .comment       0x0000000000000000       0x1f CMakeFiles/tube-client.dir/darm/thumb2-tbl.c.obj
 .text          0x0000000000000000        0x0 CMakeFiles/tube-client.dir/darm/thumb2.c.obj
 .data          0x0000000000000000        0x0 CMakeFiles/tube-client.dir/darm/thumb2.c.obj
 .bss           0x0000000000000000        0x0 CMakeFiles/tube-client.dir/darm/thumb2.c.obj
 .text.thumb2_decode_immshift
                0x0000000000000000       0x40 CMakeFiles/tube-client.dir/darm/thumb2.c.obj
 .text.darm_thumb2_disasm
                0x0000000000000000      0xb74 CMakeFiles/tube-client.dir/darm/thumb2.c.obj
 .comment       0x0000000000000000       0x1f CMakeFiles/tube-client.dir/darm/thumb2.c.obj
 .text          0x0000000000000000        0x0 CMakeFiles/tube-client.dir/rpi-armtimer.c.obj
 .data          0x0000000000000000        0x0 CMakeFiles/tube-client.dir/rpi-armtimer.c.obj
 .bss           0x0000000000000000        0x0 CMakeFiles/tube-client.dir/rpi-armtimer.c.obj
 .text          0x0000000000000000        0x0 CMakeFiles/tube-client.dir/swi.c.obj
 .data          0x0000000000000000        0x0 CMakeFiles/tube-client.dir/swi.c.obj
 .bss           0x0000000000000000        0x0 CMakeFiles/tube-client.dir/swi.c.obj
 .text.OS_GenerateError
                0x0000000000000000       0x10 CMakeFiles/tube-client.dir/swi.c.obj
 .text          0x0000000000000000        0x0 CMakeFiles/tube-client.dir/tube-commands.c.obj
 .data          0x0000000000000000        0x0 CMakeFiles/tube-client.dir/tube-commands.c.obj
 .bss           0x0000000000000000        0x0 CMakeFiles/tube-client.dir/tube-commands.c.obj
 .text          0x0000000000000000        0x0 CMakeFiles/tube-client.dir/tube-isr.c.obj
 .data          0x0000000000000000        0x0 CMakeFiles/tube-client.dir/tube-isr.c.obj
 .bss           0x0000000000000000        0x0 CMakeFiles/tube-client.dir/tube-isr.c.obj
 .text          0x0000000000000000        0x0 CMakeFiles/tube-client.dir/tube-lib.c.obj
 .data          0x0000000000000000        0x0 CMakeFiles/tube-client.dir/tube-lib.c.obj
 .bss           0x0000000000000000        0x0 CMakeFiles/tube-client.dir/tube-lib.c.obj
 .text.setTubeLibDebug
                0x0000000000000000       0x10 CMakeFiles/tube-client.dir/tube-lib.c.obj
 .text          0x0000000000000000        0x0 CMakeFiles/tube-client.dir/tube-swi.c.obj
 .data          0x0000000000000000        0x0 CMakeFiles/tube-client.dir/tube-swi.c.obj
 .bss           0x0000000000000000        0x0 CMakeFiles/tube-client.dir/tube-swi.c.obj
 .text          0x0000000000000000        0x0 /usr/lib/gcc/arm-none-eabi/11.2.0/../../../../arm-none-eabi/lib/thumb/v7+fp/hard/libm.a(lib_a-wf_sqrt.o)
 .data          0x0000000000000000        0x0 /usr/lib/gcc/arm-none-eabi/11.2.0/../../../../arm-none-eabi/lib/thumb/v7+fp/hard/libm.a(lib_a-wf_sqrt.o)
 .bss           0x0000000000000000        0x0 /usr/lib/gcc/arm-none-eabi/11.2.0/../../../../arm-none-eabi/lib/thumb/v7+fp/hard/libm.a(lib_a-wf_sqrt.o)
 .text          0x0000000000000000        0x0 /usr/lib/gcc/arm-none-eabi/11.2.0/../../../../arm-none-eabi/lib/thumb/v7+fp/hard/libm.a(lib_a-w_sqrt.o)
 .data          0x0000000000000000        0x0 /usr/lib/gcc/arm-none-eabi/11.2.0/../../../../arm-none-eabi/lib/thumb/v7+fp/hard/libm.a(lib_a-w_sqrt.o)
 .bss           0x0000000000000000        0x0 /usr/lib/gcc/arm-none-eabi/11.2.0/../../../../arm-none-eabi/lib/thumb/v7+fp/hard/libm.a(lib_a-w_sqrt.o)
 .text          0x0000000000000000        0x0 /usr/lib/gcc/arm-none-eabi/11.2.0/../../../../arm-none-eabi/lib/thumb/v7+fp/hard/libm.a(lib_a-ef_sqrt.o)
 .data          0x0000000000000000        0x0 /usr/lib/gcc/arm-none-eabi/11.2.0/../../../../arm-none-eabi/lib/thumb/v7+fp/hard/libm.a(lib_a-ef_sqrt.o)
 .bss           0x0000000000000000        0x0 /usr/lib/gcc/arm-none-eabi/11.2.0/../../../../arm-none-eabi/lib/thumb/v7+fp/hard/libm.a(lib_a-ef_sqrt.o)
 .text          0x0000000000000000        0x0 /usr/lib/gcc/arm-none-eabi/11.2.0/../../../../arm-none-eabi/lib/thumb/v7+fp/hard/libm.a(lib_a-e_sqrt.o)
 .data          0x0000000000000000        0x0 /usr/lib/gcc/arm-none-eabi/11.2.0/../../../../arm-none-eabi/lib/thumb/v7+fp/hard/libm.a(lib_a-e_sqrt.o)
 .bss           0x0000000000000000        0x0 /usr/lib/gcc/arm-none-eabi/11.2.0/../../../../arm-none-eabi/lib/thumb/v7+fp/hard/libm.a(lib_a-e_sqrt.o)
 .data          0x0000000000000000        0x0 /usr/lib/gcc/arm-none-eabi/11.2.0/thumb/v7+fp/hard/libgcc.a(_aeabi_uldivmod.o)
 .bss           0x0000000000000000        0x0 /usr/lib/gcc/arm-none-eabi/11.2.0/thumb/v7+fp/hard/libgcc.a(_aeabi_uldivmod.o)
 .text          0x0000000000000000        0x0 /usr/lib/gcc/arm-none-eabi/11.2.0/thumb/v7+fp/hard/libgcc.a(_udivmoddi4.o)
 .data          0x0000000000000000        0x0 /usr/lib/gcc/arm-none-eabi/11.2.0/thumb/v7+fp/hard/libgcc.a(_udivmoddi4.o)
 .bss           0x0000000000000000        0x0 /usr/lib/gcc/arm-none-eabi/11.2.0/thumb/v7+fp/hard/libgcc.a(_udivmoddi4.o)
 .ARM.extab.text.__udivmoddi4
                0x0000000000000000        0x0 /usr/lib/gcc/arm-none-eabi/11.2.0/thumb/v7+fp/hard/libgcc.a(_udivmoddi4.o)
 .data          0x0000000000000000        0x0 /usr/lib/gcc/arm-none-eabi/11.2.0/thumb/v7+fp/hard/libgcc.a(_dvmd_tls.o)
 .bss           0x0000000000000000        0x0 /usr/lib/gcc/arm-none-eabi/11.2.0/thumb/v7+fp/hard/libgcc.a(_dvmd_tls.o)
 .text          0x0000000000000000        0x0 /usr/lib/gcc/arm-none-eabi/11.2.0/../../../../arm-none-eabi/lib/thumb/v7+fp/hard/libc_nano.a(lib_a-atoi.o)
 .data          0x0000000000000000        0x0 /usr/lib/gcc/arm-none-eabi/11.2.0/../../../../arm-none-eabi/lib/thumb/v7+fp/hard/libc_nano.a(lib_a-atoi.o)
 .bss           0x0000000000000000        0x0 /usr/lib/gcc/arm-none-eabi/11.2.0/../../../../arm-none-eabi/lib/thumb/v7+fp/hard/libc_nano.a(lib_a-atoi.o)
 .text._atoi_r  0x0000000000000000        0x8 /usr/lib/gcc/arm-none-eabi/11.2.0/../../../../arm-none-eabi/lib/thumb/v7+fp/hard/libc_nano.a(lib_a-atoi.o)
 .text          0x0000000000000000        0x0 /usr/lib/gcc/arm-none-eabi/11.2.0/../../../../arm-none-eabi/lib/thumb/v7+fp/hard/libc_nano.a(lib_a-calloc.o)
 .data          0x0000000000000000        0x0 /usr/lib/gcc/arm-none-eabi/11.2.0/../../../../arm-none-eabi/lib/thumb/v7+fp/hard/libc_nano.a(lib_a-calloc.o)
 .bss           0x0000000000000000        0x0 /usr/lib/gcc/arm-none-eabi/11.2.0/../../../../arm-none-eabi/lib/thumb/v7+fp/hard/libc_nano.a(lib_a-calloc.o)
 .text          0x0000000000000000        0x0 /usr/lib/gcc/arm-none-eabi/11.2.0/../../../../arm-none-eabi/lib/thumb/v7+fp/hard/libc_nano.a(lib_a-ctype_.o)
 .data          0x0000000000000000        0x0 /usr/lib/gcc/arm-none-eabi/11.2.0/../../../../arm-none-eabi/lib/thumb/v7+fp/hard/libc_nano.a(lib_a-ctype_.o)
 .bss           0x0000000000000000        0x0 /usr/lib/gcc/arm-none-eabi/11.2.0/../../../../arm-none-eabi/lib/thumb/v7+fp/hard/libc_nano.a(lib_a-ctype_.o)
 .text          0x0000000000000000        0x0 /usr/lib/gcc/arm-none-eabi/11.2.0/../../../../arm-none-eabi/lib/thumb/v7+fp/hard/libc_nano.a(lib_a-errno.o)
 .data          0x0000000000000000        0x0 /usr/lib/gcc/arm-none-eabi/11.2.0/../../../../arm-none-eabi/lib/thumb/v7+fp/hard/libc_nano.a(lib_a-errno.o)
 .bss           0x0000000000000000        0x0 /usr/lib/gcc/arm-none-eabi/11.2.0/../../../../arm-none-eabi/lib/thumb/v7+fp/hard/libc_nano.a(lib_a-errno.o)
 .text          0x0000000000000000        0x0 /usr/lib/gcc/arm-none-eabi/11.2.0/../../../../arm-none-eabi/lib/thumb/v7+fp/hard/libc_nano.a(lib_a-fflush.o)
 .data          0x0000000000000000        0x0 /usr/lib/gcc/arm-none-eabi/11.2.0/../../../../arm-none-eabi/lib/thumb/v7+fp/hard/libc_nano.a(lib_a-fflush.o)
 .bss           0x0000000000000000        0x0 /usr/lib/gcc/arm-none-eabi/11.2.0/../../../../arm-none-eabi/lib/thumb/v7+fp/hard/libc_nano.a(lib_a-fflush.o)
 .text          0x0000000000000000        0x0 /usr/lib/gcc/arm-none-eabi/11.2.0/../../../../arm-none-eabi/lib/thumb/v7+fp/hard/libc_nano.a(lib_a-findfp.o)
 .data          0x0000000000000000        0x0 /usr/lib/gcc/arm-none-eabi/11.2.0/../../../../arm-none-eabi/lib/thumb/v7+fp/hard/libc_nano.a(lib_a-findfp.o)
 .bss           0x0000000000000000        0x0 /usr/lib/gcc/arm-none-eabi/11.2.0/../../../../arm-none-eabi/lib/thumb/v7+fp/hard/libc_nano.a(lib_a-findfp.o)
 .text.__fp_lock
                0x0000000000000000       0x18 /usr/lib/gcc/arm-none-eabi/11.2.0/../../../../arm-none-eabi/lib/thumb/v7+fp/hard/libc_nano.a(lib_a-findfp.o)
 .text.__fp_unlock
                0x0000000000000000       0x18 /usr/lib/gcc/arm-none-eabi/11.2.0/../../../../arm-none-eabi/lib/thumb/v7+fp/hard/libc_nano.a(lib_a-findfp.o)
 .text._cleanup
                0x0000000000000000        0xc /usr/lib/gcc/arm-none-eabi/11.2.0/../../../../arm-none-eabi/lib/thumb/v7+fp/hard/libc_nano.a(lib_a-findfp.o)
 .text.__fp_lock_all
                0x0000000000000000       0x1c /usr/lib/gcc/arm-none-eabi/11.2.0/../../../../arm-none-eabi/lib/thumb/v7+fp/hard/libc_nano.a(lib_a-findfp.o)
 .text.__fp_unlock_all
                0x0000000000000000       0x1c /usr/lib/gcc/arm-none-eabi/11.2.0/../../../../arm-none-eabi/lib/thumb/v7+fp/hard/libc_nano.a(lib_a-findfp.o)
 .text          0x0000000000000000        0x0 /usr/lib/gcc/arm-none-eabi/11.2.0/../../../../arm-none-eabi/lib/thumb/v7+fp/hard/libc_nano.a(lib_a-fwalk.o)
 .data          0x0000000000000000        0x0 /usr/lib/gcc/arm-none-eabi/11.2.0/../../../../arm-none-eabi/lib/thumb/v7+fp/hard/libc_nano.a(lib_a-fwalk.o)
 .bss           0x0000000000000000        0x0 /usr/lib/gcc/arm-none-eabi/11.2.0/../../../../arm-none-eabi/lib/thumb/v7+fp/hard/libc_nano.a(lib_a-fwalk.o)
 .text._fwalk   0x0000000000000000       0x3a /usr/lib/gcc/arm-none-eabi/11.2.0/../../../../arm-none-eabi/lib/thumb/v7+fp/hard/libc_nano.a(lib_a-fwalk.o)
 .text          0x0000000000000000        0x0 /usr/lib/gcc/arm-none-eabi/11.2.0/../../../../arm-none-eabi/lib/thumb/v7+fp/hard/libc_nano.a(lib_a-fwrite.o)
 .data          0x0000000000000000        0x0 /usr/lib/gcc/arm-none-eabi/11.2.0/../../../../arm-none-eabi/lib/thumb/v7+fp/hard/libc_nano.a(lib_a-fwrite.o)
 .bss           0x0000000000000000        0x0 /usr/lib/gcc/arm-none-eabi/11.2.0/../../../../arm-none-eabi/lib/thumb/v7+fp/hard/libc_nano.a(lib_a-fwrite.o)
 .text          0x0000000000000000        0x0 /usr/lib/gcc/arm-none-eabi/11.2.0/../../../../arm-none-eabi/lib/thumb/v7+fp/hard/libc_nano.a(lib_a-impure.o)
 .data          0x0000000000000000        0x0 /usr/lib/gcc/arm-none-eabi/11.2.0/../../../../arm-none-eabi/lib/thumb/v7+fp/hard/libc_nano.a(lib_a-impure.o)
 .bss           0x0000000000000000        0x0 /usr/lib/gcc/arm-none-eabi/11.2.0/../../../../arm-none-eabi/lib/thumb/v7+fp/hard/libc_nano.a(lib_a-impure.o)
 .text          0x0000000000000000        0x0 /usr/lib/gcc/arm-none-eabi/11.2.0/../../../../arm-none-eabi/lib/thumb/v7+fp/hard/libc_nano.a(lib_a-lock.o)
 .data          0x0000000000000000        0x0 /usr/lib/gcc/arm-none-eabi/11.2.0/../../../../arm-none-eabi/lib/thumb/v7+fp/hard/libc_nano.a(lib_a-lock.o)
 .bss           0x0000000000000000        0x0 /usr/lib/gcc/arm-none-eabi/11.2.0/../../../../arm-none-eabi/lib/thumb/v7+fp/hard/libc_nano.a(lib_a-lock.o)
 .text.__retarget_lock_init
                0x0000000000000000        0x2 /usr/lib/gcc/arm-none-eabi/11.2.0/../../../../arm-none-eabi/lib/thumb/v7+fp/hard/libc_nano.a(lib_a-lock.o)
 .text.__retarget_lock_close
                0x0000000000000000        0x2 /usr/lib/gcc/arm-none-eabi/11.2.0/../../../../arm-none-eabi/lib/thumb/v7+fp/hard/libc_nano.a(lib_a-lock.o)
 .text.__retarget_lock_close_recursive
                0x0000000000000000        0x2 /usr/lib/gcc/arm-none-eabi/11.2.0/../../../../arm-none-eabi/lib/thumb/v7+fp/hard/libc_nano.a(lib_a-lock.o)
 .text.__retarget_lock_acquire
                0x0000000000000000        0x2 /usr/lib/gcc/arm-none-eabi/11.2.0/../../../../arm-none-eabi/lib/thumb/v7+fp/hard/libc_nano.a(lib_a-lock.o)
 .text.__retarget_lock_try_acquire
                0x0000000000000000        0x4 /usr/lib/gcc/arm-none-eabi/11.2.0/../../../../arm-none-eabi/lib/thumb/v7+fp/hard/libc_nano.a(lib_a-lock.o)
 .text.__retarget_lock_try_acquire_recursive
                0x0000000000000000        0x4 /usr/lib/gcc/arm-none-eabi/11.2.0/../../../../arm-none-eabi/lib/thumb/v7+fp/hard/libc_nano.a(lib_a-lock.o)
 .text.__retarget_lock_release
                0x0000000000000000        0x2 /usr/lib/gcc/arm-none-eabi/11.2.0/../../../../arm-none-eabi/lib/thumb/v7+fp/hard/libc_nano.a(lib_a-lock.o)
 .bss.__lock___arc4random_mutex
                0x0000000000000000        0x1 /usr/lib/gcc/arm-none-eabi/11.2.0/../../../../arm-none-eabi/lib/thumb/v7+fp/hard/libc_nano.a(lib_a-lock.o)
 .bss.__lock___at_quick_exit_mutex
                0x0000000000000000        0x1 /usr/lib/gcc/arm-none-eabi/11.2.0/../../../../arm-none-eabi/lib/thumb/v7+fp/hard/libc_nano.a(lib_a-lock.o)
 .bss.__lock___atexit_recursive_mutex
                0x0000000000000000        0x1 /usr/lib/gcc/arm-none-eabi/11.2.0/../../../../arm-none-eabi/lib/thumb/v7+fp/hard/libc_nano.a(lib_a-lock.o)
 .bss.__lock___dd_hash_mutex
                0x0000000000000000        0x1 /usr/lib/gcc/arm-none-eabi/11.2.0/../../../../arm-none-eabi/lib/thumb/v7+fp/hard/libc_nano.a(lib_a-lock.o)
 .bss.__lock___env_recursive_mutex
                0x0000000000000000        0x1 /usr/lib/gcc/arm-none-eabi/11.2.0/../../../../arm-none-eabi/lib/thumb/v7+fp/hard/libc_nano.a(lib_a-lock.o)
 .bss.__lock___tz_mutex
                0x0000000000000000        0x1 /usr/lib/gcc/arm-none-eabi/11.2.0/../../../../arm-none-eabi/lib/thumb/v7+fp/hard/libc_nano.a(lib_a-lock.o)
 .text          0x0000000000000000        0x0 /usr/lib/gcc/arm-none-eabi/11.2.0/../../../../arm-none-eabi/lib/thumb/v7+fp/hard/libc_nano.a(lib_a-malloc.o)
 .data          0x0000000000000000        0x0 /usr/lib/gcc/arm-none-eabi/11.2.0/../../../../arm-none-eabi/lib/thumb/v7+fp/hard/libc_nano.a(lib_a-malloc.o)
 .bss           0x0000000000000000        0x0 /usr/lib/gcc/arm-none-eabi/11.2.0/../../../../arm-none-eabi/lib/thumb/v7+fp/hard/libc_nano.a(lib_a-malloc.o)
 .text          0x0000000000000000        0x0 /usr/lib/gcc/arm-none-eabi/11.2.0/../../../../arm-none-eabi/lib/thumb/v7+fp/hard/libc_nano.a(lib_a-memcpy-stub.o)
 .data          0x0000000000000000        0x0 /usr/lib/gcc/arm-none-eabi/11.2.0/../../../../arm-none-eabi/lib/thumb/v7+fp/hard/libc_nano.a(lib_a-memcpy-stub.o)
 .bss           0x0000000000000000        0x0 /usr/lib/gcc/arm-none-eabi/11.2.0/../../../../arm-none-eabi/lib/thumb/v7+fp/hard/libc_nano.a(lib_a-memcpy-stub.o)
 .text          0x0000000000000000        0x0 /usr/lib/gcc/arm-none-eabi/11.2.0/../../../../arm-none-eabi/lib/thumb/v7+fp/hard/libc_nano.a(lib_a-memmove.o)
 .data          0x0000000000000000        0x0 /usr/lib/gcc/arm-none-eabi/11.2.0/../../../../arm-none-eabi/lib/thumb/v7+fp/hard/libc_nano.a(lib_a-memmove.o)
 .bss           0x0000000000000000        0x0 /usr/lib/gcc/arm-none-eabi/11.2.0/../../../../arm-none-eabi/lib/thumb/v7+fp/hard/libc_nano.a(lib_a-memmove.o)
 .text          0x0000000000000000        0x0 /usr/lib/gcc/arm-none-eabi/11.2.0/../../../../arm-none-eabi/lib/thumb/v7+fp/hard/libc_nano.a(lib_a-memset.o)
 .data          0x0000000000000000        0x0 /usr/lib/gcc/arm-none-eabi/11.2.0/../../../../arm-none-eabi/lib/thumb/v7+fp/hard/libc_nano.a(lib_a-memset.o)
 .bss           0x0000000000000000        0x0 /usr/lib/gcc/arm-none-eabi/11.2.0/../../../../arm-none-eabi/lib/thumb/v7+fp/hard/libc_nano.a(lib_a-memset.o)
 .text          0x0000000000000000        0x0 /usr/lib/gcc/arm-none-eabi/11.2.0/../../../../arm-none-eabi/lib/thumb/v7+fp/hard/libc_nano.a(lib_a-nano-callocr.o)
 .data          0x0000000000000000        0x0 /usr/lib/gcc/arm-none-eabi/11.2.0/../../../../arm-none-eabi/lib/thumb/v7+fp/hard/libc_nano.a(lib_a-nano-callocr.o)
 .bss           0x0000000000000000        0x0 /usr/lib/gcc/arm-none-eabi/11.2.0/../../../../arm-none-eabi/lib/thumb/v7+fp/hard/libc_nano.a(lib_a-nano-callocr.o)
 .text          0x0000000000000000        0x0 /usr/lib/gcc/arm-none-eabi/11.2.0/../../../../arm-none-eabi/lib/thumb/v7+fp/hard/libc_nano.a(lib_a-nano-freer.o)
 .data          0x0000000000000000        0x0 /usr/lib/gcc/arm-none-eabi/11.2.0/../../../../arm-none-eabi/lib/thumb/v7+fp/hard/libc_nano.a(lib_a-nano-freer.o)
 .bss           0x0000000000000000        0x0 /usr/lib/gcc/arm-none-eabi/11.2.0/../../../../arm-none-eabi/lib/thumb/v7+fp/hard/libc_nano.a(lib_a-nano-freer.o)
 .text          0x0000000000000000        0x0 /usr/lib/gcc/arm-none-eabi/11.2.0/../../../../arm-none-eabi/lib/thumb/v7+fp/hard/libc_nano.a(lib_a-nano-mallocr.o)
 .data          0x0000000000000000        0x0 /usr/lib/gcc/arm-none-eabi/11.2.0/../../../../arm-none-eabi/lib/thumb/v7+fp/hard/libc_nano.a(lib_a-nano-mallocr.o)
 .bss           0x0000000000000000        0x0 /usr/lib/gcc/arm-none-eabi/11.2.0/../../../../arm-none-eabi/lib/thumb/v7+fp/hard/libc_nano.a(lib_a-nano-mallocr.o)
 .text          0x0000000000000000        0x0 /usr/lib/gcc/arm-none-eabi/11.2.0/../../../../arm-none-eabi/lib/thumb/v7+fp/hard/libc_nano.a(lib_a-nano-vfprintf_float.o)
 .data          0x0000000000000000        0x0 /usr/lib/gcc/arm-none-eabi/11.2.0/../../../../arm-none-eabi/lib/thumb/v7+fp/hard/libc_nano.a(lib_a-nano-vfprintf_float.o)
 .bss           0x0000000000000000        0x0 /usr/lib/gcc/arm-none-eabi/11.2.0/../../../../arm-none-eabi/lib/thumb/v7+fp/hard/libc_nano.a(lib_a-nano-vfprintf_float.o)
 .text          0x0000000000000000        0x0 /usr/lib/gcc/arm-none-eabi/11.2.0/../../../../arm-none-eabi/lib/thumb/v7+fp/hard/libc_nano.a(lib_a-nano-vfprintf_i.o)
 .data          0x0000000000000000        0x0 /usr/lib/gcc/arm-none-eabi/11.2.0/../../../../arm-none-eabi/lib/thumb/v7+fp/hard/libc_nano.a(lib_a-nano-vfprintf_i.o)
 .bss           0x0000000000000000        0x0 /usr/lib/gcc/arm-none-eabi/11.2.0/../../../../arm-none-eabi/lib/thumb/v7+fp/hard/libc_nano.a(lib_a-nano-vfprintf_i.o)
 .text          0x0000000000000000        0x0 /usr/lib/gcc/arm-none-eabi/11.2.0/../../../../arm-none-eabi/lib/thumb/v7+fp/hard/libc_nano.a(lib_a-printf.o)
 .data          0x0000000000000000        0x0 /usr/lib/gcc/arm-none-eabi/11.2.0/../../../../arm-none-eabi/lib/thumb/v7+fp/hard/libc_nano.a(lib_a-printf.o)
 .bss           0x0000000000000000        0x0 /usr/lib/gcc/arm-none-eabi/11.2.0/../../../../arm-none-eabi/lib/thumb/v7+fp/hard/libc_nano.a(lib_a-printf.o)
 .text._printf_r
                0x0000000000000000       0x28 /usr/lib/gcc/arm-none-eabi/11.2.0/../../../../arm-none-eabi/lib/thumb/v7+fp/hard/libc_nano.a(lib_a-printf.o)
 .text          0x0000000000000000        0x0 /usr/lib/gcc/arm-none-eabi/11.2.0/../../../../arm-none-eabi/lib/thumb/v7+fp/hard/libc_nano.a(lib_a-putchar.o)
 .data          0x0000000000000000        0x0 /usr/lib/gcc/arm-none-eabi/11.2.0/../../../../arm-none-eabi/lib/thumb/v7+fp/hard/libc_nano.a(lib_a-putchar.o)
 .bss           0x0000000000000000        0x0 /usr/lib/gcc/arm-none-eabi/11.2.0/../../../../arm-none-eabi/lib/thumb/v7+fp/hard/libc_nano.a(lib_a-putchar.o)
 .text._putchar_r
                0x0000000000000000       0x20 /usr/lib/gcc/arm-none-eabi/11.2.0/../../../../arm-none-eabi/lib/thumb/v7+fp/hard/libc_nano.a(lib_a-putchar.o)
 .text          0x0000000000000000        0x0 /usr/lib/gcc/arm-none-eabi/11.2.0/../../../../arm-none-eabi/lib/thumb/v7+fp/hard/libc_nano.a(lib_a-putc.o)
 .data          0x0000000000000000        0x0 /usr/lib/gcc/arm-none-eabi/11.2.0/../../../../arm-none-eabi/lib/thumb/v7+fp/hard/libc_nano.a(lib_a-putc.o)
 .bss           0x0000000000000000        0x0 /usr/lib/gcc/arm-none-eabi/11.2.0/../../../../arm-none-eabi/lib/thumb/v7+fp/hard/libc_nano.a(lib_a-putc.o)
 .text.putc     0x0000000000000000       0x10 /usr/lib/gcc/arm-none-eabi/11.2.0/../../../../arm-none-eabi/lib/thumb/v7+fp/hard/libc_nano.a(lib_a-putc.o)
 .text          0x0000000000000000        0x0 /usr/lib/gcc/arm-none-eabi/11.2.0/../../../../arm-none-eabi/lib/thumb/v7+fp/hard/libc_nano.a(lib_a-puts.o)
 .data          0x0000000000000000        0x0 /usr/lib/gcc/arm-none-eabi/11.2.0/../../../../arm-none-eabi/lib/thumb/v7+fp/hard/libc_nano.a(lib_a-puts.o)
 .bss           0x0000000000000000        0x0 /usr/lib/gcc/arm-none-eabi/11.2.0/../../../../arm-none-eabi/lib/thumb/v7+fp/hard/libc_nano.a(lib_a-puts.o)
 .text          0x0000000000000000        0x0 /usr/lib/gcc/arm-none-eabi/11.2.0/../../../../arm-none-eabi/lib/thumb/v7+fp/hard/libc_nano.a(lib_a-random.o)
 .data          0x0000000000000000        0x0 /usr/lib/gcc/arm-none-eabi/11.2.0/../../../../arm-none-eabi/lib/thumb/v7+fp/hard/libc_nano.a(lib_a-random.o)
 .bss           0x0000000000000000        0x0 /usr/lib/gcc/arm-none-eabi/11.2.0/../../../../arm-none-eabi/lib/thumb/v7+fp/hard/libc_nano.a(lib_a-random.o)
 .text.srandom  0x0000000000000000       0x5c /usr/lib/gcc/arm-none-eabi/11.2.0/../../../../arm-none-eabi/lib/thumb/v7+fp/hard/libc_nano.a(lib_a-random.o)
 .text          0x0000000000000000        0x0 /usr/lib/gcc/arm-none-eabi/11.2.0/../../../../arm-none-eabi/lib/thumb/v7+fp/hard/libc_nano.a(lib_a-reent.o)
 .data          0x0000000000000000        0x0 /usr/lib/gcc/arm-none-eabi/11.2.0/../../../../arm-none-eabi/lib/thumb/v7+fp/hard/libc_nano.a(lib_a-reent.o)
 .bss           0x0000000000000000        0x0 /usr/lib/gcc/arm-none-eabi/11.2.0/../../../../arm-none-eabi/lib/thumb/v7+fp/hard/libc_nano.a(lib_a-reent.o)
 .text.cleanup_glue
                0x0000000000000000       0x1a /usr/lib/gcc/arm-none-eabi/11.2.0/../../../../arm-none-eabi/lib/thumb/v7+fp/hard/libc_nano.a(lib_a-reent.o)
 .text._reclaim_reent
                0x0000000000000000       0xb8 /usr/lib/gcc/arm-none-eabi/11.2.0/../../../../arm-none-eabi/lib/thumb/v7+fp/hard/libc_nano.a(lib_a-reent.o)
 .text          0x0000000000000000        0x0 /usr/lib/gcc/arm-none-eabi/11.2.0/../../../../arm-none-eabi/lib/thumb/v7+fp/hard/libc_nano.a(lib_a-sbrkr.o)
 .data          0x0000000000000000        0x0 /usr/lib/gcc/arm-none-eabi/11.2.0/../../../../arm-none-eabi/lib/thumb/v7+fp/hard/libc_nano.a(lib_a-sbrkr.o)
 .bss           0x0000000000000000        0x0 /usr/lib/gcc/arm-none-eabi/11.2.0/../../../../arm-none-eabi/lib/thumb/v7+fp/hard/libc_nano.a(lib_a-sbrkr.o)
 .data          0x0000000000000000        0x0 /usr/lib/gcc/arm-none-eabi/11.2.0/../../../../arm-none-eabi/lib/thumb/v7+fp/hard/libc_nano.a(lib_a-setjmp.o)
 .bss           0x0000000000000000        0x0 /usr/lib/gcc/arm-none-eabi/11.2.0/../../../../arm-none-eabi/lib/thumb/v7+fp/hard/libc_nano.a(lib_a-setjmp.o)
 .text          0x0000000000000000        0x0 /usr/lib/gcc/arm-none-eabi/11.2.0/../../../../arm-none-eabi/lib/thumb/v7+fp/hard/libc_nano.a(lib_a-snprintf.o)
 .data          0x0000000000000000        0x0 /usr/lib/gcc/arm-none-eabi/11.2.0/../../../../arm-none-eabi/lib/thumb/v7+fp/hard/libc_nano.a(lib_a-snprintf.o)
 .bss           0x0000000000000000        0x0 /usr/lib/gcc/arm-none-eabi/11.2.0/../../../../arm-none-eabi/lib/thumb/v7+fp/hard/libc_nano.a(lib_a-snprintf.o)
 .text._snprintf_r
                0x0000000000000000       0x5e /usr/lib/gcc/arm-none-eabi/11.2.0/../../../../arm-none-eabi/lib/thumb/v7+fp/hard/libc_nano.a(lib_a-snprintf.o)
 .text          0x0000000000000000        0x0 /usr/lib/gcc/arm-none-eabi/11.2.0/../../../../arm-none-eabi/lib/thumb/v7+fp/hard/libc_nano.a(lib_a-sprintf.o)
 .data          0x0000000000000000        0x0 /usr/lib/gcc/arm-none-eabi/11.2.0/../../../../arm-none-eabi/lib/thumb/v7+fp/hard/libc_nano.a(lib_a-sprintf.o)
 .bss           0x0000000000000000        0x0 /usr/lib/gcc/arm-none-eabi/11.2.0/../../../../arm-none-eabi/lib/thumb/v7+fp/hard/libc_nano.a(lib_a-sprintf.o)
 .text._sprintf_r
                0x0000000000000000       0x38 /usr/lib/gcc/arm-none-eabi/11.2.0/../../../../arm-none-eabi/lib/thumb/v7+fp/hard/libc_nano.a(lib_a-sprintf.o)
 .text          0x0000000000000000        0x0 /usr/lib/gcc/arm-none-eabi/11.2.0/../../../../arm-none-eabi/lib/thumb/v7+fp/hard/libc_nano.a(lib_a-sscanf.o)
 .data          0x0000000000000000        0x0 /usr/lib/gcc/arm-none-eabi/11.2.0/../../../../arm-none-eabi/lib/thumb/v7+fp/hard/libc_nano.a(lib_a-sscanf.o)
 .bss           0x0000000000000000        0x0 /usr/lib/gcc/arm-none-eabi/11.2.0/../../../../arm-none-eabi/lib/thumb/v7+fp/hard/libc_nano.a(lib_a-sscanf.o)
 .text._sscanf_r
                0x0000000000000000       0x54 /usr/lib/gcc/arm-none-eabi/11.2.0/../../../../arm-none-eabi/lib/thumb/v7+fp/hard/libc_nano.a(lib_a-sscanf.o)
 .text          0x0000000000000000        0x0 /usr/lib/gcc/arm-none-eabi/11.2.0/../../../../arm-none-eabi/lib/thumb/v7+fp/hard/libc_nano.a(lib_a-stdio.o)
 .data          0x0000000000000000        0x0 /usr/lib/gcc/arm-none-eabi/11.2.0/../../../../arm-none-eabi/lib/thumb/v7+fp/hard/libc_nano.a(lib_a-stdio.o)
 .bss           0x0000000000000000        0x0 /usr/lib/gcc/arm-none-eabi/11.2.0/../../../../arm-none-eabi/lib/thumb/v7+fp/hard/libc_nano.a(lib_a-stdio.o)
 .text          0x0000000000000000        0x0 /usr/lib/gcc/arm-none-eabi/11.2.0/../../../../arm-none-eabi/lib/thumb/v7+fp/hard/libc_nano.a(lib_a-strcasecmp.o)
 .data          0x0000000000000000        0x0 /usr/lib/gcc/arm-none-eabi/11.2.0/../../../../arm-none-eabi/lib/thumb/v7+fp/hard/libc_nano.a(lib_a-strcasecmp.o)
 .bss           0x0000000000000000        0x0 /usr/lib/gcc/arm-none-eabi/11.2.0/../../../../arm-none-eabi/lib/thumb/v7+fp/hard/libc_nano.a(lib_a-strcasecmp.o)
 .text          0x0000000000000000        0x0 /usr/lib/gcc/arm-none-eabi/11.2.0/../../../../arm-none-eabi/lib/thumb/v7+fp/hard/libc_nano.a(lib_a-strchr.o)
 .data          0x0000000000000000        0x0 /usr/lib/gcc/arm-none-eabi/11.2.0/../../../../arm-none-eabi/lib/thumb/v7+fp/hard/libc_nano.a(lib_a-strchr.o)
 .bss           0x0000000000000000        0x0 /usr/lib/gcc/arm-none-eabi/11.2.0/../../../../arm-none-eabi/lib/thumb/v7+fp/hard/libc_nano.a(lib_a-strchr.o)
 .text          0x0000000000000000       0x14 /usr/lib/gcc/arm-none-eabi/11.2.0/../../../../arm-none-eabi/lib/thumb/v7+fp/hard/libc_nano.a(lib_a-strcmp.o)
 .data          0x0000000000000000        0x0 /usr/lib/gcc/arm-none-eabi/11.2.0/../../../../arm-none-eabi/lib/thumb/v7+fp/hard/libc_nano.a(lib_a-strcmp.o)
 .bss           0x0000000000000000        0x0 /usr/lib/gcc/arm-none-eabi/11.2.0/../../../../arm-none-eabi/lib/thumb/v7+fp/hard/libc_nano.a(lib_a-strcmp.o)
 .debug_frame   0x0000000000000000       0x20 /usr/lib/gcc/arm-none-eabi/11.2.0/../../../../arm-none-eabi/lib/thumb/v7+fp/hard/libc_nano.a(lib_a-strcmp.o)
 .text          0x0000000000000000        0x0 /usr/lib/gcc/arm-none-eabi/11.2.0/../../../../arm-none-eabi/lib/thumb/v7+fp/hard/libc_nano.a(lib_a-strcpy.o)
 .data          0x0000000000000000        0x0 /usr/lib/gcc/arm-none-eabi/11.2.0/../../../../arm-none-eabi/lib/thumb/v7+fp/hard/libc_nano.a(lib_a-strcpy.o)
 .bss           0x0000000000000000        0x0 /usr/lib/gcc/arm-none-eabi/11.2.0/../../../../arm-none-eabi/lib/thumb/v7+fp/hard/libc_nano.a(lib_a-strcpy.o)
 .data          0x0000000000000000        0x0 /usr/lib/gcc/arm-none-eabi/11.2.0/../../../../arm-none-eabi/lib/thumb/v7+fp/hard/libc_nano.a(lib_a-strlen.o)
 .bss           0x0000000000000000        0x0 /usr/lib/gcc/arm-none-eabi/11.2.0/../../../../arm-none-eabi/lib/thumb/v7+fp/hard/libc_nano.a(lib_a-strlen.o)
 .text          0x0000000000000000        0x0 /usr/lib/gcc/arm-none-eabi/11.2.0/../../../../arm-none-eabi/lib/thumb/v7+fp/hard/libc_nano.a(lib_a-strncasecmp.o)
 .data          0x0000000000000000        0x0 /usr/lib/gcc/arm-none-eabi/11.2.0/../../../../arm-none-eabi/lib/thumb/v7+fp/hard/libc_nano.a(lib_a-strncasecmp.o)
 .bss           0x0000000000000000        0x0 /usr/lib/gcc/arm-none-eabi/11.2.0/../../../../arm-none-eabi/lib/thumb/v7+fp/hard/libc_nano.a(lib_a-strncasecmp.o)
 .text          0x0000000000000000        0x0 /usr/lib/gcc/arm-none-eabi/11.2.0/../../../../arm-none-eabi/lib/thumb/v7+fp/hard/libc_nano.a(lib_a-strncmp.o)
 .data          0x0000000000000000        0x0 /usr/lib/gcc/arm-none-eabi/11.2.0/../../../../arm-none-eabi/lib/thumb/v7+fp/hard/libc_nano.a(lib_a-strncmp.o)
 .bss           0x0000000000000000        0x0 /usr/lib/gcc/arm-none-eabi/11.2.0/../../../../arm-none-eabi/lib/thumb/v7+fp/hard/libc_nano.a(lib_a-strncmp.o)
 .text          0x0000000000000000        0x0 /usr/lib/gcc/arm-none-eabi/11.2.0/../../../../arm-none-eabi/lib/thumb/v7+fp/hard/libc_nano.a(lib_a-strncpy.o)
 .data          0x0000000000000000        0x0 /usr/lib/gcc/arm-none-eabi/11.2.0/../../../../arm-none-eabi/lib/thumb/v7+fp/hard/libc_nano.a(lib_a-strncpy.o)
 .bss           0x0000000000000000        0x0 /usr/lib/gcc/arm-none-eabi/11.2.0/../../../../arm-none-eabi/lib/thumb/v7+fp/hard/libc_nano.a(lib_a-strncpy.o)
 .text          0x0000000000000000        0x0 /usr/lib/gcc/arm-none-eabi/11.2.0/../../../../arm-none-eabi/lib/thumb/v7+fp/hard/libc_nano.a(lib_a-strtol.o)
 .data          0x0000000000000000        0x0 /usr/lib/gcc/arm-none-eabi/11.2.0/../../../../arm-none-eabi/lib/thumb/v7+fp/hard/libc_nano.a(lib_a-strtol.o)
 .bss           0x0000000000000000        0x0 /usr/lib/gcc/arm-none-eabi/11.2.0/../../../../arm-none-eabi/lib/thumb/v7+fp/hard/libc_nano.a(lib_a-strtol.o)
 .text.strtol_l
                0x0000000000000000       0x14 /usr/lib/gcc/arm-none-eabi/11.2.0/../../../../arm-none-eabi/lib/thumb/v7+fp/hard/libc_nano.a(lib_a-strtol.o)
 .text          0x0000000000000000        0x0 /usr/lib/gcc/arm-none-eabi/11.2.0/../../../../arm-none-eabi/lib/thumb/v7+fp/hard/libc_nano.a(lib_a-vprintf.o)
 .data          0x0000000000000000        0x0 /usr/lib/gcc/arm-none-eabi/11.2.0/../../../../arm-none-eabi/lib/thumb/v7+fp/hard/libc_nano.a(lib_a-vprintf.o)
 .bss           0x0000000000000000        0x0 /usr/lib/gcc/arm-none-eabi/11.2.0/../../../../arm-none-eabi/lib/thumb/v7+fp/hard/libc_nano.a(lib_a-vprintf.o)
 .text._vprintf_r
                0x0000000000000000       0x26 /usr/lib/gcc/arm-none-eabi/11.2.0/../../../../arm-none-eabi/lib/thumb/v7+fp/hard/libc_nano.a(lib_a-vprintf.o)
 .text          0x0000000000000000        0x0 /usr/lib/gcc/arm-none-eabi/11.2.0/../../../../arm-none-eabi/lib/thumb/v7+fp/hard/libc_nano.a(lib_a-vsnprintf.o)
 .data          0x0000000000000000        0x0 /usr/lib/gcc/arm-none-eabi/11.2.0/../../../../arm-none-eabi/lib/thumb/v7+fp/hard/libc_nano.a(lib_a-vsnprintf.o)
 .bss           0x0000000000000000        0x0 /usr/lib/gcc/arm-none-eabi/11.2.0/../../../../arm-none-eabi/lib/thumb/v7+fp/hard/libc_nano.a(lib_a-vsnprintf.o)
 .text          0x0000000000000000        0x0 /usr/lib/gcc/arm-none-eabi/11.2.0/../../../../arm-none-eabi/lib/thumb/v7+fp/hard/libc_nano.a(lib_a-wbuf.o)
 .data          0x0000000000000000        0x0 /usr/lib/gcc/arm-none-eabi/11.2.0/../../../../arm-none-eabi/lib/thumb/v7+fp/hard/libc_nano.a(lib_a-wbuf.o)
 .bss           0x0000000000000000        0x0 /usr/lib/gcc/arm-none-eabi/11.2.0/../../../../arm-none-eabi/lib/thumb/v7+fp/hard/libc_nano.a(lib_a-wbuf.o)
 .text.__swbuf  0x0000000000000000       0x10 /usr/lib/gcc/arm-none-eabi/11.2.0/../../../../arm-none-eabi/lib/thumb/v7+fp/hard/libc_nano.a(lib_a-wbuf.o)
 .text          0x0000000000000000        0x0 /usr/lib/gcc/arm-none-eabi/11.2.0/../../../../arm-none-eabi/lib/thumb/v7+fp/hard/libc_nano.a(lib_a-writer.o)
 .data          0x0000000000000000        0x0 /usr/lib/gcc/arm-none-eabi/11.2.0/../../../../arm-none-eabi/lib/thumb/v7+fp/hard/libc_nano.a(lib_a-writer.o)
 .bss           0x0000000000000000        0x0 /usr/lib/gcc/arm-none-eabi/11.2.0/../../../../arm-none-eabi/lib/thumb/v7+fp/hard/libc_nano.a(lib_a-writer.o)
 .text          0x0000000000000000        0x0 /usr/lib/gcc/arm-none-eabi/11.2.0/../../../../arm-none-eabi/lib/thumb/v7+fp/hard/libc_nano.a(lib_a-wsetup.o)
 .data          0x0000000000000000        0x0 /usr/lib/gcc/arm-none-eabi/11.2.0/../../../../arm-none-eabi/lib/thumb/v7+fp/hard/libc_nano.a(lib_a-wsetup.o)
 .bss           0x0000000000000000        0x0 /usr/lib/gcc/arm-none-eabi/11.2.0/../../../../arm-none-eabi/lib/thumb/v7+fp/hard/libc_nano.a(lib_a-wsetup.o)
 .text          0x0000000000000000        0x0 /usr/lib/gcc/arm-none-eabi/11.2.0/../../../../arm-none-eabi/lib/thumb/v7+fp/hard/libc_nano.a(lib_a-assert.o)
 .data          0x0000000000000000        0x0 /usr/lib/gcc/arm-none-eabi/11.2.0/../../../../arm-none-eabi/lib/thumb/v7+fp/hard/libc_nano.a(lib_a-assert.o)
 .bss           0x0000000000000000        0x0 /usr/lib/gcc/arm-none-eabi/11.2.0/../../../../arm-none-eabi/lib/thumb/v7+fp/hard/libc_nano.a(lib_a-assert.o)
 .text.__assert
                0x0000000000000000        0xa /usr/lib/gcc/arm-none-eabi/11.2.0/../../../../arm-none-eabi/lib/thumb/v7+fp/hard/libc_nano.a(lib_a-assert.o)
 .text          0x0000000000000000        0x0 /usr/lib/gcc/arm-none-eabi/11.2.0/../../../../arm-none-eabi/lib/thumb/v7+fp/hard/libc_nano.a(lib_a-closer.o)
 .data          0x0000000000000000        0x0 /usr/lib/gcc/arm-none-eabi/11.2.0/../../../../arm-none-eabi/lib/thumb/v7+fp/hard/libc_nano.a(lib_a-closer.o)
 .bss           0x0000000000000000        0x0 /usr/lib/gcc/arm-none-eabi/11.2.0/../../../../arm-none-eabi/lib/thumb/v7+fp/hard/libc_nano.a(lib_a-closer.o)
 .text          0x0000000000000000        0x0 /usr/lib/gcc/arm-none-eabi/11.2.0/../../../../arm-none-eabi/lib/thumb/v7+fp/hard/libc_nano.a(lib_a-dtoa.o)
 .data          0x0000000000000000        0x0 /usr/lib/gcc/arm-none-eabi/11.2.0/../../../../arm-none-eabi/lib/thumb/v7+fp/hard/libc_nano.a(lib_a-dtoa.o)
 .bss           0x0000000000000000        0x0 /usr/lib/gcc/arm-none-eabi/11.2.0/../../../../arm-none-eabi/lib/thumb/v7+fp/hard/libc_nano.a(lib_a-dtoa.o)
 .text          0x0000000000000000        0x0 /usr/lib/gcc/arm-none-eabi/11.2.0/../../../../arm-none-eabi/lib/thumb/v7+fp/hard/libc_nano.a(lib_a-fprintf.o)
 .data          0x0000000000000000        0x0 /usr/lib/gcc/arm-none-eabi/11.2.0/../../../../arm-none-eabi/lib/thumb/v7+fp/hard/libc_nano.a(lib_a-fprintf.o)
 .bss           0x0000000000000000        0x0 /usr/lib/gcc/arm-none-eabi/11.2.0/../../../../arm-none-eabi/lib/thumb/v7+fp/hard/libc_nano.a(lib_a-fprintf.o)
 .text._fprintf_r
                0x0000000000000000       0x1a /usr/lib/gcc/arm-none-eabi/11.2.0/../../../../arm-none-eabi/lib/thumb/v7+fp/hard/libc_nano.a(lib_a-fprintf.o)
 .text          0x0000000000000000        0x0 /usr/lib/gcc/arm-none-eabi/11.2.0/../../../../arm-none-eabi/lib/thumb/v7+fp/hard/libc_nano.a(lib_a-localeconv.o)
 .data          0x0000000000000000        0x0 /usr/lib/gcc/arm-none-eabi/11.2.0/../../../../arm-none-eabi/lib/thumb/v7+fp/hard/libc_nano.a(lib_a-localeconv.o)
 .bss           0x0000000000000000        0x0 /usr/lib/gcc/arm-none-eabi/11.2.0/../../../../arm-none-eabi/lib/thumb/v7+fp/hard/libc_nano.a(lib_a-localeconv.o)
 .text.__localeconv_l
                0x0000000000000000        0x4 /usr/lib/gcc/arm-none-eabi/11.2.0/../../../../arm-none-eabi/lib/thumb/v7+fp/hard/libc_nano.a(lib_a-localeconv.o)
 .text.localeconv
                0x0000000000000000        0x8 /usr/lib/gcc/arm-none-eabi/11.2.0/../../../../arm-none-eabi/lib/thumb/v7+fp/hard/libc_nano.a(lib_a-localeconv.o)
 .text          0x0000000000000000        0x0 /usr/lib/gcc/arm-none-eabi/11.2.0/../../../../arm-none-eabi/lib/thumb/v7+fp/hard/libc_nano.a(lib_a-locale.o)
 .data          0x0000000000000000        0x0 /usr/lib/gcc/arm-none-eabi/11.2.0/../../../../arm-none-eabi/lib/thumb/v7+fp/hard/libc_nano.a(lib_a-locale.o)
 .bss           0x0000000000000000        0x0 /usr/lib/gcc/arm-none-eabi/11.2.0/../../../../arm-none-eabi/lib/thumb/v7+fp/hard/libc_nano.a(lib_a-locale.o)
 .text._setlocale_r
                0x0000000000000000       0x40 /usr/lib/gcc/arm-none-eabi/11.2.0/../../../../arm-none-eabi/lib/thumb/v7+fp/hard/libc_nano.a(lib_a-locale.o)
 .text.__locale_mb_cur_max
                0x0000000000000000        0xc /usr/lib/gcc/arm-none-eabi/11.2.0/../../../../arm-none-eabi/lib/thumb/v7+fp/hard/libc_nano.a(lib_a-locale.o)
 .text.setlocale
                0x0000000000000000       0x10 /usr/lib/gcc/arm-none-eabi/11.2.0/../../../../arm-none-eabi/lib/thumb/v7+fp/hard/libc_nano.a(lib_a-locale.o)
 .bss._PathLocale
                0x0000000000000000        0x4 /usr/lib/gcc/arm-none-eabi/11.2.0/../../../../arm-none-eabi/lib/thumb/v7+fp/hard/libc_nano.a(lib_a-locale.o)
 .text          0x0000000000000000        0x0 /usr/lib/gcc/arm-none-eabi/11.2.0/../../../../arm-none-eabi/lib/thumb/v7+fp/hard/libc_nano.a(lib_a-lseekr.o)
 .data          0x0000000000000000        0x0 /usr/lib/gcc/arm-none-eabi/11.2.0/../../../../arm-none-eabi/lib/thumb/v7+fp/hard/libc_nano.a(lib_a-lseekr.o)
 .bss           0x0000000000000000        0x0 /usr/lib/gcc/arm-none-eabi/11.2.0/../../../../arm-none-eabi/lib/thumb/v7+fp/hard/libc_nano.a(lib_a-lseekr.o)
 .text          0x0000000000000000        0x0 /usr/lib/gcc/arm-none-eabi/11.2.0/../../../../arm-none-eabi/lib/thumb/v7+fp/hard/libc_nano.a(lib_a-makebuf.o)
 .data          0x0000000000000000        0x0 /usr/lib/gcc/arm-none-eabi/11.2.0/../../../../arm-none-eabi/lib/thumb/v7+fp/hard/libc_nano.a(lib_a-makebuf.o)
 .bss           0x0000000000000000        0x0 /usr/lib/gcc/arm-none-eabi/11.2.0/../../../../arm-none-eabi/lib/thumb/v7+fp/hard/libc_nano.a(lib_a-makebuf.o)
 .text          0x0000000000000000        0x0 /usr/lib/gcc/arm-none-eabi/11.2.0/../../../../arm-none-eabi/lib/thumb/v7+fp/hard/libc_nano.a(lib_a-mbtowc_r.o)
 .data          0x0000000000000000        0x0 /usr/lib/gcc/arm-none-eabi/11.2.0/../../../../arm-none-eabi/lib/thumb/v7+fp/hard/libc_nano.a(lib_a-mbtowc_r.o)
 .bss           0x0000000000000000        0x0 /usr/lib/gcc/arm-none-eabi/11.2.0/../../../../arm-none-eabi/lib/thumb/v7+fp/hard/libc_nano.a(lib_a-mbtowc_r.o)
 .text._mbtowc_r
                0x0000000000000000       0x14 /usr/lib/gcc/arm-none-eabi/11.2.0/../../../../arm-none-eabi/lib/thumb/v7+fp/hard/libc_nano.a(lib_a-mbtowc_r.o)
 .text          0x0000000000000000        0x0 /usr/lib/gcc/arm-none-eabi/11.2.0/../../../../arm-none-eabi/lib/thumb/v7+fp/hard/libc_nano.a(lib_a-memchr-stub.o)
 .data          0x0000000000000000        0x0 /usr/lib/gcc/arm-none-eabi/11.2.0/../../../../arm-none-eabi/lib/thumb/v7+fp/hard/libc_nano.a(lib_a-memchr-stub.o)
 .bss           0x0000000000000000        0x0 /usr/lib/gcc/arm-none-eabi/11.2.0/../../../../arm-none-eabi/lib/thumb/v7+fp/hard/libc_nano.a(lib_a-memchr-stub.o)
 .text          0x0000000000000000        0x0 /usr/lib/gcc/arm-none-eabi/11.2.0/../../../../arm-none-eabi/lib/thumb/v7+fp/hard/libc_nano.a(lib_a-mlock.o)
 .data          0x0000000000000000        0x0 /usr/lib/gcc/arm-none-eabi/11.2.0/../../../../arm-none-eabi/lib/thumb/v7+fp/hard/libc_nano.a(lib_a-mlock.o)
 .bss           0x0000000000000000        0x0 /usr/lib/gcc/arm-none-eabi/11.2.0/../../../../arm-none-eabi/lib/thumb/v7+fp/hard/libc_nano.a(lib_a-mlock.o)
 .text          0x0000000000000000        0x0 /usr/lib/gcc/arm-none-eabi/11.2.0/../../../../arm-none-eabi/lib/thumb/v7+fp/hard/libc_nano.a(lib_a-mprec.o)
 .data          0x0000000000000000        0x0 /usr/lib/gcc/arm-none-eabi/11.2.0/../../../../arm-none-eabi/lib/thumb/v7+fp/hard/libc_nano.a(lib_a-mprec.o)
 .bss           0x0000000000000000        0x0 /usr/lib/gcc/arm-none-eabi/11.2.0/../../../../arm-none-eabi/lib/thumb/v7+fp/hard/libc_nano.a(lib_a-mprec.o)
 .text.__s2b    0x0000000000000000       0x9c /usr/lib/gcc/arm-none-eabi/11.2.0/../../../../arm-none-eabi/lib/thumb/v7+fp/hard/libc_nano.a(lib_a-mprec.o)
 .text.__ulp    0x0000000000000000       0x54 /usr/lib/gcc/arm-none-eabi/11.2.0/../../../../arm-none-eabi/lib/thumb/v7+fp/hard/libc_nano.a(lib_a-mprec.o)
 .text.__b2d    0x0000000000000000       0xa0 /usr/lib/gcc/arm-none-eabi/11.2.0/../../../../arm-none-eabi/lib/thumb/v7+fp/hard/libc_nano.a(lib_a-mprec.o)
 .text.__ratio  0x0000000000000000       0x62 /usr/lib/gcc/arm-none-eabi/11.2.0/../../../../arm-none-eabi/lib/thumb/v7+fp/hard/libc_nano.a(lib_a-mprec.o)
 .text._mprec_log10
                0x0000000000000000       0x28 /usr/lib/gcc/arm-none-eabi/11.2.0/../../../../arm-none-eabi/lib/thumb/v7+fp/hard/libc_nano.a(lib_a-mprec.o)
 .text.__copybits
                0x0000000000000000       0x46 /usr/lib/gcc/arm-none-eabi/11.2.0/../../../../arm-none-eabi/lib/thumb/v7+fp/hard/libc_nano.a(lib_a-mprec.o)
 .text.__any_on
                0x0000000000000000       0x42 /usr/lib/gcc/arm-none-eabi/11.2.0/../../../../arm-none-eabi/lib/thumb/v7+fp/hard/libc_nano.a(lib_a-mprec.o)
 .rodata.__mprec_tinytens
                0x0000000000000000       0x28 /usr/lib/gcc/arm-none-eabi/11.2.0/../../../../arm-none-eabi/lib/thumb/v7+fp/hard/libc_nano.a(lib_a-mprec.o)
 .text          0x0000000000000000        0x0 /usr/lib/gcc/arm-none-eabi/11.2.0/../../../../arm-none-eabi/lib/thumb/v7+fp/hard/libc_nano.a(lib_a-nano-svfprintf.o)
 .data          0x0000000000000000        0x0 /usr/lib/gcc/arm-none-eabi/11.2.0/../../../../arm-none-eabi/lib/thumb/v7+fp/hard/libc_nano.a(lib_a-nano-svfprintf.o)
 .bss           0x0000000000000000        0x0 /usr/lib/gcc/arm-none-eabi/11.2.0/../../../../arm-none-eabi/lib/thumb/v7+fp/hard/libc_nano.a(lib_a-nano-svfprintf.o)
 .text.__ssprint_r
                0x0000000000000000       0xf6 /usr/lib/gcc/arm-none-eabi/11.2.0/../../../../arm-none-eabi/lib/thumb/v7+fp/hard/libc_nano.a(lib_a-nano-svfprintf.o)
 .text          0x0000000000000000        0x0 /usr/lib/gcc/arm-none-eabi/11.2.0/../../../../arm-none-eabi/lib/thumb/v7+fp/hard/libc_nano.a(lib_a-nano-svfscanf.o)
 .data          0x0000000000000000        0x0 /usr/lib/gcc/arm-none-eabi/11.2.0/../../../../arm-none-eabi/lib/thumb/v7+fp/hard/libc_nano.a(lib_a-nano-svfscanf.o)
 .bss           0x0000000000000000        0x0 /usr/lib/gcc/arm-none-eabi/11.2.0/../../../../arm-none-eabi/lib/thumb/v7+fp/hard/libc_nano.a(lib_a-nano-svfscanf.o)
 .text          0x0000000000000000        0x0 /usr/lib/gcc/arm-none-eabi/11.2.0/../../../../arm-none-eabi/lib/thumb/v7+fp/hard/libc_nano.a(lib_a-nano-vfprintf.o)
 .data          0x0000000000000000        0x0 /usr/lib/gcc/arm-none-eabi/11.2.0/../../../../arm-none-eabi/lib/thumb/v7+fp/hard/libc_nano.a(lib_a-nano-vfprintf.o)
 .bss           0x0000000000000000        0x0 /usr/lib/gcc/arm-none-eabi/11.2.0/../../../../arm-none-eabi/lib/thumb/v7+fp/hard/libc_nano.a(lib_a-nano-vfprintf.o)
 .text.__sprint_r
                0x0000000000000000       0x1a /usr/lib/gcc/arm-none-eabi/11.2.0/../../../../arm-none-eabi/lib/thumb/v7+fp/hard/libc_nano.a(lib_a-nano-vfprintf.o)
 .text.vfprintf
                0x0000000000000000       0x14 /usr/lib/gcc/arm-none-eabi/11.2.0/../../../../arm-none-eabi/lib/thumb/v7+fp/hard/libc_nano.a(lib_a-nano-vfprintf.o)
 .text          0x0000000000000000        0x0 /usr/lib/gcc/arm-none-eabi/11.2.0/../../../../arm-none-eabi/lib/thumb/v7+fp/hard/libc_nano.a(lib_a-nano-vfscanf_i.o)
 .data          0x0000000000000000        0x0 /usr/lib/gcc/arm-none-eabi/11.2.0/../../../../arm-none-eabi/lib/thumb/v7+fp/hard/libc_nano.a(lib_a-nano-vfscanf_i.o)
 .bss           0x0000000000000000        0x0 /usr/lib/gcc/arm-none-eabi/11.2.0/../../../../arm-none-eabi/lib/thumb/v7+fp/hard/libc_nano.a(lib_a-nano-vfscanf_i.o)
 .text          0x0000000000000000        0x0 /usr/lib/gcc/arm-none-eabi/11.2.0/../../../../arm-none-eabi/lib/thumb/v7+fp/hard/libc_nano.a(lib_a-readr.o)
 .data          0x0000000000000000        0x0 /usr/lib/gcc/arm-none-eabi/11.2.0/../../../../arm-none-eabi/lib/thumb/v7+fp/hard/libc_nano.a(lib_a-readr.o)
 .bss           0x0000000000000000        0x0 /usr/lib/gcc/arm-none-eabi/11.2.0/../../../../arm-none-eabi/lib/thumb/v7+fp/hard/libc_nano.a(lib_a-readr.o)
 .text          0x0000000000000000        0x0 /usr/lib/gcc/arm-none-eabi/11.2.0/../../../../arm-none-eabi/lib/thumb/v7+fp/hard/libc_nano.a(lib_a-sccl.o)
 .data          0x0000000000000000        0x0 /usr/lib/gcc/arm-none-eabi/11.2.0/../../../../arm-none-eabi/lib/thumb/v7+fp/hard/libc_nano.a(lib_a-sccl.o)
 .bss           0x0000000000000000        0x0 /usr/lib/gcc/arm-none-eabi/11.2.0/../../../../arm-none-eabi/lib/thumb/v7+fp/hard/libc_nano.a(lib_a-sccl.o)
 .text          0x0000000000000000        0x0 /usr/lib/gcc/arm-none-eabi/11.2.0/../../../../arm-none-eabi/lib/thumb/v7+fp/hard/libc_nano.a(lib_a-strtoul.o)
 .data          0x0000000000000000        0x0 /usr/lib/gcc/arm-none-eabi/11.2.0/../../../../arm-none-eabi/lib/thumb/v7+fp/hard/libc_nano.a(lib_a-strtoul.o)
 .bss           0x0000000000000000        0x0 /usr/lib/gcc/arm-none-eabi/11.2.0/../../../../arm-none-eabi/lib/thumb/v7+fp/hard/libc_nano.a(lib_a-strtoul.o)
 .text.strtoul_l
                0x0000000000000000       0x14 /usr/lib/gcc/arm-none-eabi/11.2.0/../../../../arm-none-eabi/lib/thumb/v7+fp/hard/libc_nano.a(lib_a-strtoul.o)
 .text.strtoul  0x0000000000000000       0x14 /usr/lib/gcc/arm-none-eabi/11.2.0/../../../../arm-none-eabi/lib/thumb/v7+fp/hard/libc_nano.a(lib_a-strtoul.o)
 .text          0x0000000000000000        0x0 /usr/lib/gcc/arm-none-eabi/11.2.0/../../../../arm-none-eabi/lib/thumb/v7+fp/hard/libc_nano.a(lib_a-ungetc.o)
 .data          0x0000000000000000        0x0 /usr/lib/gcc/arm-none-eabi/11.2.0/../../../../arm-none-eabi/lib/thumb/v7+fp/hard/libc_nano.a(lib_a-ungetc.o)
 .bss           0x0000000000000000        0x0 /usr/lib/gcc/arm-none-eabi/11.2.0/../../../../arm-none-eabi/lib/thumb/v7+fp/hard/libc_nano.a(lib_a-ungetc.o)
 .text._ungetc_r
                0x0000000000000000      0x130 /usr/lib/gcc/arm-none-eabi/11.2.0/../../../../arm-none-eabi/lib/thumb/v7+fp/hard/libc_nano.a(lib_a-ungetc.o)
 .text.ungetc   0x0000000000000000       0x10 /usr/lib/gcc/arm-none-eabi/11.2.0/../../../../arm-none-eabi/lib/thumb/v7+fp/hard/libc_nano.a(lib_a-ungetc.o)
 .text          0x0000000000000000        0x0 /usr/lib/gcc/arm-none-eabi/11.2.0/../../../../arm-none-eabi/lib/thumb/v7+fp/hard/libc_nano.a(lib_a-wctomb_r.o)
 .data          0x0000000000000000        0x0 /usr/lib/gcc/arm-none-eabi/11.2.0/../../../../arm-none-eabi/lib/thumb/v7+fp/hard/libc_nano.a(lib_a-wctomb_r.o)
 .bss           0x0000000000000000        0x0 /usr/lib/gcc/arm-none-eabi/11.2.0/../../../../arm-none-eabi/lib/thumb/v7+fp/hard/libc_nano.a(lib_a-wctomb_r.o)
 .text._wctomb_r
                0x0000000000000000       0x14 /usr/lib/gcc/arm-none-eabi/11.2.0/../../../../arm-none-eabi/lib/thumb/v7+fp/hard/libc_nano.a(lib_a-wctomb_r.o)
 .text          0x0000000000000000        0x0 /usr/lib/gcc/arm-none-eabi/11.2.0/../../../../arm-none-eabi/lib/thumb/v7+fp/hard/libc_nano.a(lib_a-abort.o)
 .data          0x0000000000000000        0x0 /usr/lib/gcc/arm-none-eabi/11.2.0/../../../../arm-none-eabi/lib/thumb/v7+fp/hard/libc_nano.a(lib_a-abort.o)
 .bss           0x0000000000000000        0x0 /usr/lib/gcc/arm-none-eabi/11.2.0/../../../../arm-none-eabi/lib/thumb/v7+fp/hard/libc_nano.a(lib_a-abort.o)
 .text          0x0000000000000000        0x0 /usr/lib/gcc/arm-none-eabi/11.2.0/../../../../arm-none-eabi/lib/thumb/v7+fp/hard/libc_nano.a(lib_a-fstatr.o)
 .data          0x0000000000000000        0x0 /usr/lib/gcc/arm-none-eabi/11.2.0/../../../../arm-none-eabi/lib/thumb/v7+fp/hard/libc_nano.a(lib_a-fstatr.o)
 .bss           0x0000000000000000        0x0 /usr/lib/gcc/arm-none-eabi/11.2.0/../../../../arm-none-eabi/lib/thumb/v7+fp/hard/libc_nano.a(lib_a-fstatr.o)
 .text          0x0000000000000000        0x0 /usr/lib/gcc/arm-none-eabi/11.2.0/../../../../arm-none-eabi/lib/thumb/v7+fp/hard/libc_nano.a(lib_a-fvwrite.o)
 .data          0x0000000000000000        0x0 /usr/lib/gcc/arm-none-eabi/11.2.0/../../../../arm-none-eabi/lib/thumb/v7+fp/hard/libc_nano.a(lib_a-fvwrite.o)
 .bss           0x0000000000000000        0x0 /usr/lib/gcc/arm-none-eabi/11.2.0/../../../../arm-none-eabi/lib/thumb/v7+fp/hard/libc_nano.a(lib_a-fvwrite.o)
 .text.__sfvwrite_r
                0x0000000000000000      0x298 /usr/lib/gcc/arm-none-eabi/11.2.0/../../../../arm-none-eabi/lib/thumb/v7+fp/hard/libc_nano.a(lib_a-fvwrite.o)
 .debug_frame   0x0000000000000000       0x3c /usr/lib/gcc/arm-none-eabi/11.2.0/../../../../arm-none-eabi/lib/thumb/v7+fp/hard/libc_nano.a(lib_a-fvwrite.o)
 .text          0x0000000000000000        0x0 /usr/lib/gcc/arm-none-eabi/11.2.0/../../../../arm-none-eabi/lib/thumb/v7+fp/hard/libc_nano.a(lib_a-isattyr.o)
 .data          0x0000000000000000        0x0 /usr/lib/gcc/arm-none-eabi/11.2.0/../../../../arm-none-eabi/lib/thumb/v7+fp/hard/libc_nano.a(lib_a-isattyr.o)
 .bss           0x0000000000000000        0x0 /usr/lib/gcc/arm-none-eabi/11.2.0/../../../../arm-none-eabi/lib/thumb/v7+fp/hard/libc_nano.a(lib_a-isattyr.o)
 .text          0x0000000000000000        0x0 /usr/lib/gcc/arm-none-eabi/11.2.0/../../../../arm-none-eabi/lib/thumb/v7+fp/hard/libc_nano.a(lib_a-nano-reallocr.o)
 .data          0x0000000000000000        0x0 /usr/lib/gcc/arm-none-eabi/11.2.0/../../../../arm-none-eabi/lib/thumb/v7+fp/hard/libc_nano.a(lib_a-nano-reallocr.o)
 .bss           0x0000000000000000        0x0 /usr/lib/gcc/arm-none-eabi/11.2.0/../../../../arm-none-eabi/lib/thumb/v7+fp/hard/libc_nano.a(lib_a-nano-reallocr.o)
 .text          0x0000000000000000        0x0 /usr/lib/gcc/arm-none-eabi/11.2.0/../../../../arm-none-eabi/lib/thumb/v7+fp/hard/libc_nano.a(lib_a-signal.o)
 .data          0x0000000000000000        0x0 /usr/lib/gcc/arm-none-eabi/11.2.0/../../../../arm-none-eabi/lib/thumb/v7+fp/hard/libc_nano.a(lib_a-signal.o)
 .bss           0x0000000000000000        0x0 /usr/lib/gcc/arm-none-eabi/11.2.0/../../../../arm-none-eabi/lib/thumb/v7+fp/hard/libc_nano.a(lib_a-signal.o)
 .text._init_signal_r
                0x0000000000000000       0x28 /usr/lib/gcc/arm-none-eabi/11.2.0/../../../../arm-none-eabi/lib/thumb/v7+fp/hard/libc_nano.a(lib_a-signal.o)
 .text._signal_r
                0x0000000000000000       0x30 /usr/lib/gcc/arm-none-eabi/11.2.0/../../../../arm-none-eabi/lib/thumb/v7+fp/hard/libc_nano.a(lib_a-signal.o)
 .text.__sigtramp_r
                0x0000000000000000       0x48 /usr/lib/gcc/arm-none-eabi/11.2.0/../../../../arm-none-eabi/lib/thumb/v7+fp/hard/libc_nano.a(lib_a-signal.o)
 .text.signal   0x0000000000000000       0x10 /usr/lib/gcc/arm-none-eabi/11.2.0/../../../../arm-none-eabi/lib/thumb/v7+fp/hard/libc_nano.a(lib_a-signal.o)
 .text._init_signal
                0x0000000000000000        0xc /usr/lib/gcc/arm-none-eabi/11.2.0/../../../../arm-none-eabi/lib/thumb/v7+fp/hard/libc_nano.a(lib_a-signal.o)
 .text.__sigtramp
                0x0000000000000000       0x10 /usr/lib/gcc/arm-none-eabi/11.2.0/../../../../arm-none-eabi/lib/thumb/v7+fp/hard/libc_nano.a(lib_a-signal.o)
 .text          0x0000000000000000        0x0 /usr/lib/gcc/arm-none-eabi/11.2.0/../../../../arm-none-eabi/lib/thumb/v7+fp/hard/libc_nano.a(lib_a-signalr.o)
 .data          0x0000000000000000        0x0 /usr/lib/gcc/arm-none-eabi/11.2.0/../../../../arm-none-eabi/lib/thumb/v7+fp/hard/libc_nano.a(lib_a-signalr.o)
 .bss           0x0000000000000000        0x0 /usr/lib/gcc/arm-none-eabi/11.2.0/../../../../arm-none-eabi/lib/thumb/v7+fp/hard/libc_nano.a(lib_a-signalr.o)
 .text          0x0000000000000000        0x0 /usr/lib/gcc/arm-none-eabi/11.2.0/../../../../arm-none-eabi/lib/thumb/v7+fp/hard/libc_nano.a(lib_a-nano-msizer.o)
 .data          0x0000000000000000        0x0 /usr/lib/gcc/arm-none-eabi/11.2.0/../../../../arm-none-eabi/lib/thumb/v7+fp/hard/libc_nano.a(lib_a-nano-msizer.o)
 .bss           0x0000000000000000        0x0 /usr/lib/gcc/arm-none-eabi/11.2.0/../../../../arm-none-eabi/lib/thumb/v7+fp/hard/libc_nano.a(lib_a-nano-msizer.o)
 .data          0x0000000000000000        0x0 /usr/lib/gcc/arm-none-eabi/11.2.0/thumb/v7+fp/hard/libgcc.a(_udivsi3.o)
 .bss           0x0000000000000000        0x0 /usr/lib/gcc/arm-none-eabi/11.2.0/thumb/v7+fp/hard/libgcc.a(_udivsi3.o)
 .data          0x0000000000000000        0x0 /usr/lib/gcc/arm-none-eabi/11.2.0/thumb/v7+fp/hard/libgcc.a(_divsi3.o)
 .bss           0x0000000000000000        0x0 /usr/lib/gcc/arm-none-eabi/11.2.0/thumb/v7+fp/hard/libgcc.a(_divsi3.o)
 .text          0x0000000000000000        0x0 /usr/lib/gcc/arm-none-eabi/11.2.0/../../../../arm-none-eabi/lib/thumb/v7+fp/hard/libnosys.a(getpid.o)
 .data          0x0000000000000000        0x0 /usr/lib/gcc/arm-none-eabi/11.2.0/../../../../arm-none-eabi/lib/thumb/v7+fp/hard/libnosys.a(getpid.o)
 .bss           0x0000000000000000        0x0 /usr/lib/gcc/arm-none-eabi/11.2.0/../../../../arm-none-eabi/lib/thumb/v7+fp/hard/libnosys.a(getpid.o)
 .text          0x0000000000000000        0x0 /usr/lib/gcc/arm-none-eabi/11.2.0/../../../../arm-none-eabi/lib/thumb/v7+fp/hard/libnosys.a(kill.o)
 .data          0x0000000000000000        0x0 /usr/lib/gcc/arm-none-eabi/11.2.0/../../../../arm-none-eabi/lib/thumb/v7+fp/hard/libnosys.a(kill.o)
 .bss           0x0000000000000000        0x0 /usr/lib/gcc/arm-none-eabi/11.2.0/../../../../arm-none-eabi/lib/thumb/v7+fp/hard/libnosys.a(kill.o)

Memory Configuration

Name             Origin             Length             Attributes
*default*        0x0000000000000000 0xffffffffffffffff

Linker script and memory map

                [!provide]                        PROVIDE (__executable_start = SEGMENT_START ("text-segment", 0xe400000))
                0x000000000e400000                . = SEGMENT_START ("text-segment", 0xe400000)

.interp
 *(.interp)

.note.gnu.build-id
 *(.note.gnu.build-id)

.hash
 *(.hash)

.gnu.hash
 *(.gnu.hash)

.dynsym
 *(.dynsym)

.dynstr
 *(.dynstr)

.gnu.version
 *(.gnu.version)

.gnu.version_d
 *(.gnu.version_d)

.gnu.version_r
 *(.gnu.version_r)

.rel.init
 *(.rel.init)

.rela.init
 *(.rela.init)

.rel.text
 *(.rel.text .rel.text.* .rel.gnu.linkonce.t.*)

.rela.text
 *(.rela.text .rela.text.* .rela.gnu.linkonce.t.*)

.rel.fini
 *(.rel.fini)

.rela.fini
 *(.rela.fini)

.rel.rodata
 *(.rel.rodata .rel.rodata.* .rel.gnu.linkonce.r.*)

.rela.rodata
 *(.rela.rodata .rela.rodata.* .rela.gnu.linkonce.r.*)

.rel.data.rel.ro
 *(.rel.data.rel.ro* .rel.gnu.linkonce.d.rel.ro.*)

.rela.data.rel.ro
 *(.rela.data.rel.ro* .rela.gnu.linkonce.d.rel.ro.*)

.rel.data
 *(.rel.data .rel.data.* .rel.gnu.linkonce.d.*)

.rela.data
 *(.rela.data .rela.data.* .rela.gnu.linkonce.d.*)

.rel.tdata
 *(.rel.tdata .rel.tdata.* .rel.gnu.linkonce.td.*)

.rela.tdata
 *(.rela.tdata .rela.tdata.* .rela.gnu.linkonce.td.*)

.rel.tbss
 *(.rel.tbss .rel.tbss.* .rel.gnu.linkonce.tb.*)

.rela.tbss
 *(.rela.tbss .rela.tbss.* .rela.gnu.linkonce.tb.*)

.rel.ctors
 *(.rel.ctors)

.rela.ctors
 *(.rela.ctors)

.rel.dtors
 *(.rel.dtors)

.rela.dtors
 *(.rela.dtors)

.rel.got
 *(.rel.got)

.rela.got
 *(.rela.got)

.rel.bss
 *(.rel.bss .rel.bss.* .rel.gnu.linkonce.b.*)

.rela.bss
 *(.rela.bss .rela.bss.* .rela.gnu.linkonce.b.*)

.rel.iplt       0x000000000e400000        0x0
                [!provide]                        PROVIDE (__rel_iplt_start = .)
 *(.rel.iplt)
 .rel.iplt      0x000000000e400000        0x0 CMakeFiles/tube-client.dir/armc-cstartup.c.obj
                [!provide]                        PROVIDE (__rel_iplt_end = .)

.rela.iplt      0x000000000e400000        0x0
                [!provide]                        PROVIDE (__rela_iplt_start = .)
 *(.rela.iplt)
                [!provide]                        PROVIDE (__rela_iplt_end = .)

.rel.plt
 *(.rel.plt)

.rela.plt
 *(.rela.plt)

.init
 *(.init)

.plt
 *(.plt)

.iplt           0x000000000e400000        0x0
 *(.iplt)
 .iplt          0x000000000e400000        0x0 CMakeFiles/tube-client.dir/armc-cstartup.c.obj

.text           0x000000000e400000    0x76d60
 *(.text.startup .text.startup.*)
 .text.startup  0x000000000e400000       0x40 CMakeFiles/tube-client.dir/armc-start.S.obj
                0x000000000e400000                _start
                0x000000000e400028                _software_interrupt_vector_h
                0x000000000e400038                _interrupt_vector_h
                0x000000000e40003c                _fast_interrupt_vector_h
 *(.text.unlikely .text.*_unlikely)
 *(.text.exit .text.exit.*)
 *(.text.hot .text.hot.*)
 *(.text .stub .text.* .gnu.linkonce.t.*)
 .text._cstartup
                0x000000000e400040       0x58 CMakeFiles/tube-client.dir/armc-cstartup.c.obj
                0x000000000e400040                _cstartup
 .text._exit    0x000000000e400098        0x4 CMakeFiles/tube-client.dir/armc-cstubs.c.obj
                0x000000000e400098                _exit
 .text._close   0x000000000e40009c        0x8 CMakeFiles/tube-client.dir/armc-cstubs.c.obj
                0x000000000e40009c                _close
 .text._fstat   0x000000000e4000a4       0x10 CMakeFiles/tube-client.dir/armc-cstubs.c.obj
                0x000000000e4000a4                _fstat
 .text._isatty  0x000000000e4000b4        0x8 CMakeFiles/tube-client.dir/armc-cstubs.c.obj
                0x000000000e4000b4                _isatty
 .text._lseek   0x000000000e4000bc        0x8 CMakeFiles/tube-client.dir/armc-cstubs.c.obj
                0x000000000e4000bc                _lseek
 .text._read    0x000000000e4000c4        0x8 CMakeFiles/tube-client.dir/armc-cstubs.c.obj
                0x000000000e4000c4                _read
 .text._sbrk    0x000000000e4000cc       0x2c CMakeFiles/tube-client.dir/armc-cstubs.c.obj
                0x000000000e4000cc                _sbrk
 .text._write   0x000000000e4000f8       0x2c CMakeFiles/tube-client.dir/armc-cstubs.c.obj
                0x000000000e4000f8                _write
 .text._reset_  0x000000000e400124       0x84 CMakeFiles/tube-client.dir/armc-start.S.obj
 .text._get_cpsr
                0x000000000e4001a8        0x8 CMakeFiles/tube-client.dir/armc-start.S.obj
                0x000000000e4001a8                _get_cpsr
 .text._set_interrupts
                0x000000000e4001b0       0x18 CMakeFiles/tube-client.dir/armc-start.S.obj
                0x000000000e4001b0                _set_interrupts
 .text._enable_interrupts
                0x000000000e4001c8       0x10 CMakeFiles/tube-client.dir/armc-start.S.obj
                0x000000000e4001c8                _enable_interrupts
 .text._disable_interrupts
                0x000000000e4001d8       0x10 CMakeFiles/tube-client.dir/armc-start.S.obj
                0x000000000e4001d8                _disable_interrupts
 .text._undefined_instruction_handler_
                0x000000000e4001e8       0x14 CMakeFiles/tube-client.dir/armc-start.S.obj
 .text._prefetch_abort_handler_
                0x000000000e4001fc       0x14 CMakeFiles/tube-client.dir/armc-start.S.obj
 .text._data_abort_handler_
                0x000000000e400210       0x14 CMakeFiles/tube-client.dir/armc-start.S.obj
 .text._swi_handler_
                0x000000000e400224       0x14 CMakeFiles/tube-client.dir/armc-start.S.obj
 .text._enable_unaligned_access
                0x000000000e400238       0x14 CMakeFiles/tube-client.dir/armc-start.S.obj
                0x000000000e400238                _enable_unaligned_access
 .text._enable_l1_cache
                0x000000000e40024c       0x18 CMakeFiles/tube-client.dir/armc-start.S.obj
                0x000000000e40024c                _enable_l1_cache
 .text._invalidate_icache
                0x000000000e400264        0xc CMakeFiles/tube-client.dir/armc-start.S.obj
                0x000000000e400264                _invalidate_icache
 .text._invalidate_dtlb_mva
                0x000000000e400270        0x8 CMakeFiles/tube-client.dir/armc-start.S.obj
                0x000000000e400270                _invalidate_dtlb_mva
 .text._data_memory_barrier
                0x000000000e400278        0x8 CMakeFiles/tube-client.dir/armc-start.S.obj
                0x000000000e400278                _data_memory_barrier
 .text._spin_core
                0x000000000e400280        0x8 CMakeFiles/tube-client.dir/armc-start.S.obj
                0x000000000e400280                _spin_core
 .text._get_core
                0x000000000e400288        0xc CMakeFiles/tube-client.dir/armc-start.S.obj
                0x000000000e400288                _get_core
 .text._fast_scroll
                0x000000000e400294       0x24 CMakeFiles/tube-client.dir/armc-start.S.obj
                0x000000000e400294                _fast_scroll
 .text._fast_clear
                0x000000000e4002b8       0x3c CMakeFiles/tube-client.dir/armc-start.S.obj
                0x000000000e4002b8                _fast_clear
 .text._main_irq_handler
                0x000000000e4002f4       0x10 CMakeFiles/tube-client.dir/armc-start.S.obj
                0x000000000e4002f4                _main_irq_handler
 .text.InvalidateDataCache
                0x000000000e400304       0x5c CMakeFiles/tube-client.dir/cache.c.obj
                0x000000000e400304                InvalidateDataCache
 .text.CleanDataCache
                0x000000000e400360       0x5c CMakeFiles/tube-client.dir/cache.c.obj
                0x000000000e400360                CleanDataCache
 .text._clean_cache_area
                0x000000000e4003bc       0x30 CMakeFiles/tube-client.dir/cache.c.obj
                0x000000000e4003bc                _clean_cache_area
 .text.map_4k_page
                0x000000000e4003ec       0x2c CMakeFiles/tube-client.dir/cache.c.obj
                0x000000000e4003ec                map_4k_page
 .text.map_4k_pageJIT
                0x000000000e400418       0x30 CMakeFiles/tube-client.dir/cache.c.obj
                0x000000000e400418                map_4k_pageJIT
 .text.enable_MMU_and_IDCaches
                0x000000000e400448      0x128 CMakeFiles/tube-client.dir/cache.c.obj
                0x000000000e400448                enable_MMU_and_IDCaches
 .text.default_copro
                0x000000000e400570        0x8 CMakeFiles/tube-client.dir/copro-defs.c.obj
                0x000000000e400570                default_copro
 .text.num_copros
                0x000000000e400578        0x8 CMakeFiles/tube-client.dir/copro-defs.c.obj
                0x000000000e400578                num_copros
 .text.default_set_spacing_w
                0x000000000e400580        0x8 CMakeFiles/tube-client.dir/framebuffer/fonts.c.obj
 .text.default_set_spacing_h
                0x000000000e400588        0x8 CMakeFiles/tube-client.dir/framebuffer/fonts.c.obj
 .text.default_set_scale_w
                0x000000000e400590        0x8 CMakeFiles/tube-client.dir/framebuffer/fonts.c.obj
 .text.default_set_scale_h
                0x000000000e400598        0x8 CMakeFiles/tube-client.dir/framebuffer/fonts.c.obj
 .text.default_get_name
                0x000000000e4005a0        0x8 CMakeFiles/tube-client.dir/framebuffer/fonts.c.obj
 .text.default_get_number
                0x000000000e4005a8        0x8 CMakeFiles/tube-client.dir/framebuffer/fonts.c.obj
 .text.default_get_spacing_w
                0x000000000e4005b0        0x8 CMakeFiles/tube-client.dir/framebuffer/fonts.c.obj
 .text.default_get_spacing_h
                0x000000000e4005b8        0x8 CMakeFiles/tube-client.dir/framebuffer/fonts.c.obj
 .text.default_get_scale_w
                0x000000000e4005c0        0x8 CMakeFiles/tube-client.dir/framebuffer/fonts.c.obj
 .text.default_get_scale_h
                0x000000000e4005c8        0x8 CMakeFiles/tube-client.dir/framebuffer/fonts.c.obj
 .text.default_get_rounding
                0x000000000e4005d0        0x8 CMakeFiles/tube-client.dir/framebuffer/fonts.c.obj
 .text.default_get_overall_w
                0x000000000e4005d8       0x20 CMakeFiles/tube-client.dir/framebuffer/fonts.c.obj
 .text.default_get_overall_h
                0x000000000e4005f8       0x20 CMakeFiles/tube-client.dir/framebuffer/fonts.c.obj
 .text.default_write_char
                0x000000000e400618      0x160 CMakeFiles/tube-client.dir/framebuffer/fonts.c.obj
 .text.default_read_char
                0x000000000e400778      0x164 CMakeFiles/tube-client.dir/framebuffer/fonts.c.obj
 .text.copy_font_character.part.0
                0x000000000e4008dc      0x13c CMakeFiles/tube-client.dir/framebuffer/fonts.c.obj
 .text.default_set_rounding
                0x000000000e400a18       0x78 CMakeFiles/tube-client.dir/framebuffer/fonts.c.obj
 .text.initialize_font
                0x000000000e400a90      0x124 CMakeFiles/tube-client.dir/framebuffer/fonts.c.obj
 .text.get_font_name
                0x000000000e400bb4       0x24 CMakeFiles/tube-client.dir/framebuffer/fonts.c.obj
                0x000000000e400bb4                get_font_name
 .text.get_font_by_number
                0x000000000e400bd8       0x24 CMakeFiles/tube-client.dir/framebuffer/fonts.c.obj
                0x000000000e400bd8                get_font_by_number
 .text.get_font_by_name
                0x000000000e400bfc       0x6c CMakeFiles/tube-client.dir/framebuffer/fonts.c.obj
                0x000000000e400bfc                get_font_by_name
 .text.define_character
                0x000000000e400c68       0x20 CMakeFiles/tube-client.dir/framebuffer/fonts.c.obj
                0x000000000e400c68                define_character
 .text.update_font_size
                0x000000000e400c88       0x94 CMakeFiles/tube-client.dir/framebuffer/framebuffer.c.obj
 .text.invert_cursor
                0x000000000e400d1c       0xec CMakeFiles/tube-client.dir/framebuffer/framebuffer.c.obj
 .text.update_cursors
                0x000000000e400e08      0x198 CMakeFiles/tube-client.dir/framebuffer/framebuffer.c.obj
 .text.update_text_area
                0x000000000e400fa0      0x114 CMakeFiles/tube-client.dir/framebuffer/framebuffer.c.obj
 .text.disable_cursors
                0x000000000e4010b4       0xb0 CMakeFiles/tube-client.dir/framebuffer/framebuffer.c.obj
 .text.read_character
                0x000000000e401164       0x68 CMakeFiles/tube-client.dir/framebuffer/framebuffer.c.obj
 .text.text_cursor_up
                0x000000000e4011cc       0x30 CMakeFiles/tube-client.dir/framebuffer/framebuffer.c.obj
 .text.text_cursor_down
                0x000000000e4011fc       0xc8 CMakeFiles/tube-client.dir/framebuffer/framebuffer.c.obj
 .text.text_cursor_right
                0x000000000e4012c4       0x44 CMakeFiles/tube-client.dir/framebuffer/framebuffer.c.obj
 .text.text_cursor_col0
                0x000000000e401308       0x60 CMakeFiles/tube-client.dir/framebuffer/framebuffer.c.obj
 .text.text_cursor_home
                0x000000000e401368       0x2c CMakeFiles/tube-client.dir/framebuffer/framebuffer.c.obj
 .text.text_cursor_tab
                0x000000000e401394       0x5c CMakeFiles/tube-client.dir/framebuffer/framebuffer.c.obj
 .text.text_area_clear
                0x000000000e4013f0       0x90 CMakeFiles/tube-client.dir/framebuffer/framebuffer.c.obj
 .text.graphics_cursor_up
                0x000000000e401480       0x60 CMakeFiles/tube-client.dir/framebuffer/framebuffer.c.obj
 .text.graphics_cursor_down
                0x000000000e4014e0       0x54 CMakeFiles/tube-client.dir/framebuffer/framebuffer.c.obj
 .text.graphics_cursor_col0
                0x000000000e401534       0x1c CMakeFiles/tube-client.dir/framebuffer/framebuffer.c.obj
 .text.graphics_cursor_home
                0x000000000e401550       0x2c CMakeFiles/tube-client.dir/framebuffer/framebuffer.c.obj
 .text.graphics_cursor_tab
                0x000000000e40157c       0x7c CMakeFiles/tube-client.dir/framebuffer/framebuffer.c.obj
 .text.vdu_4    0x000000000e4015f8       0x9c CMakeFiles/tube-client.dir/framebuffer/framebuffer.c.obj
 .text.vdu_5    0x000000000e401694       0x90 CMakeFiles/tube-client.dir/framebuffer/framebuffer.c.obj
 .text.vdu_17   0x000000000e401724       0x28 CMakeFiles/tube-client.dir/framebuffer/framebuffer.c.obj
 .text.vdu_19   0x000000000e40174c      0x108 CMakeFiles/tube-client.dir/framebuffer/framebuffer.c.obj
 .text.vdu_20   0x000000000e401854       0x14 CMakeFiles/tube-client.dir/framebuffer/framebuffer.c.obj
 .text.vdu_29   0x000000000e401868       0x38 CMakeFiles/tube-client.dir/framebuffer/framebuffer.c.obj
 .text.vdu_nop  0x000000000e4018a0        0x4 CMakeFiles/tube-client.dir/framebuffer/framebuffer.c.obj
 .text.writec   0x000000000e4018a4       0x70 CMakeFiles/tube-client.dir/framebuffer/framebuffer.c.obj
 .text.vdu_18   0x000000000e401914       0x34 CMakeFiles/tube-client.dir/framebuffer/framebuffer.c.obj
 .text.set_graphics_area
                0x000000000e401948       0xcc CMakeFiles/tube-client.dir/framebuffer/framebuffer.c.obj
 .text.reset_areas
                0x000000000e401a14      0x14c CMakeFiles/tube-client.dir/framebuffer/framebuffer.c.obj
 .text.vdu_26   0x000000000e401b60        0x4 CMakeFiles/tube-client.dir/framebuffer/framebuffer.c.obj
 .text.vdu_24   0x000000000e401b64       0x90 CMakeFiles/tube-client.dir/framebuffer/framebuffer.c.obj
 .text.vdu_16   0x000000000e401bf4       0x38 CMakeFiles/tube-client.dir/framebuffer/framebuffer.c.obj
 .text.graphics_area_clear
                0x000000000e401c2c       0x5c CMakeFiles/tube-client.dir/framebuffer/framebuffer.c.obj
 .text.vdu_25   0x000000000e401c88      0x67c CMakeFiles/tube-client.dir/framebuffer/framebuffer.c.obj
 .text.vdu_28   0x000000000e402304       0x78 CMakeFiles/tube-client.dir/framebuffer/framebuffer.c.obj
 .text.text_cursor_left
                0x000000000e40237c       0x68 CMakeFiles/tube-client.dir/framebuffer/framebuffer.c.obj
 .text.text_delete
                0x000000000e4023e4       0xc0 CMakeFiles/tube-client.dir/framebuffer/framebuffer.c.obj
 .text.change_mode
                0x000000000e4024a4      0x1a0 CMakeFiles/tube-client.dir/framebuffer/framebuffer.c.obj
 .text.graphics_cursor_right
                0x000000000e402644       0x90 CMakeFiles/tube-client.dir/framebuffer/framebuffer.c.obj
 .text.vdu_default
                0x000000000e4026d4      0x15c CMakeFiles/tube-client.dir/framebuffer/framebuffer.c.obj
 .text.graphics_cursor_left
                0x000000000e402830       0xb0 CMakeFiles/tube-client.dir/framebuffer/framebuffer.c.obj
 .text.graphics_delete
                0x000000000e4028e0      0x110 CMakeFiles/tube-client.dir/framebuffer/framebuffer.c.obj
 .text.vdu_27   0x000000000e4029f0      0x304 CMakeFiles/tube-client.dir/framebuffer/framebuffer.c.obj
 .text.vdu_22   0x000000000e402cf4       0x80 CMakeFiles/tube-client.dir/framebuffer/framebuffer.c.obj
 .text.cursor   0x000000000e402d74      0x2a4 CMakeFiles/tube-client.dir/framebuffer/framebuffer.c.obj
 .text.select_font
                0x000000000e403018      0x2b0 CMakeFiles/tube-client.dir/framebuffer/framebuffer.c.obj
 .text.fb_writec_buffered
                0x000000000e4032c8       0x2c CMakeFiles/tube-client.dir/framebuffer/framebuffer.c.obj
                0x000000000e4032c8                fb_writec_buffered
 .text.fb_process_vdu_queue
                0x000000000e4032f4      0x220 CMakeFiles/tube-client.dir/framebuffer/framebuffer.c.obj
                0x000000000e4032f4                fb_process_vdu_queue
 .text.fb_writec
                0x000000000e403514       0x4c CMakeFiles/tube-client.dir/framebuffer/framebuffer.c.obj
                0x000000000e403514                fb_writec
 .text.fb_writes
                0x000000000e403560       0x6c CMakeFiles/tube-client.dir/framebuffer/framebuffer.c.obj
                0x000000000e403560                fb_writes
 .text.vdu_23   0x000000000e4035cc      0x460 CMakeFiles/tube-client.dir/framebuffer/framebuffer.c.obj
 .text.help_message
                0x000000000e403a2c      0x724 CMakeFiles/tube-client.dir/framebuffer/framebuffer.c.obj
 .text.fb_initialize
                0x000000000e404150       0xf4 CMakeFiles/tube-client.dir/framebuffer/framebuffer.c.obj
                0x000000000e404150                fb_initialize
 .text.fb_get_edit_cursor_x
                0x000000000e404244       0x10 CMakeFiles/tube-client.dir/framebuffer/framebuffer.c.obj
                0x000000000e404244                fb_get_edit_cursor_x
 .text.fb_get_edit_cursor_y
                0x000000000e404254       0x10 CMakeFiles/tube-client.dir/framebuffer/framebuffer.c.obj
                0x000000000e404254                fb_get_edit_cursor_y
 .text.fb_get_edit_cursor_char
                0x000000000e404264       0x30 CMakeFiles/tube-client.dir/framebuffer/framebuffer.c.obj
                0x000000000e404264                fb_get_edit_cursor_char
 .text.fb_get_text_cursor_x
                0x000000000e404294       0x10 CMakeFiles/tube-client.dir/framebuffer/framebuffer.c.obj
                0x000000000e404294                fb_get_text_cursor_x
 .text.fb_get_text_cursor_y
                0x000000000e4042a4       0x10 CMakeFiles/tube-client.dir/framebuffer/framebuffer.c.obj
                0x000000000e4042a4                fb_get_text_cursor_y
 .text.fb_get_text_cursor_char
                0x000000000e4042b4       0x1c CMakeFiles/tube-client.dir/framebuffer/framebuffer.c.obj
                0x000000000e4042b4                fb_get_text_cursor_char
 .text.fb_get_g_bg_col
                0x000000000e4042d0       0x10 CMakeFiles/tube-client.dir/framebuffer/framebuffer.c.obj
                0x000000000e4042d0                fb_get_g_bg_col
 .text.fb_get_g_fg_col
                0x000000000e4042e0       0x10 CMakeFiles/tube-client.dir/framebuffer/framebuffer.c.obj
                0x000000000e4042e0                fb_get_g_fg_col
 .text.fb_wait_for_vsync
                0x000000000e4042f0       0x20 CMakeFiles/tube-client.dir/framebuffer/framebuffer.c.obj
                0x000000000e4042f0                fb_wait_for_vsync
 .text.fb_get_current_screen_mode
                0x000000000e404310       0x14 CMakeFiles/tube-client.dir/framebuffer/framebuffer.c.obj
                0x000000000e404310                fb_get_current_screen_mode
 .text.fb_read_vdu_variable
                0x000000000e404324      0x4ac CMakeFiles/tube-client.dir/framebuffer/framebuffer.c.obj
                0x000000000e404324                fb_read_vdu_variable
 .text.fb_set_flash_mark_time
                0x000000000e4047d0       0x10 CMakeFiles/tube-client.dir/framebuffer/framebuffer.c.obj
                0x000000000e4047d0                fb_set_flash_mark_time
 .text.fb_set_flash_space_time
                0x000000000e4047e0       0x10 CMakeFiles/tube-client.dir/framebuffer/framebuffer.c.obj
                0x000000000e4047e0                fb_set_flash_space_time
 .text.fb_get_flash_mark_time
                0x000000000e4047f0       0x10 CMakeFiles/tube-client.dir/framebuffer/framebuffer.c.obj
                0x000000000e4047f0                fb_get_flash_mark_time
 .text.fb_get_flash_space_time
                0x000000000e404800       0x10 CMakeFiles/tube-client.dir/framebuffer/framebuffer.c.obj
                0x000000000e404800                fb_get_flash_space_time
 .text.get_pixel
                0x000000000e404810       0x80 CMakeFiles/tube-client.dir/framebuffer/primitives.c.obj
 .text.set_pixel
                0x000000000e404890       0xe0 CMakeFiles/tube-client.dir/framebuffer/primitives.c.obj
 .text.draw_normal_ellipse
                0x000000000e404970      0x298 CMakeFiles/tube-client.dir/framebuffer/primitives.c.obj
 .text.arc_point.part.0
                0x000000000e404c08      0x280 CMakeFiles/tube-client.dir/framebuffer/primitives.c.obj
 .text.fill_bottom_flat_triangle
                0x000000000e404e88       0xc8 CMakeFiles/tube-client.dir/framebuffer/primitives.c.obj
 .text.fill_top_flat_triangle
                0x000000000e404f50       0xc8 CMakeFiles/tube-client.dir/framebuffer/primitives.c.obj
 .text.fill_normal_ellipse
                0x000000000e405018      0x284 CMakeFiles/tube-client.dir/framebuffer/primitives.c.obj
 .text.prim_set_fg_plotmode
                0x000000000e40529c       0x10 CMakeFiles/tube-client.dir/framebuffer/primitives.c.obj
                0x000000000e40529c                prim_set_fg_plotmode
 .text.prim_get_fg_plotmode
                0x000000000e4052ac       0x10 CMakeFiles/tube-client.dir/framebuffer/primitives.c.obj
                0x000000000e4052ac                prim_get_fg_plotmode
 .text.prim_set_bg_plotmode
                0x000000000e4052bc       0x10 CMakeFiles/tube-client.dir/framebuffer/primitives.c.obj
                0x000000000e4052bc                prim_set_bg_plotmode
 .text.prim_get_bg_plotmode
                0x000000000e4052cc       0x10 CMakeFiles/tube-client.dir/framebuffer/primitives.c.obj
                0x000000000e4052cc                prim_get_bg_plotmode
 .text.prim_set_graphics_area
                0x000000000e4052dc       0x94 CMakeFiles/tube-client.dir/framebuffer/primitives.c.obj
                0x000000000e4052dc                prim_set_graphics_area
 .text.prim_clear_graphics_area
                0x000000000e405370       0x90 CMakeFiles/tube-client.dir/framebuffer/primitives.c.obj
                0x000000000e405370                prim_clear_graphics_area
 .text.prim_set_pixel
                0x000000000e405400        0x4 CMakeFiles/tube-client.dir/framebuffer/primitives.c.obj
                0x000000000e405400                prim_set_pixel
 .text.prim_draw_line
                0x000000000e405404      0x260 CMakeFiles/tube-client.dir/framebuffer/primitives.c.obj
                0x000000000e405404                prim_draw_line
 .text.prim_flood_fill
                0x000000000e405664      0x398 CMakeFiles/tube-client.dir/framebuffer/primitives.c.obj
                0x000000000e405664                prim_flood_fill
 .text.prim_fill_area
                0x000000000e4059fc      0x440 CMakeFiles/tube-client.dir/framebuffer/primitives.c.obj
                0x000000000e4059fc                prim_fill_area
 .text.prim_fill_triangle
                0x000000000e405e3c      0x1a0 CMakeFiles/tube-client.dir/framebuffer/primitives.c.obj
                0x000000000e405e3c                prim_fill_triangle
 .text.prim_draw_arc
                0x000000000e405fdc      0x95c CMakeFiles/tube-client.dir/framebuffer/primitives.c.obj
                0x000000000e405fdc                prim_draw_arc
 .text.prim_fill_chord
                0x000000000e406938       0xa0 CMakeFiles/tube-client.dir/framebuffer/primitives.c.obj
                0x000000000e406938                prim_fill_chord
 .text.prim_fill_sector
                0x000000000e4069d8       0xc0 CMakeFiles/tube-client.dir/framebuffer/primitives.c.obj
                0x000000000e4069d8                prim_fill_sector
 .text.prim_move_copy_rectangle
                0x000000000e406a98      0x128 CMakeFiles/tube-client.dir/framebuffer/primitives.c.obj
                0x000000000e406a98                prim_move_copy_rectangle
 .text.prim_fill_rectangle
                0x000000000e406bc0       0x6c CMakeFiles/tube-client.dir/framebuffer/primitives.c.obj
                0x000000000e406bc0                prim_fill_rectangle
 .text.prim_fill_parallelogram
                0x000000000e406c2c       0x70 CMakeFiles/tube-client.dir/framebuffer/primitives.c.obj
                0x000000000e406c2c                prim_fill_parallelogram
 .text.prim_draw_circle
                0x000000000e406c9c      0x2f8 CMakeFiles/tube-client.dir/framebuffer/primitives.c.obj
                0x000000000e406c9c                prim_draw_circle
 .text.prim_fill_circle
                0x000000000e406f94      0x304 CMakeFiles/tube-client.dir/framebuffer/primitives.c.obj
                0x000000000e406f94                prim_fill_circle
 .text.prim_draw_ellipse
                0x000000000e407298      0x3e4 CMakeFiles/tube-client.dir/framebuffer/primitives.c.obj
                0x000000000e407298                prim_draw_ellipse
 .text.prim_fill_ellipse
                0x000000000e40767c      0x20c CMakeFiles/tube-client.dir/framebuffer/primitives.c.obj
                0x000000000e40767c                prim_fill_ellipse
 .text.prim_draw_character
                0x000000000e407888      0x19c CMakeFiles/tube-client.dir/framebuffer/primitives.c.obj
                0x000000000e407888                prim_draw_character
 .text.prim_reset_sprites
                0x000000000e407a24       0x44 CMakeFiles/tube-client.dir/framebuffer/primitives.c.obj
                0x000000000e407a24                prim_reset_sprites
 .text.prim_define_sprite
                0x000000000e407a68      0x214 CMakeFiles/tube-client.dir/framebuffer/primitives.c.obj
                0x000000000e407a68                prim_define_sprite
 .text.prim_draw_sprite
                0x000000000e407c7c      0x1d0 CMakeFiles/tube-client.dir/framebuffer/primitives.c.obj
                0x000000000e407c7c                prim_draw_sprite
 .text.to_rectangle
                0x000000000e407e4c       0x98 CMakeFiles/tube-client.dir/framebuffer/screen_modes.c.obj
 .text.null_handler
                0x000000000e407ee4        0x4 CMakeFiles/tube-client.dir/framebuffer/screen_modes.c.obj
 .text.default_clear_screen
                0x000000000e407ee8       0x74 CMakeFiles/tube-client.dir/framebuffer/screen_modes.c.obj
                0x000000000e407ee8                default_clear_screen
 .text.default_set_colour_8bpp
                0x000000000e407f5c       0x48 CMakeFiles/tube-client.dir/framebuffer/screen_modes.c.obj
                0x000000000e407f5c                default_set_colour_8bpp
 .text.default_set_colour_16bpp
                0x000000000e407fa4       0x34 CMakeFiles/tube-client.dir/framebuffer/screen_modes.c.obj
                0x000000000e407fa4                default_set_colour_16bpp
 .text.default_set_colour_32bpp
                0x000000000e407fd8       0x34 CMakeFiles/tube-client.dir/framebuffer/screen_modes.c.obj
                0x000000000e407fd8                default_set_colour_32bpp
 .text.default_get_colour_8bpp
                0x000000000e40800c        0x8 CMakeFiles/tube-client.dir/framebuffer/screen_modes.c.obj
                0x000000000e40800c                default_get_colour_8bpp
 .text.default_get_colour_16bpp
                0x000000000e408014       0x14 CMakeFiles/tube-client.dir/framebuffer/screen_modes.c.obj
                0x000000000e408014                default_get_colour_16bpp
 .text.default_set_pixel_8bpp
                0x000000000e408028       0x2c CMakeFiles/tube-client.dir/framebuffer/screen_modes.c.obj
                0x000000000e408028                default_set_pixel_8bpp
 .text.default_set_pixel_16bpp
                0x000000000e408054       0x2c CMakeFiles/tube-client.dir/framebuffer/screen_modes.c.obj
                0x000000000e408054                default_set_pixel_16bpp
 .text.default_set_pixel_32bpp
                0x000000000e408080       0x2c CMakeFiles/tube-client.dir/framebuffer/screen_modes.c.obj
                0x000000000e408080                default_set_pixel_32bpp
 .text.default_get_pixel_8bpp
                0x000000000e4080ac       0x2c CMakeFiles/tube-client.dir/framebuffer/screen_modes.c.obj
                0x000000000e4080ac                default_get_pixel_8bpp
 .text.default_get_pixel_16bpp
                0x000000000e4080d8       0x30 CMakeFiles/tube-client.dir/framebuffer/screen_modes.c.obj
                0x000000000e4080d8                default_get_pixel_16bpp
 .text.default_get_pixel_32bpp
                0x000000000e408108       0x30 CMakeFiles/tube-client.dir/framebuffer/screen_modes.c.obj
                0x000000000e408108                default_get_pixel_32bpp
 .text.default_write_character
                0x000000000e408138       0x78 CMakeFiles/tube-client.dir/framebuffer/screen_modes.c.obj
                0x000000000e408138                default_write_character
 .text.default_read_character
                0x000000000e4081b0       0x64 CMakeFiles/tube-client.dir/framebuffer/screen_modes.c.obj
                0x000000000e4081b0                default_read_character
 .text.default_unknown_vdu
                0x000000000e408214        0x4 CMakeFiles/tube-client.dir/framebuffer/screen_modes.c.obj
                0x000000000e408214                default_unknown_vdu
 .text.default_init_screen
                0x000000000e408218      0x2d0 CMakeFiles/tube-client.dir/framebuffer/screen_modes.c.obj
                0x000000000e408218                default_init_screen
 .text.default_reset_screen
                0x000000000e4084e8      0x22c CMakeFiles/tube-client.dir/framebuffer/screen_modes.c.obj
                0x000000000e4084e8                default_reset_screen
 .text.default_scroll_screen
                0x000000000e408714      0x1cc CMakeFiles/tube-client.dir/framebuffer/screen_modes.c.obj
                0x000000000e408714                default_scroll_screen
 .text.update_palette
                0x000000000e4088e0       0x48 CMakeFiles/tube-client.dir/framebuffer/screen_modes.c.obj
 .text.default_get_colour_32bpp
                0x000000000e408928       0x14 CMakeFiles/tube-client.dir/framebuffer/screen_modes.c.obj
                0x000000000e408928                default_get_colour_32bpp
 .text.default_flash
                0x000000000e40893c       0x48 CMakeFiles/tube-client.dir/framebuffer/screen_modes.c.obj
                0x000000000e40893c                default_flash
 .text.get_screen_mode
                0x000000000e408984      0x20c CMakeFiles/tube-client.dir/framebuffer/screen_modes.c.obj
                0x000000000e408984                get_screen_mode
 .text.get_fb_address
                0x000000000e408b90       0x10 CMakeFiles/tube-client.dir/framebuffer/screen_modes.c.obj
                0x000000000e408b90                get_fb_address
 .text.fb_read_mode_variable
                0x000000000e408ba0       0xe0 CMakeFiles/tube-client.dir/framebuffer/screen_modes.c.obj
                0x000000000e408ba0                fb_read_mode_variable
 .text.OS_ReadVduVariables_impl
                0x000000000e408c80       0x48 CMakeFiles/tube-client.dir/framebuffer/swi_impl.c.obj
 .text.OS_ReadModeVariable_impl
                0x000000000e408cc8       0x44 CMakeFiles/tube-client.dir/framebuffer/swi_impl.c.obj
 .text.OS_Plot_impl
                0x000000000e408d0c       0x7c CMakeFiles/tube-client.dir/framebuffer/swi_impl.c.obj
 .text.OS_ScreenMode_impl
                0x000000000e408d88       0xd8 CMakeFiles/tube-client.dir/framebuffer/swi_impl.c.obj
 .text.OS_Byte_impl
                0x000000000e408e60       0xc4 CMakeFiles/tube-client.dir/framebuffer/swi_impl.c.obj
 .text.OS_WriteS_impl
                0x000000000e408f24       0x84 CMakeFiles/tube-client.dir/framebuffer/swi_impl.c.obj
 .text.OS_WriteN_impl
                0x000000000e408fa8       0x68 CMakeFiles/tube-client.dir/framebuffer/swi_impl.c.obj
 .text.OS_NewLine_impl
                0x000000000e409010       0x5c CMakeFiles/tube-client.dir/framebuffer/swi_impl.c.obj
 .text.OS_WriteC_impl
                0x000000000e40906c       0x54 CMakeFiles/tube-client.dir/framebuffer/swi_impl.c.obj
 .text.OS_Write0_impl
                0x000000000e4090c0       0x80 CMakeFiles/tube-client.dir/framebuffer/swi_impl.c.obj
 .text.OS_ReadLine_impl
                0x000000000e409140      0x4a8 CMakeFiles/tube-client.dir/framebuffer/swi_impl.c.obj
 .text.fb_set_vdu_device
                0x000000000e4095e8       0x10 CMakeFiles/tube-client.dir/framebuffer/swi_impl.c.obj
                0x000000000e4095e8                fb_set_vdu_device
 .text.fb_add_swi_handlers
                0x000000000e4095f8       0xc4 CMakeFiles/tube-client.dir/framebuffer/swi_impl.c.obj
                0x000000000e4095f8                fb_add_swi_handlers
 .text.update_double_height_counts
                0x000000000e4096bc       0x84 CMakeFiles/tube-client.dir/framebuffer/teletext.c.obj
 .text.tt_read_character
                0x000000000e409740       0x44 CMakeFiles/tube-client.dir/framebuffer/teletext.c.obj
 .text.tt_reset_line_state
                0x000000000e409784       0x8c CMakeFiles/tube-client.dir/framebuffer/teletext.c.obj
 .text.tt_draw_character
                0x000000000e409810      0x1f4 CMakeFiles/tube-client.dir/framebuffer/teletext.c.obj
 .text.tt_scroll
                0x000000000e409a04       0xc0 CMakeFiles/tube-client.dir/framebuffer/teletext.c.obj
 .text.tt_clear
                0x000000000e409ac4       0xa0 CMakeFiles/tube-client.dir/framebuffer/teletext.c.obj
 .text.tt_process_controls.constprop.0
                0x000000000e409b64      0x1cc CMakeFiles/tube-client.dir/framebuffer/teletext.c.obj
 .text.tt_reset
                0x000000000e409d30       0xf8 CMakeFiles/tube-client.dir/framebuffer/teletext.c.obj
 .text.tt_process_controls_after.constprop.0
                0x000000000e409e28      0x1a8 CMakeFiles/tube-client.dir/framebuffer/teletext.c.obj
 .text.re_render_row
                0x000000000e409fd0       0x70 CMakeFiles/tube-client.dir/framebuffer/teletext.c.obj
 .text.tt_write_character
                0x000000000e40a040      0x224 CMakeFiles/tube-client.dir/framebuffer/teletext.c.obj
 .text.tt_unknown_vdu
                0x000000000e40a264       0xf4 CMakeFiles/tube-client.dir/framebuffer/teletext.c.obj
 .text.tt_get_screen_mode
                0x000000000e40a358       0x3c CMakeFiles/tube-client.dir/framebuffer/teletext.c.obj
                0x000000000e40a358                tt_get_screen_mode
 .text.get_cmdline.part.0
                0x000000000e40a394       0x7c CMakeFiles/tube-client.dir/info.c.obj
 .text.get_info_string.part.0
                0x000000000e40a410      0x134 CMakeFiles/tube-client.dir/info.c.obj
 .text.get_revision
                0x000000000e40a544       0x30 CMakeFiles/tube-client.dir/info.c.obj
                0x000000000e40a544                get_revision
 .text.get_clock_rate
                0x000000000e40a574       0x38 CMakeFiles/tube-client.dir/info.c.obj
                0x000000000e40a574                get_clock_rate
 .text.get_speed
                0x000000000e40a5ac       0x68 CMakeFiles/tube-client.dir/info.c.obj
                0x000000000e40a5ac                get_speed
 .text.get_info_string
                0x000000000e40a614       0x34 CMakeFiles/tube-client.dir/info.c.obj
                0x000000000e40a614                get_info_string
 .text.get_cmdline_prop
                0x000000000e40a648       0xdc CMakeFiles/tube-client.dir/info.c.obj
                0x000000000e40a648                get_cmdline_prop
 .text.get_clock_rates
                0x000000000e40a724       0x90 CMakeFiles/tube-client.dir/info.c.obj
                0x000000000e40a724                get_clock_rates
 .text.init_info
                0x000000000e40a7b4       0x94 CMakeFiles/tube-client.dir/info.c.obj
                0x000000000e40a7b4                init_info
 .text.log_info
                0x000000000e40a848       0x44 CMakeFiles/tube-client.dir/logging.c.obj
                0x000000000e40a848                log_info
 .text.log_warn
                0x000000000e40a88c       0x44 CMakeFiles/tube-client.dir/logging.c.obj
                0x000000000e40a88c                log_warn
 .text.reset_performance_counters
                0x000000000e40a8d0       0xbc CMakeFiles/tube-client.dir/performance.c.obj
                0x000000000e40a8d0                reset_performance_counters
 .text.copy_test_programs
                0x000000000e40a98c      0x208 CMakeFiles/tube-client.dir/programs.c.obj
                0x000000000e40a98c                copy_test_programs
 .text.RPI_AuxMiniUartInit
                0x000000000e40ab94      0x158 CMakeFiles/tube-client.dir/rpi-aux.c.obj
                0x000000000e40ab94                RPI_AuxMiniUartInit
 .text.RPI_AuxMiniUartWrite
                0x000000000e40acec       0x80 CMakeFiles/tube-client.dir/rpi-aux.c.obj
                0x000000000e40acec                RPI_AuxMiniUartWrite
 .text.RPI_AuxMiniUartIRQHandler
                0x000000000e40ad6c       0xcc CMakeFiles/tube-client.dir/rpi-aux.c.obj
                0x000000000e40ad6c                RPI_AuxMiniUartIRQHandler
 .text.RPI_SetGpioPinFunction
                0x000000000e40ae38       0x6c CMakeFiles/tube-client.dir/rpi-gpio.c.obj
                0x000000000e40ae38                RPI_SetGpioPinFunction
 .text.RPI_SetGpioHi
                0x000000000e40aea4       0x48 CMakeFiles/tube-client.dir/rpi-gpio.c.obj
                0x000000000e40aea4                RPI_SetGpioHi
 .text.RPI_SetGpioLo
                0x000000000e40aeec       0x48 CMakeFiles/tube-client.dir/rpi-gpio.c.obj
                0x000000000e40aeec                RPI_SetGpioLo
 .text.RPI_GetIrqController
                0x000000000e40af34        0xc CMakeFiles/tube-client.dir/rpi-interrupts.c.obj
                0x000000000e40af34                RPI_GetIrqController
 .text.RPI_PropertyInit
                0x000000000e40af40       0x44 CMakeFiles/tube-client.dir/rpi-mailbox-interface.c.obj
                0x000000000e40af40                RPI_PropertyInit
 .text.RPI_PropertyAddTag
                0x000000000e40af84      0x5e0 CMakeFiles/tube-client.dir/rpi-mailbox-interface.c.obj
                0x000000000e40af84                RPI_PropertyAddTag
 .text.RPI_PropertyProcess
                0x000000000e40b564       0x40 CMakeFiles/tube-client.dir/rpi-mailbox-interface.c.obj
                0x000000000e40b564                RPI_PropertyProcess
 .text.RPI_PropertyGet
                0x000000000e40b5a4       0x84 CMakeFiles/tube-client.dir/rpi-mailbox-interface.c.obj
                0x000000000e40b5a4                RPI_PropertyGet
 .text.RPI_Mailbox0Write
                0x000000000e40b628       0x5c CMakeFiles/tube-client.dir/rpi-mailbox.c.obj
                0x000000000e40b628                RPI_Mailbox0Write
 .text.RPI_Mailbox0Read
                0x000000000e40b684       0x3c CMakeFiles/tube-client.dir/rpi-mailbox.c.obj
                0x000000000e40b684                RPI_Mailbox0Read
 .text.RPI_WaitMicroSeconds
                0x000000000e40b6c0       0x30 CMakeFiles/tube-client.dir/rpi-systimer.c.obj
                0x000000000e40b6c0                RPI_WaitMicroSeconds
 .text.init_emulator
                0x000000000e40b6f0       0xbc CMakeFiles/tube-client.dir/tube-client.c.obj
 .text.copro_mem_reset
                0x000000000e40b7ac       0x1c CMakeFiles/tube-client.dir/tube-client.c.obj
                0x000000000e40b7ac                copro_mem_reset
 .text.copro_memcpy
                0x000000000e40b7c8        0x4 CMakeFiles/tube-client.dir/tube-client.c.obj
                0x000000000e40b7c8                copro_memcpy
 .text.get_copro_mhz
                0x000000000e40b7cc       0x7c CMakeFiles/tube-client.dir/tube-client.c.obj
                0x000000000e40b7cc                get_copro_mhz
 .text.kernel_main
                0x000000000e40b848      0x200 CMakeFiles/tube-client.dir/tube-client.c.obj
                0x000000000e40b848                kernel_main
 .text.dump_string
                0x000000000e40ba48       0x28 CMakeFiles/tube-client.dir/tube-exception.c.obj
 .text.dump_info
                0x000000000e40ba70      0x3c0 CMakeFiles/tube-client.dir/tube-exception.c.obj
 .text.undefined_instruction_handler
                0x000000000e40be30       0x14 CMakeFiles/tube-client.dir/tube-exception.c.obj
                0x000000000e40be30                undefined_instruction_handler
 .text.prefetch_abort_handler
                0x000000000e40be44       0x14 CMakeFiles/tube-client.dir/tube-exception.c.obj
                0x000000000e40be44                prefetch_abort_handler
 .text.data_abort_handler
                0x000000000e40be58       0x14 CMakeFiles/tube-client.dir/tube-exception.c.obj
                0x000000000e40be58                data_abort_handler
 .text.swi_handler
                0x000000000e40be6c       0x14 CMakeFiles/tube-client.dir/tube-exception.c.obj
                0x000000000e40be6c                swi_handler
 .text.tube_reset
                0x000000000e40be80       0xb8 CMakeFiles/tube-client.dir/tube-ula.c.obj
 .text.tube_enable_fast6502
                0x000000000e40bf38       0x30 CMakeFiles/tube-client.dir/tube-ula.c.obj
                0x000000000e40bf38                tube_enable_fast6502
 .text.tube_disable_fast6502
                0x000000000e40bf68       0x30 CMakeFiles/tube-client.dir/tube-ula.c.obj
                0x000000000e40bf68                tube_disable_fast6502
 .text.tube_ack_nmi
                0x000000000e40bf98       0x30 CMakeFiles/tube-client.dir/tube-ula.c.obj
                0x000000000e40bf98                tube_ack_nmi
 .text.tube_parasite_read
                0x000000000e40bfc8      0x2c0 CMakeFiles/tube-client.dir/tube-ula.c.obj
                0x000000000e40bfc8                tube_parasite_read
 .text.tube_parasite_write
                0x000000000e40c288      0x2c4 CMakeFiles/tube-client.dir/tube-ula.c.obj
                0x000000000e40c288                tube_parasite_write
 .text.tube_parasite_write_banksel
                0x000000000e40c54c       0x78 CMakeFiles/tube-client.dir/tube-ula.c.obj
                0x000000000e40c54c                tube_parasite_write_banksel
 .text.tube_io_handler
                0x000000000e40c5c4      0x854 CMakeFiles/tube-client.dir/tube-ula.c.obj
                0x000000000e40c5c4                tube_io_handler
 .text.tube_init_hardware
                0x000000000e40ce18      0x3c0 CMakeFiles/tube-client.dir/tube-ula.c.obj
                0x000000000e40ce18                tube_init_hardware
 .text.tube_is_rst_active
                0x000000000e40d1d8       0x1c CMakeFiles/tube-client.dir/tube-ula.c.obj
                0x000000000e40d1d8                tube_is_rst_active
 .text.tube_wait_for_rst_release
                0x000000000e40d1f4       0x70 CMakeFiles/tube-client.dir/tube-ula.c.obj
                0x000000000e40d1f4                tube_wait_for_rst_release
 .text.tube_reset_performance_counters
                0x000000000e40d264        0xc CMakeFiles/tube-client.dir/tube-ula.c.obj
                0x000000000e40d264                tube_reset_performance_counters
 .text.tube_log_performance_counters
                0x000000000e40d270        0x4 CMakeFiles/tube-client.dir/tube-ula.c.obj
                0x000000000e40d270                tube_log_performance_counters
 .text.disable_tube
                0x000000000e40d274       0x40 CMakeFiles/tube-client.dir/tube-ula.c.obj
                0x000000000e40d274                disable_tube
 *fill*         0x000000000e40d2b4        0xc 00000000
 .text          0x000000000e40d2c0       0x40 CMakeFiles/tube-client.dir/tube.S.obj
                0x000000000e40d2c0                arm_fiq_handler_flag1
                0x000000000e40d2f0                arm_fiq_handler
                0x000000000e40d2f0                arm_irq_handler
 .text.get_elk_mode
                0x000000000e40d300       0x20 CMakeFiles/tube-client.dir/utils.c.obj
                0x000000000e40d300                get_elk_mode
 .text.check_elk_mode_and_patch
                0x000000000e40d320       0xfc CMakeFiles/tube-client.dir/utils.c.obj
                0x000000000e40d320                check_elk_mode_and_patch
 .text.copro_65tube_emulator
                0x000000000e40d41c       0xf8 CMakeFiles/tube-client.dir/copro-65tube.c.obj
                0x000000000e40d41c                copro_65tube_emulator
 *fill*         0x000000000e40d514     0x2aec 00000000
 .text          0x000000000e410000    0x10000 CMakeFiles/tube-client.dir/copro-65tubeasm.S.obj
                0x000000000e418200                exec_65tube
 .text.copro_65tubejit_emulator
                0x000000000e420000       0xf4 CMakeFiles/tube-client.dir/copro-65tubejit.c.obj
                0x000000000e420000                copro_65tubejit_emulator
 *fill*         0x000000000e4200f4        0xc 00000000
 .text          0x000000000e420100     0x4d5c CMakeFiles/tube-client.dir/jit.S.obj
                0x000000000e422fdc                exec_65tubejit
 .text.copro_lib6502_reg0_write
                0x000000000e424e5c       0x28 CMakeFiles/tube-client.dir/copro-lib6502.c.obj
 .text.copro_lib6502_tube_write
                0x000000000e424e84       0x18 CMakeFiles/tube-client.dir/copro-lib6502.c.obj
 .text.copro_lib6502_tube_read
                0x000000000e424e9c       0x10 CMakeFiles/tube-client.dir/copro-lib6502.c.obj
 .text.copro_lib6502_reset
                0x000000000e424eac       0x5c CMakeFiles/tube-client.dir/copro-lib6502.c.obj
 .text.copro_lib6502_poll
                0x000000000e424f08       0x9c CMakeFiles/tube-client.dir/copro-lib6502.c.obj
 .text.copro_lib6502_emulator
                0x000000000e424fa4       0xe4 CMakeFiles/tube-client.dir/copro-lib6502.c.obj
                0x000000000e424fa4                copro_lib6502_emulator
 .text.M6502_irq
                0x000000000e425088       0xa0 CMakeFiles/tube-client.dir/lib6502.c.obj
                0x000000000e425088                M6502_irq
 .text.M6502_nmi
                0x000000000e425128       0x94 CMakeFiles/tube-client.dir/lib6502.c.obj
                0x000000000e425128                M6502_nmi
 .text.M6502_reset
                0x000000000e4251bc       0x2c CMakeFiles/tube-client.dir/lib6502.c.obj
                0x000000000e4251bc                M6502_reset
 .text.M6502_run
                0x000000000e4251e8     0xd480 CMakeFiles/tube-client.dir/lib6502.c.obj
                0x000000000e4251e8                M6502_run
 .text.M6502_new
                0x000000000e432668       0xfc CMakeFiles/tube-client.dir/lib6502.c.obj
                0x000000000e432668                M6502_new
 .text.M6502_delete
                0x000000000e432764       0x6c CMakeFiles/tube-client.dir/lib6502.c.obj
                0x000000000e432764                M6502_delete
 .text.copro_80186_tube_read
                0x000000000e4327d0        0xc CMakeFiles/tube-client.dir/copro-80186.c.obj
                0x000000000e4327d0                copro_80186_tube_read
 .text.copro_80186_tube_write
                0x000000000e4327dc        0x4 CMakeFiles/tube-client.dir/copro-80186.c.obj
                0x000000000e4327dc                copro_80186_tube_write
 .text.copro_80186_emulator
                0x000000000e4327e0       0xc4 CMakeFiles/tube-client.dir/copro-80186.c.obj
                0x000000000e4327e0                copro_80186_emulator
 .text.flag_sub8
                0x000000000e4328a4       0x98 CMakeFiles/tube-client.dir/cpu80186/cpu80186.c.obj
 .text.op_adc8  0x000000000e43293c       0xc4 CMakeFiles/tube-client.dir/cpu80186/cpu80186.c.obj
 .text.op_sbb8  0x000000000e432a00       0xc4 CMakeFiles/tube-client.dir/cpu80186/cpu80186.c.obj
 .text.getea    0x000000000e432ac4      0x264 CMakeFiles/tube-client.dir/cpu80186/cpu80186.c.obj
 .text.op_daa_das
                0x000000000e432d28       0xe0 CMakeFiles/tube-client.dir/cpu80186/cpu80186.c.obj
 .text.op_grp2_8
                0x000000000e432e08      0x378 CMakeFiles/tube-client.dir/cpu80186/cpu80186.c.obj
 .text.readrm16
                0x000000000e433180       0x5c CMakeFiles/tube-client.dir/cpu80186/cpu80186.c.obj
 .text.op_add8  0x000000000e4331dc       0xb4 CMakeFiles/tube-client.dir/cpu80186/cpu80186.c.obj
 .text.op_add16
                0x000000000e433290       0xb8 CMakeFiles/tube-client.dir/cpu80186/cpu80186.c.obj
 .text.flag_sub16
                0x000000000e433348       0x9c CMakeFiles/tube-client.dir/cpu80186/cpu80186.c.obj
 .text.op_adc16
                0x000000000e4333e4       0xc8 CMakeFiles/tube-client.dir/cpu80186/cpu80186.c.obj
 .text.op_sbb16
                0x000000000e4334ac       0xd0 CMakeFiles/tube-client.dir/cpu80186/cpu80186.c.obj
 .text.op_sub8  0x000000000e43357c       0xbc CMakeFiles/tube-client.dir/cpu80186/cpu80186.c.obj
 .text.op_grp2_16
                0x000000000e433638      0x394 CMakeFiles/tube-client.dir/cpu80186/cpu80186.c.obj
 .text.intcall86
                0x000000000e4339cc      0x138 CMakeFiles/tube-client.dir/cpu80186/cpu80186.c.obj
                0x000000000e4339cc                intcall86
 .text.reset    0x000000000e433b04       0x24 CMakeFiles/tube-client.dir/cpu80186/cpu80186.c.obj
                0x000000000e433b04                reset
 .text.exec86   0x000000000e433b28     0xcfd0 CMakeFiles/tube-client.dir/cpu80186/cpu80186.c.obj
                0x000000000e433b28                exec86
 .text.portout  0x000000000e440af8       0x18 CMakeFiles/tube-client.dir/cpu80186/iop80186.c.obj
                0x000000000e440af8                portout
 .text.portin   0x000000000e440b10       0x2c CMakeFiles/tube-client.dir/cpu80186/iop80186.c.obj
                0x000000000e440b10                portin
 .text.portin16
                0x000000000e440b3c       0x68 CMakeFiles/tube-client.dir/cpu80186/iop80186.c.obj
                0x000000000e440b3c                portin16
 .text.portout16
                0x000000000e440ba4       0x54 CMakeFiles/tube-client.dir/cpu80186/iop80186.c.obj
                0x000000000e440ba4                portout16
 .text.write86  0x000000000e440bf8       0x44 CMakeFiles/tube-client.dir/cpu80186/mem80186.c.obj
                0x000000000e440bf8                write86
 .text.writew86
                0x000000000e440c3c       0x8c CMakeFiles/tube-client.dir/cpu80186/mem80186.c.obj
                0x000000000e440c3c                writew86
 .text.read86   0x000000000e440cc8       0x38 CMakeFiles/tube-client.dir/cpu80186/mem80186.c.obj
                0x000000000e440cc8                read86
 .text.readw86  0x000000000e440d00       0x74 CMakeFiles/tube-client.dir/cpu80186/mem80186.c.obj
                0x000000000e440d00                readw86
 .text.Cleari80186Ram
                0x000000000e440d74       0x8c CMakeFiles/tube-client.dir/cpu80186/mem80186.c.obj
                0x000000000e440d74                Cleari80186Ram
 .text.RomCopy  0x000000000e440e00       0x3c CMakeFiles/tube-client.dir/cpu80186/mem80186.c.obj
                0x000000000e440e00                RomCopy
 .text.copro_arm2_read8
                0x000000000e440e3c       0x54 CMakeFiles/tube-client.dir/copro-arm2.c.obj
                0x000000000e440e3c                copro_arm2_read8
 .text.copro_arm2_read32
                0x000000000e440e90       0xb4 CMakeFiles/tube-client.dir/copro-arm2.c.obj
                0x000000000e440e90                copro_arm2_read32
 .text.copro_arm2_write8
                0x000000000e440f44       0x28 CMakeFiles/tube-client.dir/copro-arm2.c.obj
                0x000000000e440f44                copro_arm2_write8
 .text.copro_arm2_write32
                0x000000000e440f6c       0x64 CMakeFiles/tube-client.dir/copro-arm2.c.obj
                0x000000000e440f6c                copro_arm2_write32
 .text.copro_arm2_emulator
                0x000000000e440fd0       0xc0 CMakeFiles/tube-client.dir/copro-arm2.c.obj
                0x000000000e440fd0                copro_arm2_emulator
 .text.loadInc  0x000000000e441090       0xc4 CMakeFiles/tube-client.dir/mame/arm.c.obj
 .text.loadDec.constprop.0
                0x000000000e441154       0xcc CMakeFiles/tube-client.dir/mame/arm.c.obj
 .text.decodeShift
                0x000000000e441220      0x23c CMakeFiles/tube-client.dir/mame/arm.c.obj
 .text.arm2_device_reset
                0x000000000e44145c       0x7c CMakeFiles/tube-client.dir/mame/arm.c.obj
                0x000000000e44145c                arm2_device_reset
 .text.arm2_execute_run
                0x000000000e4414d8     0x1280 CMakeFiles/tube-client.dir/mame/arm.c.obj
                0x000000000e4414d8                arm2_execute_run
 .text.arm2_execute_set_input
                0x000000000e442758      0x134 CMakeFiles/tube-client.dir/mame/arm.c.obj
                0x000000000e442758                arm2_execute_set_input
 .text.arm2_getR15
                0x000000000e44288c       0x10 CMakeFiles/tube-client.dir/mame/arm.c.obj
                0x000000000e44288c                arm2_getR15
 .text.div_operator
                0x000000000e44289c       0x90 CMakeFiles/tube-client.dir/NS32016/32016.c.obj
 .text.CompareCommon
                0x000000000e44292c       0x9c CMakeFiles/tube-client.dir/NS32016/32016.c.obj
 .text.StringMatching
                0x000000000e4429c8       0x80 CMakeFiles/tube-client.dir/NS32016/32016.c.obj
 .text.StringRegisterUpdate
                0x000000000e442a48       0x68 CMakeFiles/tube-client.dir/NS32016/32016.c.obj
 .text.CheckCondition
                0x000000000e442ab0      0x1a8 CMakeFiles/tube-client.dir/NS32016/32016.c.obj
 .text.ReadGen  0x000000000e442c58      0x148 CMakeFiles/tube-client.dir/NS32016/32016.c.obj
 .text.BitPrefix
                0x000000000e442da0       0xc4 CMakeFiles/tube-client.dir/NS32016/32016.c.obj
 .text.handle_mei_dei_upper_write
                0x000000000e442e64       0xf4 CMakeFiles/tube-client.dir/NS32016/32016.c.obj
 .text.getgen   0x000000000e442f58       0x80 CMakeFiles/tube-client.dir/NS32016/32016.c.obj
 .text.ReadGen64
                0x000000000e442fd8       0xa4 CMakeFiles/tube-client.dir/NS32016/32016.c.obj
 .text.PopRegisters
                0x000000000e44307c       0x88 CMakeFiles/tube-client.dir/NS32016/32016.c.obj
 .text.bcd_sub_16
                0x000000000e443104       0xa4 CMakeFiles/tube-client.dir/NS32016/32016.c.obj
 .text.TakeInterrupt
                0x000000000e4431a8       0xb8 CMakeFiles/tube-client.dir/NS32016/32016.c.obj
 .text.ReturnCommon
                0x000000000e443260       0xc8 CMakeFiles/tube-client.dir/NS32016/32016.c.obj
 .text.n32016_warn
                0x000000000e443328       0x74 CMakeFiles/tube-client.dir/NS32016/32016.c.obj
                0x000000000e443328                n32016_warn
 .text.n32016_ShowRegs
                0x000000000e44339c      0x1dc CMakeFiles/tube-client.dir/NS32016/32016.c.obj
                0x000000000e44339c                n32016_ShowRegs
 .text.n32016_init
                0x000000000e443578        0x4 CMakeFiles/tube-client.dir/NS32016/32016.c.obj
                0x000000000e443578                n32016_init
 .text.n32016_reset_addr
                0x000000000e44357c       0x40 CMakeFiles/tube-client.dir/NS32016/32016.c.obj
                0x000000000e44357c                n32016_reset_addr
 .text.GetDisplacement
                0x000000000e4435bc       0xc0 CMakeFiles/tube-client.dir/NS32016/32016.c.obj
                0x000000000e4435bc                GetDisplacement
 .text.GetGenPhase2
                0x000000000e44367c      0x498 CMakeFiles/tube-client.dir/NS32016/32016.c.obj
 .text.n32016_exec
                0x000000000e443b14     0x3570 CMakeFiles/tube-client.dir/NS32016/32016.c.obj
                0x000000000e443b14                n32016_exec
 .text.n32016_build_matrix
                0x000000000e447084      0x17c CMakeFiles/tube-client.dir/NS32016/Decode.c.obj
                0x000000000e447084                n32016_build_matrix
 .text.BreakPoint
                0x000000000e447200        0x4 CMakeFiles/tube-client.dir/NS32016/Decode.c.obj
                0x000000000e447200                BreakPoint
 .text.n32016_dumpregs
                0x000000000e447204       0x78 CMakeFiles/tube-client.dir/NS32016/Trap.c.obj
                0x000000000e447204                n32016_dumpregs
 .text.HandleTrap
                0x000000000e44727c        0xc CMakeFiles/tube-client.dir/NS32016/Trap.c.obj
                0x000000000e44727c                HandleTrap
 .text.init_ram
                0x000000000e447288       0x98 CMakeFiles/tube-client.dir/NS32016/mem32016.c.obj
                0x000000000e447288                init_ram
 .text.read_x8  0x000000000e447320       0x54 CMakeFiles/tube-client.dir/NS32016/mem32016.c.obj
                0x000000000e447320                read_x8
 .text.read_x16
                0x000000000e447374       0xc8 CMakeFiles/tube-client.dir/NS32016/mem32016.c.obj
                0x000000000e447374                read_x16
 .text.read_x32
                0x000000000e44743c      0x170 CMakeFiles/tube-client.dir/NS32016/mem32016.c.obj
                0x000000000e44743c                read_x32
 .text.read_x64
                0x000000000e4475ac       0x24 CMakeFiles/tube-client.dir/NS32016/mem32016.c.obj
                0x000000000e4475ac                read_x64
 .text.read_n   0x000000000e4475d0      0x168 CMakeFiles/tube-client.dir/NS32016/mem32016.c.obj
                0x000000000e4475d0                read_n
 .text.write_x8
                0x000000000e447738       0x78 CMakeFiles/tube-client.dir/NS32016/mem32016.c.obj
                0x000000000e447738                write_x8
 .text.write_x16
                0x000000000e4477b0       0x48 CMakeFiles/tube-client.dir/NS32016/mem32016.c.obj
                0x000000000e4477b0                write_x16
 .text.write_x32
                0x000000000e4477f8       0x60 CMakeFiles/tube-client.dir/NS32016/mem32016.c.obj
                0x000000000e4477f8                write_x32
 .text.write_x64
                0x000000000e447858       0xac CMakeFiles/tube-client.dir/NS32016/mem32016.c.obj
                0x000000000e447858                write_x64
 .text.write_Arbitary
                0x000000000e447904       0xe4 CMakeFiles/tube-client.dir/NS32016/mem32016.c.obj
                0x000000000e447904                write_Arbitary
 .text.copro_32016_emulator
                0x000000000e4479e8       0x60 CMakeFiles/tube-client.dir/copro-32016.c.obj
                0x000000000e4479e8                copro_32016_emulator
 .text.copro_z80_read_mem
                0x000000000e447a48       0x44 CMakeFiles/tube-client.dir/copro-z80.c.obj
                0x000000000e447a48                copro_z80_read_mem
 .text.copro_z80_write_mem
                0x000000000e447a8c        0xc CMakeFiles/tube-client.dir/copro-z80.c.obj
                0x000000000e447a8c                copro_z80_write_mem
 .text.copro_z80_read_io
                0x000000000e447a98        0x8 CMakeFiles/tube-client.dir/copro-z80.c.obj
                0x000000000e447a98                copro_z80_read_io
 .text.copro_z80_write_io
                0x000000000e447aa0        0x8 CMakeFiles/tube-client.dir/copro-z80.c.obj
                0x000000000e447aa0                copro_z80_write_io
 .text.copro_z80_emulator
                0x000000000e447aa8       0xc8 CMakeFiles/tube-client.dir/copro-z80.c.obj
                0x000000000e447aa8                copro_z80_emulator
 .text.simz80_execute
                0x000000000e447b70     0x8364 CMakeFiles/tube-client.dir/yaze/simz80.c.obj
                0x000000000e447b70                simz80_execute
 .text.simz80_reset
                0x000000000e44fed4       0x60 CMakeFiles/tube-client.dir/yaze/simz80.c.obj
                0x000000000e44fed4                simz80_reset
 .text.simz80_NMI
                0x000000000e44ff34       0x50 CMakeFiles/tube-client.dir/yaze/simz80.c.obj
                0x000000000e44ff34                simz80_NMI
 .text.simz80_IRQ
                0x000000000e44ff84       0x78 CMakeFiles/tube-client.dir/yaze/simz80.c.obj
                0x000000000e44ff84                simz80_IRQ
 .text.simz80_is_IRQ_enabled
                0x000000000e44fffc       0x14 CMakeFiles/tube-client.dir/yaze/simz80.c.obj
                0x000000000e44fffc                simz80_is_IRQ_enabled
 .text.copro_mc6809nc_write
                0x000000000e450010       0x34 CMakeFiles/tube-client.dir/copro-mc6809nc.c.obj
                0x000000000e450010                copro_mc6809nc_write
 .text.copro_mc6809nc_read
                0x000000000e450044       0x4c CMakeFiles/tube-client.dir/copro-mc6809nc.c.obj
                0x000000000e450044                copro_mc6809nc_read
 .text.copro_mc6809nc_emulator
                0x000000000e450090       0xa8 CMakeFiles/tube-client.dir/copro-mc6809nc.c.obj
                0x000000000e450090                copro_mc6809nc_emulator
 .text.addd     0x000000000e450138       0x84 CMakeFiles/tube-client.dir/mc6809nc/mc6809.c.obj
 .text.cmp16    0x000000000e4501bc       0x60 CMakeFiles/tube-client.dir/mc6809nc/mc6809.c.obj
 .text.subd     0x000000000e45021c       0x84 CMakeFiles/tube-client.dir/mc6809nc/mc6809.c.obj
 .text.std      0x000000000e4502a0       0x94 CMakeFiles/tube-client.dir/mc6809nc/mc6809.c.obj
 .text.imm_word
                0x000000000e450334       0x40 CMakeFiles/tube-client.dir/mc6809nc/mc6809.c.obj
 .text.direct   0x000000000e450374       0x40 CMakeFiles/tube-client.dir/mc6809nc/mc6809.c.obj
 .text.RDMEM16  0x000000000e4503b4       0x40 CMakeFiles/tube-client.dir/mc6809nc/mc6809.c.obj
 .text.extended
                0x000000000e4503f4       0x48 CMakeFiles/tube-client.dir/mc6809nc/mc6809.c.obj
 .text.sim_error
                0x000000000e45043c       0x48 CMakeFiles/tube-client.dir/mc6809nc/mc6809.c.obj
 .text.st16     0x000000000e450484       0x78 CMakeFiles/tube-client.dir/mc6809nc/mc6809.c.obj
 .text.branch   0x000000000e4504fc       0x58 CMakeFiles/tube-client.dir/mc6809nc/mc6809.c.obj
 .text.long_branch
                0x000000000e450554       0x7c CMakeFiles/tube-client.dir/mc6809nc/mc6809.c.obj
 .text.indexed  0x000000000e4505d0      0x778 CMakeFiles/tube-client.dir/mc6809nc/mc6809.c.obj
 .text.get_cc   0x000000000e450d48       0x78 CMakeFiles/tube-client.dir/mc6809nc/mc6809.c.obj
                0x000000000e450d48                get_cc
 .text.irq      0x000000000e450dc0      0x1c4 CMakeFiles/tube-client.dir/mc6809nc/mc6809.c.obj
 .text.mc6809nc_request_irq
                0x000000000e450f84       0x28 CMakeFiles/tube-client.dir/mc6809nc/mc6809.c.obj
                0x000000000e450f84                mc6809nc_request_irq
 .text.firq     0x000000000e450fac       0xb4 CMakeFiles/tube-client.dir/mc6809nc/mc6809.c.obj
 .text.mc6809nc_request_firq
                0x000000000e451060       0x28 CMakeFiles/tube-client.dir/mc6809nc/mc6809.c.obj
                0x000000000e451060                mc6809nc_request_firq
 .text.get_reg  0x000000000e451088       0xf8 CMakeFiles/tube-client.dir/mc6809nc/mc6809.c.obj
 .text.pshs     0x000000000e451180      0x298 CMakeFiles/tube-client.dir/mc6809nc/mc6809.c.obj
 .text.set_cc   0x000000000e451418       0x8c CMakeFiles/tube-client.dir/mc6809nc/mc6809.c.obj
                0x000000000e451418                set_cc
 .text.set_reg  0x000000000e4514a4       0xec CMakeFiles/tube-client.dir/mc6809nc/mc6809.c.obj
 .text.mc6809nc_execute
                0x000000000e451590     0x7de4 CMakeFiles/tube-client.dir/mc6809nc/mc6809.c.obj
                0x000000000e451590                mc6809nc_execute
 .text.mc6809nc_reset
                0x000000000e459374       0xe0 CMakeFiles/tube-client.dir/mc6809nc/mc6809.c.obj
                0x000000000e459374                mc6809nc_reset
 .text.copro_opc5ls_write
                0x000000000e459454       0x38 CMakeFiles/tube-client.dir/copro-opc5ls.c.obj
                0x000000000e459454                copro_opc5ls_write
 .text.copro_opc5ls_read
                0x000000000e45948c       0x40 CMakeFiles/tube-client.dir/copro-opc5ls.c.obj
                0x000000000e45948c                copro_opc5ls_read
 .text.copro_opc5ls_emulator
                0x000000000e4594cc       0xa4 CMakeFiles/tube-client.dir/copro-opc5ls.c.obj
                0x000000000e4594cc                copro_opc5ls_emulator
 .text.opc5ls_execute
                0x000000000e459570      0x388 CMakeFiles/tube-client.dir/opc5ls/opc5ls.c.obj
                0x000000000e459570                opc5ls_execute
 .text.opc5ls_reset
                0x000000000e4598f8       0x34 CMakeFiles/tube-client.dir/opc5ls/opc5ls.c.obj
                0x000000000e4598f8                opc5ls_reset
 .text.opc5ls_irq
                0x000000000e45992c       0x38 CMakeFiles/tube-client.dir/opc5ls/opc5ls.c.obj
                0x000000000e45992c                opc5ls_irq
 .text.opc5ls_init
                0x000000000e459964       0x18 CMakeFiles/tube-client.dir/opc5ls/opc5ls.c.obj
                0x000000000e459964                opc5ls_init
 .text.copro_opc6_write_mem
                0x000000000e45997c       0x18 CMakeFiles/tube-client.dir/copro-opc6.c.obj
                0x000000000e45997c                copro_opc6_write_mem
 .text.copro_opc6_read_mem
                0x000000000e459994       0x18 CMakeFiles/tube-client.dir/copro-opc6.c.obj
                0x000000000e459994                copro_opc6_read_mem
 .text.copro_opc6_write_io
                0x000000000e4599ac       0x20 CMakeFiles/tube-client.dir/copro-opc6.c.obj
                0x000000000e4599ac                copro_opc6_write_io
 .text.copro_opc6_read_io
                0x000000000e4599cc       0x30 CMakeFiles/tube-client.dir/copro-opc6.c.obj
                0x000000000e4599cc                copro_opc6_read_io
 .text.copro_opc6_emulator
                0x000000000e4599fc       0xac CMakeFiles/tube-client.dir/copro-opc6.c.obj
                0x000000000e4599fc                copro_opc6_emulator
 .text.opc6_execute
                0x000000000e459aa8      0x4ec CMakeFiles/tube-client.dir/opc6/opc6.c.obj
                0x000000000e459aa8                opc6_execute
 .text.opc6_reset
                0x000000000e459f94       0x34 CMakeFiles/tube-client.dir/opc6/opc6.c.obj
                0x000000000e459f94                opc6_reset
 .text.opc6_irq
                0x000000000e459fc8       0x3c CMakeFiles/tube-client.dir/opc6/opc6.c.obj
                0x000000000e459fc8                opc6_irq
 .text.opc6_init
                0x000000000e45a004       0x1c CMakeFiles/tube-client.dir/opc6/opc6.c.obj
                0x000000000e45a004                opc6_init
 .text.copro_opc7_write_mem
                0x000000000e45a020       0x18 CMakeFiles/tube-client.dir/copro-opc7.c.obj
                0x000000000e45a020                copro_opc7_write_mem
 .text.copro_opc7_read_mem
                0x000000000e45a038       0x18 CMakeFiles/tube-client.dir/copro-opc7.c.obj
                0x000000000e45a038                copro_opc7_read_mem
 .text.copro_opc7_write_io
                0x000000000e45a050       0x20 CMakeFiles/tube-client.dir/copro-opc7.c.obj
                0x000000000e45a050                copro_opc7_write_io
 .text.copro_opc7_read_io
                0x000000000e45a070       0x2c CMakeFiles/tube-client.dir/copro-opc7.c.obj
                0x000000000e45a070                copro_opc7_read_io
 .text.copro_opc7_emulator
                0x000000000e45a09c       0xa8 CMakeFiles/tube-client.dir/copro-opc7.c.obj
                0x000000000e45a09c                copro_opc7_emulator
 .text.opc7_execute
                0x000000000e45a144      0x458 CMakeFiles/tube-client.dir/opc7/opc7.c.obj
                0x000000000e45a144                opc7_execute
 .text.opc7_reset
                0x000000000e45a59c       0x44 CMakeFiles/tube-client.dir/opc7/opc7.c.obj
                0x000000000e45a59c                opc7_reset
 .text.opc7_irq
                0x000000000e45a5e0       0x3c CMakeFiles/tube-client.dir/opc7/opc7.c.obj
                0x000000000e45a5e0                opc7_irq
 .text.opc7_init
                0x000000000e45a61c       0x14 CMakeFiles/tube-client.dir/opc7/opc7.c.obj
                0x000000000e45a61c                opc7_init
 .text.copro_f100_write_mem
                0x000000000e45a630       0x38 CMakeFiles/tube-client.dir/copro-f100.c.obj
                0x000000000e45a630                copro_f100_write_mem
 .text.copro_f100_read_mem
                0x000000000e45a668       0x40 CMakeFiles/tube-client.dir/copro-f100.c.obj
                0x000000000e45a668                copro_f100_read_mem
 .text.copro_f100_emulator
                0x000000000e45a6a8       0xc4 CMakeFiles/tube-client.dir/copro-f100.c.obj
                0x000000000e45a6a8                copro_f100_emulator
 .text.f100_init
                0x000000000e45a76c       0x1c CMakeFiles/tube-client.dir/f100/f100.c.obj
                0x000000000e45a76c                f100_init
 .text.f100_irq
                0x000000000e45a788       0x9c CMakeFiles/tube-client.dir/f100/f100.c.obj
                0x000000000e45a788                f100_irq
 .text.f100_reset
                0x000000000e45a824       0x28 CMakeFiles/tube-client.dir/f100/f100.c.obj
                0x000000000e45a824                f100_reset
 .text.f100_execute
                0x000000000e45a84c      0x92c CMakeFiles/tube-client.dir/f100/f100.c.obj
                0x000000000e45a84c                f100_execute
 .text.pack_flags
                0x000000000e45b178       0x68 CMakeFiles/tube-client.dir/65816/65816.c.obj
 .text.adc16    0x000000000e45b1e0      0x138 CMakeFiles/tube-client.dir/65816/65816.c.obj
 .text.nop      0x000000000e45b318       0x18 CMakeFiles/tube-client.dir/65816/65816.c.obj
 .text.stp      0x000000000e45b330       0x2c CMakeFiles/tube-client.dir/65816/65816.c.obj
 .text.updatecpumode
                0x000000000e45b35c       0x90 CMakeFiles/tube-client.dir/65816/65816.c.obj
 .text.do_readmem65816
                0x000000000e45b3ec      0x164 CMakeFiles/tube-client.dir/65816/65816.c.obj
 .text.rtlE     0x000000000e45b550       0xc4 CMakeFiles/tube-client.dir/65816/65816.c.obj
 .text.rtsE     0x000000000e45b614       0x88 CMakeFiles/tube-client.dir/65816/65816.c.obj
 .text.rtiE     0x000000000e45b69c       0xec CMakeFiles/tube-client.dir/65816/65816.c.obj
 .text.zeropage
                0x000000000e45b788       0x6c CMakeFiles/tube-client.dir/65816/65816.c.obj
 .text.zeropagex
                0x000000000e45b7f4       0x90 CMakeFiles/tube-client.dir/65816/65816.c.obj
 .text.beq      0x000000000e45b884       0x70 CMakeFiles/tube-client.dir/65816/65816.c.obj
 .text.cpxZp8   0x000000000e45b8f4       0x68 CMakeFiles/tube-client.dir/65816/65816.c.obj
 .text.sep      0x000000000e45b95c       0xc0 CMakeFiles/tube-client.dir/65816/65816.c.obj
 .text.cpxImm8  0x000000000e45ba1c       0x88 CMakeFiles/tube-client.dir/65816/65816.c.obj
 .text.cmpZpx8  0x000000000e45baa4       0x68 CMakeFiles/tube-client.dir/65816/65816.c.obj
 .text.bne      0x000000000e45bb0c       0x70 CMakeFiles/tube-client.dir/65816/65816.c.obj
 .text.cmpImm8  0x000000000e45bb7c       0x88 CMakeFiles/tube-client.dir/65816/65816.c.obj
 .text.cmpZp8   0x000000000e45bc04       0x68 CMakeFiles/tube-client.dir/65816/65816.c.obj
 .text.cpyZp8   0x000000000e45bc6c       0x68 CMakeFiles/tube-client.dir/65816/65816.c.obj
 .text.cmpSp8   0x000000000e45bcd4       0xb0 CMakeFiles/tube-client.dir/65816/65816.c.obj
 .text.rep65816
                0x000000000e45bd84       0xbc CMakeFiles/tube-client.dir/65816/65816.c.obj
 .text.cpyImm8  0x000000000e45be40       0x88 CMakeFiles/tube-client.dir/65816/65816.c.obj
 .text.ldxZpy8  0x000000000e45bec8       0xc4 CMakeFiles/tube-client.dir/65816/65816.c.obj
 .text.ldaZpx8  0x000000000e45bf8c       0x50 CMakeFiles/tube-client.dir/65816/65816.c.obj
 .text.ldyZpx8  0x000000000e45bfdc       0x50 CMakeFiles/tube-client.dir/65816/65816.c.obj
 .text.bcs      0x000000000e45c02c       0x70 CMakeFiles/tube-client.dir/65816/65816.c.obj
 .text.ldaImm8  0x000000000e45c09c       0x74 CMakeFiles/tube-client.dir/65816/65816.c.obj
 .text.ldxZp8   0x000000000e45c110       0x50 CMakeFiles/tube-client.dir/65816/65816.c.obj
 .text.ldaZp8   0x000000000e45c160       0x50 CMakeFiles/tube-client.dir/65816/65816.c.obj
 .text.ldyZp8   0x000000000e45c1b0       0x50 CMakeFiles/tube-client.dir/65816/65816.c.obj
 .text.ldxImm8  0x000000000e45c200       0x74 CMakeFiles/tube-client.dir/65816/65816.c.obj
 .text.ldyImm8  0x000000000e45c274       0x74 CMakeFiles/tube-client.dir/65816/65816.c.obj
 .text.bcc      0x000000000e45c2e8       0x70 CMakeFiles/tube-client.dir/65816/65816.c.obj
 .text.bitImm8  0x000000000e45c358       0x68 CMakeFiles/tube-client.dir/65816/65816.c.obj
 .text.bra      0x000000000e45c3c0       0x54 CMakeFiles/tube-client.dir/65816/65816.c.obj
 .text.bvs      0x000000000e45c414       0x70 CMakeFiles/tube-client.dir/65816/65816.c.obj
 .text.eorZpx8  0x000000000e45c484       0x5c CMakeFiles/tube-client.dir/65816/65816.c.obj
 .text.bvc      0x000000000e45c4e0       0x70 CMakeFiles/tube-client.dir/65816/65816.c.obj
 .text.eorImm8  0x000000000e45c550       0x80 CMakeFiles/tube-client.dir/65816/65816.c.obj
 .text.eorZp8   0x000000000e45c5d0       0x5c CMakeFiles/tube-client.dir/65816/65816.c.obj
 .text.rti      0x000000000e45c62c      0x128 CMakeFiles/tube-client.dir/65816/65816.c.obj
 .text.andZpx8  0x000000000e45c754       0x54 CMakeFiles/tube-client.dir/65816/65816.c.obj
 .text.bitZpx8  0x000000000e45c7a8       0x58 CMakeFiles/tube-client.dir/65816/65816.c.obj
 .text.bmi      0x000000000e45c800       0x70 CMakeFiles/tube-client.dir/65816/65816.c.obj
 .text.andImm8  0x000000000e45c870       0x74 CMakeFiles/tube-client.dir/65816/65816.c.obj
 .text.andZp8   0x000000000e45c8e4       0x54 CMakeFiles/tube-client.dir/65816/65816.c.obj
 .text.bitZp8   0x000000000e45c938       0x58 CMakeFiles/tube-client.dir/65816/65816.c.obj
 .text.oraZpx8  0x000000000e45c990       0x58 CMakeFiles/tube-client.dir/65816/65816.c.obj
 .text.bpl      0x000000000e45c9e8       0x70 CMakeFiles/tube-client.dir/65816/65816.c.obj
 .text.oraImm8  0x000000000e45ca58       0x78 CMakeFiles/tube-client.dir/65816/65816.c.obj
 .text.oraZp8   0x000000000e45cad0       0x58 CMakeFiles/tube-client.dir/65816/65816.c.obj
 .text.readmemw65816
                0x000000000e45cb28       0x34 CMakeFiles/tube-client.dir/65816/65816.c.obj
 .text.cpxZp16  0x000000000e45cb5c       0x50 CMakeFiles/tube-client.dir/65816/65816.c.obj
 .text.cpxImm16
                0x000000000e45cbac       0x74 CMakeFiles/tube-client.dir/65816/65816.c.obj
 .text.cpyZp16  0x000000000e45cc20       0x50 CMakeFiles/tube-client.dir/65816/65816.c.obj
 .text.cpyImm16
                0x000000000e45cc70       0x74 CMakeFiles/tube-client.dir/65816/65816.c.obj
 .text.absolutey
                0x000000000e45cce4       0x90 CMakeFiles/tube-client.dir/65816/65816.c.obj
 .text.ldxAbsy16
                0x000000000e45cd74       0x38 CMakeFiles/tube-client.dir/65816/65816.c.obj
 .text.absolutex
                0x000000000e45cdac       0x90 CMakeFiles/tube-client.dir/65816/65816.c.obj
 .text.ldyAbsx16
                0x000000000e45ce3c       0x38 CMakeFiles/tube-client.dir/65816/65816.c.obj
 .text.ldyZpx16
                0x000000000e45ce74       0x38 CMakeFiles/tube-client.dir/65816/65816.c.obj
 .text.ldxZp16  0x000000000e45ceac       0x38 CMakeFiles/tube-client.dir/65816/65816.c.obj
 .text.ldyZp16  0x000000000e45cee4       0x38 CMakeFiles/tube-client.dir/65816/65816.c.obj
 .text.ldxImm16
                0x000000000e45cf1c       0x5c CMakeFiles/tube-client.dir/65816/65816.c.obj
 .text.ldyImm16
                0x000000000e45cf78       0x5c CMakeFiles/tube-client.dir/65816/65816.c.obj
 .text.cmpAbsx16
                0x000000000e45cfd4       0x50 CMakeFiles/tube-client.dir/65816/65816.c.obj
 .text.cmpAbsy16
                0x000000000e45d024       0x50 CMakeFiles/tube-client.dir/65816/65816.c.obj
 .text.cmpZpx16
                0x000000000e45d074       0x50 CMakeFiles/tube-client.dir/65816/65816.c.obj
 .text.cmpImm16
                0x000000000e45d0c4       0x74 CMakeFiles/tube-client.dir/65816/65816.c.obj
 .text.cmpZp16  0x000000000e45d138       0x50 CMakeFiles/tube-client.dir/65816/65816.c.obj
 .text.ldaAbsx16
                0x000000000e45d188       0x38 CMakeFiles/tube-client.dir/65816/65816.c.obj
 .text.ldaAbsy16
                0x000000000e45d1c0       0x38 CMakeFiles/tube-client.dir/65816/65816.c.obj
 .text.ldaZpx16
                0x000000000e45d1f8       0x38 CMakeFiles/tube-client.dir/65816/65816.c.obj
 .text.ldaImm16
                0x000000000e45d230       0x5c CMakeFiles/tube-client.dir/65816/65816.c.obj
 .text.ldaZp16  0x000000000e45d28c       0x38 CMakeFiles/tube-client.dir/65816/65816.c.obj
 .text.bitImm16
                0x000000000e45d2c4       0x58 CMakeFiles/tube-client.dir/65816/65816.c.obj
 .text.adcAbsx16
                0x000000000e45d31c       0x14 CMakeFiles/tube-client.dir/65816/65816.c.obj
 .text.adcAbsy16
                0x000000000e45d330       0x14 CMakeFiles/tube-client.dir/65816/65816.c.obj
 .text.adcZpx16
                0x000000000e45d344       0x14 CMakeFiles/tube-client.dir/65816/65816.c.obj
 .text.adcImm16
                0x000000000e45d358       0x38 CMakeFiles/tube-client.dir/65816/65816.c.obj
 .text.adcZp16  0x000000000e45d390       0x14 CMakeFiles/tube-client.dir/65816/65816.c.obj
 .text.eorAbsx16
                0x000000000e45d3a4       0x48 CMakeFiles/tube-client.dir/65816/65816.c.obj
 .text.eorAbsy16
                0x000000000e45d3ec       0x48 CMakeFiles/tube-client.dir/65816/65816.c.obj
 .text.eorZpx16
                0x000000000e45d434       0x48 CMakeFiles/tube-client.dir/65816/65816.c.obj
 .text.eorImm16
                0x000000000e45d47c       0x6c CMakeFiles/tube-client.dir/65816/65816.c.obj
 .text.eorZp16  0x000000000e45d4e8       0x48 CMakeFiles/tube-client.dir/65816/65816.c.obj
 .text.andAbsx16
                0x000000000e45d530       0x40 CMakeFiles/tube-client.dir/65816/65816.c.obj
 .text.bitAbsx16
                0x000000000e45d570       0x44 CMakeFiles/tube-client.dir/65816/65816.c.obj
 .text.andAbsy16
                0x000000000e45d5b4       0x40 CMakeFiles/tube-client.dir/65816/65816.c.obj
 .text.andZpx16
                0x000000000e45d5f4       0x40 CMakeFiles/tube-client.dir/65816/65816.c.obj
 .text.bitZpx16
                0x000000000e45d634       0x44 CMakeFiles/tube-client.dir/65816/65816.c.obj
 .text.andImm16
                0x000000000e45d678       0x64 CMakeFiles/tube-client.dir/65816/65816.c.obj
 .text.andZp16  0x000000000e45d6dc       0x40 CMakeFiles/tube-client.dir/65816/65816.c.obj
 .text.bitZp16  0x000000000e45d71c       0x44 CMakeFiles/tube-client.dir/65816/65816.c.obj
 .text.oraAbsx16
                0x000000000e45d760       0x44 CMakeFiles/tube-client.dir/65816/65816.c.obj
 .text.oraAbsy16
                0x000000000e45d7a4       0x44 CMakeFiles/tube-client.dir/65816/65816.c.obj
 .text.oraZpx16
                0x000000000e45d7e8       0x44 CMakeFiles/tube-client.dir/65816/65816.c.obj
 .text.oraImm16
                0x000000000e45d82c       0x68 CMakeFiles/tube-client.dir/65816/65816.c.obj
 .text.oraZp16  0x000000000e45d894       0x44 CMakeFiles/tube-client.dir/65816/65816.c.obj
 .text.brl      0x000000000e45d8d8       0x4c CMakeFiles/tube-client.dir/65816/65816.c.obj
 .text.jmpindx  0x000000000e45d924       0x48 CMakeFiles/tube-client.dir/65816/65816.c.obj
 .text.jmpind   0x000000000e45d96c       0x30 CMakeFiles/tube-client.dir/65816/65816.c.obj
 .text.rts      0x000000000e45d99c       0x4c CMakeFiles/tube-client.dir/65816/65816.c.obj
 .text.jmp      0x000000000e45d9e8       0x2c CMakeFiles/tube-client.dir/65816/65816.c.obj
 .text.indirectyE
                0x000000000e45da14      0x110 CMakeFiles/tube-client.dir/65816/65816.c.obj
 .text.cmpIndirectyE
                0x000000000e45db24       0x68 CMakeFiles/tube-client.dir/65816/65816.c.obj
 .text.ldaIndirectyE
                0x000000000e45db8c       0x50 CMakeFiles/tube-client.dir/65816/65816.c.obj
 .text.eorIndirectyE
                0x000000000e45dbdc       0x5c CMakeFiles/tube-client.dir/65816/65816.c.obj
 .text.andIndirectyE
                0x000000000e45dc38       0x54 CMakeFiles/tube-client.dir/65816/65816.c.obj
 .text.oraIndirectyE
                0x000000000e45dc8c       0x58 CMakeFiles/tube-client.dir/65816/65816.c.obj
 .text.cmpIndirectxE
                0x000000000e45dce4       0xd0 CMakeFiles/tube-client.dir/65816/65816.c.obj
 .text.cmpAbsy8
                0x000000000e45ddb4       0x68 CMakeFiles/tube-client.dir/65816/65816.c.obj
 .text.ldxAbsy8
                0x000000000e45de1c       0x50 CMakeFiles/tube-client.dir/65816/65816.c.obj
 .text.ldaAbsy8
                0x000000000e45de6c       0x50 CMakeFiles/tube-client.dir/65816/65816.c.obj
 .text.eorAbsy8
                0x000000000e45debc       0x5c CMakeFiles/tube-client.dir/65816/65816.c.obj
 .text.andAbsy8
                0x000000000e45df18       0x54 CMakeFiles/tube-client.dir/65816/65816.c.obj
 .text.oraAbsy8
                0x000000000e45df6c       0x58 CMakeFiles/tube-client.dir/65816/65816.c.obj
 .text.cmpAbsx8
                0x000000000e45dfc4       0x68 CMakeFiles/tube-client.dir/65816/65816.c.obj
 .text.ldaAbsx8
                0x000000000e45e02c       0x50 CMakeFiles/tube-client.dir/65816/65816.c.obj
 .text.ldyAbsx8
                0x000000000e45e07c       0x50 CMakeFiles/tube-client.dir/65816/65816.c.obj
 .text.eorAbsx8
                0x000000000e45e0cc       0x5c CMakeFiles/tube-client.dir/65816/65816.c.obj
 .text.andAbsx8
                0x000000000e45e128       0x54 CMakeFiles/tube-client.dir/65816/65816.c.obj
 .text.bitAbsx8
                0x000000000e45e17c       0x58 CMakeFiles/tube-client.dir/65816/65816.c.obj
 .text.oraAbsx8
                0x000000000e45e1d4       0x58 CMakeFiles/tube-client.dir/65816/65816.c.obj
 .text.absolutelongx
                0x000000000e45e22c       0x84 CMakeFiles/tube-client.dir/65816/65816.c.obj
 .text.cmpLongx16
                0x000000000e45e2b0       0x50 CMakeFiles/tube-client.dir/65816/65816.c.obj
 .text.ldaLongx16
                0x000000000e45e300       0x38 CMakeFiles/tube-client.dir/65816/65816.c.obj
 .text.adcLongx16
                0x000000000e45e338       0x14 CMakeFiles/tube-client.dir/65816/65816.c.obj
 .text.eorLongx16
                0x000000000e45e34c       0x48 CMakeFiles/tube-client.dir/65816/65816.c.obj
 .text.andLongx16
                0x000000000e45e394       0x40 CMakeFiles/tube-client.dir/65816/65816.c.obj
 .text.oraLongx16
                0x000000000e45e3d4       0x44 CMakeFiles/tube-client.dir/65816/65816.c.obj
 .text.cmpLongx8
                0x000000000e45e418       0x68 CMakeFiles/tube-client.dir/65816/65816.c.obj
 .text.ldaLongx8
                0x000000000e45e480       0x50 CMakeFiles/tube-client.dir/65816/65816.c.obj
 .text.eorLongx8
                0x000000000e45e4d0       0x5c CMakeFiles/tube-client.dir/65816/65816.c.obj
 .text.andLongx8
                0x000000000e45e52c       0x54 CMakeFiles/tube-client.dir/65816/65816.c.obj
 .text.oraLongx8
                0x000000000e45e580       0x58 CMakeFiles/tube-client.dir/65816/65816.c.obj
 .text.indirectly
                0x000000000e45e5d8       0x9c CMakeFiles/tube-client.dir/65816/65816.c.obj
 .text.cmpIndirectLongy16
                0x000000000e45e674       0x50 CMakeFiles/tube-client.dir/65816/65816.c.obj
 .text.ldaIndirectLongy16
                0x000000000e45e6c4       0x38 CMakeFiles/tube-client.dir/65816/65816.c.obj
 .text.adcIndirectLongy16
                0x000000000e45e6fc       0x14 CMakeFiles/tube-client.dir/65816/65816.c.obj
 .text.eorIndirectLongy16
                0x000000000e45e710       0x48 CMakeFiles/tube-client.dir/65816/65816.c.obj
 .text.andIndirectLongy16
                0x000000000e45e758       0x40 CMakeFiles/tube-client.dir/65816/65816.c.obj
 .text.oraIndirectLongy16
                0x000000000e45e798       0x44 CMakeFiles/tube-client.dir/65816/65816.c.obj
 .text.cmpIndirectLongy8
                0x000000000e45e7dc       0x68 CMakeFiles/tube-client.dir/65816/65816.c.obj
 .text.ldaIndirectLongy8
                0x000000000e45e844       0x50 CMakeFiles/tube-client.dir/65816/65816.c.obj
 .text.eorIndirectLongy8
                0x000000000e45e894       0x5c CMakeFiles/tube-client.dir/65816/65816.c.obj
 .text.andIndirectLongy8
                0x000000000e45e8f0       0x54 CMakeFiles/tube-client.dir/65816/65816.c.obj
 .text.oraIndirectLongy8
                0x000000000e45e944       0x58 CMakeFiles/tube-client.dir/65816/65816.c.obj
 .text.sindirecty
                0x000000000e45e99c       0x80 CMakeFiles/tube-client.dir/65816/65816.c.obj
 .text.cmpsIndirecty16
                0x000000000e45ea1c       0x50 CMakeFiles/tube-client.dir/65816/65816.c.obj
 .text.ldaSIndirecty16
                0x000000000e45ea6c       0x38 CMakeFiles/tube-client.dir/65816/65816.c.obj
 .text.adcsIndirecty16
                0x000000000e45eaa4       0x14 CMakeFiles/tube-client.dir/65816/65816.c.obj
 .text.eorsIndirecty16
                0x000000000e45eab8       0x48 CMakeFiles/tube-client.dir/65816/65816.c.obj
 .text.andsIndirecty16
                0x000000000e45eb00       0x40 CMakeFiles/tube-client.dir/65816/65816.c.obj
 .text.orasIndirecty16
                0x000000000e45eb40       0x44 CMakeFiles/tube-client.dir/65816/65816.c.obj
 .text.cmpsIndirecty8
                0x000000000e45eb84       0x68 CMakeFiles/tube-client.dir/65816/65816.c.obj
 .text.ldaSIndirecty8
                0x000000000e45ebec       0x50 CMakeFiles/tube-client.dir/65816/65816.c.obj
 .text.eorsIndirecty8
                0x000000000e45ec3c       0x5c CMakeFiles/tube-client.dir/65816/65816.c.obj
 .text.andsIndirecty8
                0x000000000e45ec98       0x54 CMakeFiles/tube-client.dir/65816/65816.c.obj
 .text.orasIndirecty8
                0x000000000e45ecec       0x58 CMakeFiles/tube-client.dir/65816/65816.c.obj
 .text.indirect
                0x000000000e45ed44       0x70 CMakeFiles/tube-client.dir/65816/65816.c.obj
 .text.cmpIndirect16
                0x000000000e45edb4       0x50 CMakeFiles/tube-client.dir/65816/65816.c.obj
 .text.ldaIndirect16
                0x000000000e45ee04       0x38 CMakeFiles/tube-client.dir/65816/65816.c.obj
 .text.adcIndirect16
                0x000000000e45ee3c       0x14 CMakeFiles/tube-client.dir/65816/65816.c.obj
 .text.eorIndirect16
                0x000000000e45ee50       0x48 CMakeFiles/tube-client.dir/65816/65816.c.obj
 .text.andIndirect16
                0x000000000e45ee98       0x40 CMakeFiles/tube-client.dir/65816/65816.c.obj
 .text.oraIndirect16
                0x000000000e45eed8       0x44 CMakeFiles/tube-client.dir/65816/65816.c.obj
 .text.cmpIndirect8
                0x000000000e45ef1c       0x68 CMakeFiles/tube-client.dir/65816/65816.c.obj
 .text.ldaIndirect8
                0x000000000e45ef84       0x50 CMakeFiles/tube-client.dir/65816/65816.c.obj
 .text.eorIndirect8
                0x000000000e45efd4       0x5c CMakeFiles/tube-client.dir/65816/65816.c.obj
 .text.andIndirect8
                0x000000000e45f030       0x54 CMakeFiles/tube-client.dir/65816/65816.c.obj
 .text.oraIndirect8
                0x000000000e45f084       0x58 CMakeFiles/tube-client.dir/65816/65816.c.obj
 .text.indirecty
                0x000000000e45f0dc       0x7c CMakeFiles/tube-client.dir/65816/65816.c.obj
 .text.cmpIndirecty16
                0x000000000e45f158       0x50 CMakeFiles/tube-client.dir/65816/65816.c.obj
 .text.ldaIndirecty16
                0x000000000e45f1a8       0x38 CMakeFiles/tube-client.dir/65816/65816.c.obj
 .text.adcIndirecty16
                0x000000000e45f1e0       0x14 CMakeFiles/tube-client.dir/65816/65816.c.obj
 .text.eorIndirecty16
                0x000000000e45f1f4       0x48 CMakeFiles/tube-client.dir/65816/65816.c.obj
 .text.andIndirecty16
                0x000000000e45f23c       0x40 CMakeFiles/tube-client.dir/65816/65816.c.obj
 .text.oraIndirecty16
                0x000000000e45f27c       0x44 CMakeFiles/tube-client.dir/65816/65816.c.obj
 .text.cmpIndirecty8
                0x000000000e45f2c0       0x68 CMakeFiles/tube-client.dir/65816/65816.c.obj
 .text.ldaIndirecty8
                0x000000000e45f328       0x50 CMakeFiles/tube-client.dir/65816/65816.c.obj
 .text.eorIndirecty8
                0x000000000e45f378       0x5c CMakeFiles/tube-client.dir/65816/65816.c.obj
 .text.andIndirecty8
                0x000000000e45f3d4       0x54 CMakeFiles/tube-client.dir/65816/65816.c.obj
 .text.oraIndirecty8
                0x000000000e45f428       0x58 CMakeFiles/tube-client.dir/65816/65816.c.obj
 .text.absolutelong
                0x000000000e45f480       0x74 CMakeFiles/tube-client.dir/65816/65816.c.obj
 .text.cmpLong16
                0x000000000e45f4f4       0x50 CMakeFiles/tube-client.dir/65816/65816.c.obj
 .text.ldaLong16
                0x000000000e45f544       0x38 CMakeFiles/tube-client.dir/65816/65816.c.obj
 .text.adcLong16
                0x000000000e45f57c       0x14 CMakeFiles/tube-client.dir/65816/65816.c.obj
 .text.eorLong16
                0x000000000e45f590       0x48 CMakeFiles/tube-client.dir/65816/65816.c.obj
 .text.andLong16
                0x000000000e45f5d8       0x40 CMakeFiles/tube-client.dir/65816/65816.c.obj
 .text.oraLong16
                0x000000000e45f618       0x44 CMakeFiles/tube-client.dir/65816/65816.c.obj
 .text.cmpLong8
                0x000000000e45f65c       0x68 CMakeFiles/tube-client.dir/65816/65816.c.obj
 .text.ldaLong8
                0x000000000e45f6c4       0x50 CMakeFiles/tube-client.dir/65816/65816.c.obj
 .text.eorLong8
                0x000000000e45f714       0x5c CMakeFiles/tube-client.dir/65816/65816.c.obj
 .text.andLong8
                0x000000000e45f770       0x54 CMakeFiles/tube-client.dir/65816/65816.c.obj
 .text.oraLong8
                0x000000000e45f7c4       0x58 CMakeFiles/tube-client.dir/65816/65816.c.obj
 .text.indirectl
                0x000000000e45f81c       0x8c CMakeFiles/tube-client.dir/65816/65816.c.obj
 .text.cmpIndirectLong16
                0x000000000e45f8a8       0x50 CMakeFiles/tube-client.dir/65816/65816.c.obj
 .text.ldaIndirectLong16
                0x000000000e45f8f8       0x38 CMakeFiles/tube-client.dir/65816/65816.c.obj
 .text.adcIndirectLong16
                0x000000000e45f930       0x14 CMakeFiles/tube-client.dir/65816/65816.c.obj
 .text.eorIndirectLong16
                0x000000000e45f944       0x48 CMakeFiles/tube-client.dir/65816/65816.c.obj
 .text.andIndirectLong16
                0x000000000e45f98c       0x40 CMakeFiles/tube-client.dir/65816/65816.c.obj
 .text.oraIndirectLong16
                0x000000000e45f9cc       0x44 CMakeFiles/tube-client.dir/65816/65816.c.obj
 .text.cmpIndirectLong8
                0x000000000e45fa10       0x68 CMakeFiles/tube-client.dir/65816/65816.c.obj
 .text.ldaIndirectLong8
                0x000000000e45fa78       0x50 CMakeFiles/tube-client.dir/65816/65816.c.obj
 .text.eorIndirectLong8
                0x000000000e45fac8       0x5c CMakeFiles/tube-client.dir/65816/65816.c.obj
 .text.andIndirectLong8
                0x000000000e45fb24       0x54 CMakeFiles/tube-client.dir/65816/65816.c.obj
 .text.oraIndirectLong8
                0x000000000e45fb78       0x58 CMakeFiles/tube-client.dir/65816/65816.c.obj
 .text.indirectx
                0x000000000e45fbd0       0x7c CMakeFiles/tube-client.dir/65816/65816.c.obj
 .text.cmpIndirectx16
                0x000000000e45fc4c       0x50 CMakeFiles/tube-client.dir/65816/65816.c.obj
 .text.ldaIndirectx16
                0x000000000e45fc9c       0x38 CMakeFiles/tube-client.dir/65816/65816.c.obj
 .text.adcIndirectx16
                0x000000000e45fcd4       0x14 CMakeFiles/tube-client.dir/65816/65816.c.obj
 .text.eorIndirectx16
                0x000000000e45fce8       0x48 CMakeFiles/tube-client.dir/65816/65816.c.obj
 .text.andIndirectx16
                0x000000000e45fd30       0x40 CMakeFiles/tube-client.dir/65816/65816.c.obj
 .text.oraIndirectx16
                0x000000000e45fd70       0x44 CMakeFiles/tube-client.dir/65816/65816.c.obj
 .text.cmpIndirectx8
                0x000000000e45fdb4       0x68 CMakeFiles/tube-client.dir/65816/65816.c.obj
 .text.ldaIndirectx8
                0x000000000e45fe1c       0x50 CMakeFiles/tube-client.dir/65816/65816.c.obj
 .text.eorIndirectx8
                0x000000000e45fe6c       0x5c CMakeFiles/tube-client.dir/65816/65816.c.obj
 .text.andIndirectx8
                0x000000000e45fec8       0x54 CMakeFiles/tube-client.dir/65816/65816.c.obj
 .text.oraIndirectx8
                0x000000000e45ff1c       0x58 CMakeFiles/tube-client.dir/65816/65816.c.obj
 .text.jmlind   0x000000000e45ff74       0x60 CMakeFiles/tube-client.dir/65816/65816.c.obj
 .text.rtl      0x000000000e45ffd4       0x8c CMakeFiles/tube-client.dir/65816/65816.c.obj
 .text.jmplong  0x000000000e460060       0x6c CMakeFiles/tube-client.dir/65816/65816.c.obj
 .text.do_writemem65816
                0x000000000e4600cc      0x204 CMakeFiles/tube-client.dir/65816/65816.c.obj
 .text.jsrIndxE
                0x000000000e4602d0       0xe4 CMakeFiles/tube-client.dir/65816/65816.c.obj
 .text.staIndirectyE
                0x000000000e4603b4       0x30 CMakeFiles/tube-client.dir/65816/65816.c.obj
 .text.jslE     0x000000000e4603e4       0xdc CMakeFiles/tube-client.dir/65816/65816.c.obj
 .text.incAbsx8
                0x000000000e4604c0       0x54 CMakeFiles/tube-client.dir/65816/65816.c.obj
 .text.incZpx8  0x000000000e460514       0x54 CMakeFiles/tube-client.dir/65816/65816.c.obj
 .text.pea      0x000000000e460568       0x90 CMakeFiles/tube-client.dir/65816/65816.c.obj
 .text.incZp8   0x000000000e4605f8       0x54 CMakeFiles/tube-client.dir/65816/65816.c.obj
 .text.decAbsx8
                0x000000000e46064c       0x54 CMakeFiles/tube-client.dir/65816/65816.c.obj
 .text.decZpx8  0x000000000e4606a0       0x54 CMakeFiles/tube-client.dir/65816/65816.c.obj
 .text.pei      0x000000000e4606f4       0x68 CMakeFiles/tube-client.dir/65816/65816.c.obj
 .text.decZp8   0x000000000e46075c       0x54 CMakeFiles/tube-client.dir/65816/65816.c.obj
 .text.staLongx8
                0x000000000e4607b0       0x30 CMakeFiles/tube-client.dir/65816/65816.c.obj
 .text.stzAbsx8
                0x000000000e4607e0       0x28 CMakeFiles/tube-client.dir/65816/65816.c.obj
 .text.staAbsx8
                0x000000000e460808       0x30 CMakeFiles/tube-client.dir/65816/65816.c.obj
 .text.staAbsy8
                0x000000000e460838       0x30 CMakeFiles/tube-client.dir/65816/65816.c.obj
 .text.staIndirectLongy8
                0x000000000e460868       0x30 CMakeFiles/tube-client.dir/65816/65816.c.obj
 .text.staZpx8  0x000000000e460898       0x30 CMakeFiles/tube-client.dir/65816/65816.c.obj
 .text.styZpx8  0x000000000e4608c8       0x30 CMakeFiles/tube-client.dir/65816/65816.c.obj
 .text.staSIndirecty8
                0x000000000e4608f8       0x30 CMakeFiles/tube-client.dir/65816/65816.c.obj
 .text.staIndirect8
                0x000000000e460928       0x30 CMakeFiles/tube-client.dir/65816/65816.c.obj
 .text.staIndirecty8
                0x000000000e460958       0x30 CMakeFiles/tube-client.dir/65816/65816.c.obj
 .text.staLong8
                0x000000000e460988       0x30 CMakeFiles/tube-client.dir/65816/65816.c.obj
 .text.staIndirectLong8
                0x000000000e4609b8       0x30 CMakeFiles/tube-client.dir/65816/65816.c.obj
 .text.stxZp8   0x000000000e4609e8       0x30 CMakeFiles/tube-client.dir/65816/65816.c.obj
 .text.staZp8   0x000000000e460a18       0x30 CMakeFiles/tube-client.dir/65816/65816.c.obj
 .text.styZp8   0x000000000e460a48       0x30 CMakeFiles/tube-client.dir/65816/65816.c.obj
 .text.staIndirectx8
                0x000000000e460a78       0x30 CMakeFiles/tube-client.dir/65816/65816.c.obj
 .text.rorAbs8  0x000000000e460aa8       0xac CMakeFiles/tube-client.dir/65816/65816.c.obj
 .text.stzZpx8  0x000000000e460b54       0x28 CMakeFiles/tube-client.dir/65816/65816.c.obj
 .text.stzZp8   0x000000000e460b7c       0x28 CMakeFiles/tube-client.dir/65816/65816.c.obj
 .text.per      0x000000000e460ba4       0x94 CMakeFiles/tube-client.dir/65816/65816.c.obj
 .text.lsrAbsx8
                0x000000000e460c38       0x58 CMakeFiles/tube-client.dir/65816/65816.c.obj
 .text.lsrZpx8  0x000000000e460c90       0x58 CMakeFiles/tube-client.dir/65816/65816.c.obj
 .text.mvn      0x000000000e460ce8      0x118 CMakeFiles/tube-client.dir/65816/65816.c.obj
 .text.lsrZp8   0x000000000e460e00       0x58 CMakeFiles/tube-client.dir/65816/65816.c.obj
 .text.mvp      0x000000000e460e58      0x118 CMakeFiles/tube-client.dir/65816/65816.c.obj
 .text.rolZp8   0x000000000e460f70       0x78 CMakeFiles/tube-client.dir/65816/65816.c.obj
 .text.jsl      0x000000000e460fe8       0xdc CMakeFiles/tube-client.dir/65816/65816.c.obj
 .text.aslAbsx8
                0x000000000e4610c4       0x5c CMakeFiles/tube-client.dir/65816/65816.c.obj
 .text.trbZp8   0x000000000e461120       0x60 CMakeFiles/tube-client.dir/65816/65816.c.obj
 .text.aslZpx8  0x000000000e461180       0x5c CMakeFiles/tube-client.dir/65816/65816.c.obj
 .text.phd      0x000000000e4611dc       0x6c CMakeFiles/tube-client.dir/65816/65816.c.obj
 .text.aslZp8   0x000000000e461248       0x5c CMakeFiles/tube-client.dir/65816/65816.c.obj
 .text.writememw65816
                0x000000000e4612a4       0x44 CMakeFiles/tube-client.dir/65816/65816.c.obj
 .text.styZpx16
                0x000000000e4612e8       0x1c CMakeFiles/tube-client.dir/65816/65816.c.obj
 .text.stxZp16  0x000000000e461304       0x1c CMakeFiles/tube-client.dir/65816/65816.c.obj
 .text.styZp16  0x000000000e461320       0x1c CMakeFiles/tube-client.dir/65816/65816.c.obj
 .text.incAbsx16
                0x000000000e46133c       0x54 CMakeFiles/tube-client.dir/65816/65816.c.obj
 .text.incZpx16
                0x000000000e461390       0x54 CMakeFiles/tube-client.dir/65816/65816.c.obj
 .text.incZp16  0x000000000e4613e4       0x54 CMakeFiles/tube-client.dir/65816/65816.c.obj
 .text.decAbsx16
                0x000000000e461438       0x54 CMakeFiles/tube-client.dir/65816/65816.c.obj
 .text.decZpx16
                0x000000000e46148c       0x54 CMakeFiles/tube-client.dir/65816/65816.c.obj
 .text.decZp16  0x000000000e4614e0       0x54 CMakeFiles/tube-client.dir/65816/65816.c.obj
 .text.staLongx16
                0x000000000e461534       0x1c CMakeFiles/tube-client.dir/65816/65816.c.obj
 .text.stzAbsx16
                0x000000000e461550       0x14 CMakeFiles/tube-client.dir/65816/65816.c.obj
 .text.staAbsx16
                0x000000000e461564       0x1c CMakeFiles/tube-client.dir/65816/65816.c.obj
 .text.staAbsy16
                0x000000000e461580       0x1c CMakeFiles/tube-client.dir/65816/65816.c.obj
 .text.staIndirectLongy16
                0x000000000e46159c       0x1c CMakeFiles/tube-client.dir/65816/65816.c.obj
 .text.staZpx16
                0x000000000e4615b8       0x1c CMakeFiles/tube-client.dir/65816/65816.c.obj
 .text.staSIndirecty16
                0x000000000e4615d4       0x1c CMakeFiles/tube-client.dir/65816/65816.c.obj
 .text.staIndirecty16
                0x000000000e4615f0       0x1c CMakeFiles/tube-client.dir/65816/65816.c.obj
 .text.staLong16
                0x000000000e46160c       0x1c CMakeFiles/tube-client.dir/65816/65816.c.obj
 .text.staIndirectLong16
                0x000000000e461628       0x1c CMakeFiles/tube-client.dir/65816/65816.c.obj
 .text.staZp16  0x000000000e461644       0x1c CMakeFiles/tube-client.dir/65816/65816.c.obj
 .text.staIndirectx16
                0x000000000e461660       0x1c CMakeFiles/tube-client.dir/65816/65816.c.obj
 .text.stzZpx16
                0x000000000e46167c       0x14 CMakeFiles/tube-client.dir/65816/65816.c.obj
 .text.rorZp16  0x000000000e461690       0x68 CMakeFiles/tube-client.dir/65816/65816.c.obj
 .text.lsrAbsx16
                0x000000000e4616f8       0x58 CMakeFiles/tube-client.dir/65816/65816.c.obj
 .text.lsrZpx16
                0x000000000e461750       0x58 CMakeFiles/tube-client.dir/65816/65816.c.obj
 .text.lsrZp16  0x000000000e4617a8       0x58 CMakeFiles/tube-client.dir/65816/65816.c.obj
 .text.rolZp16  0x000000000e461800       0x6c CMakeFiles/tube-client.dir/65816/65816.c.obj
 .text.aslAbsx16
                0x000000000e46186c       0x5c CMakeFiles/tube-client.dir/65816/65816.c.obj
 .text.aslZpx16
                0x000000000e4618c8       0x5c CMakeFiles/tube-client.dir/65816/65816.c.obj
 .text.aslZp16  0x000000000e461924       0x5c CMakeFiles/tube-client.dir/65816/65816.c.obj
 .text.readmem65816.isra.0
                0x000000000e461980       0x20 CMakeFiles/tube-client.dir/65816/65816.c.obj
 .text.jsr      0x000000000e4619a0       0xa4 CMakeFiles/tube-client.dir/65816/65816.c.obj
 .text.pha8     0x000000000e461a44       0x64 CMakeFiles/tube-client.dir/65816/65816.c.obj
 .text.phaE     0x000000000e461aa8       0x24 CMakeFiles/tube-client.dir/65816/65816.c.obj
 .text.phk      0x000000000e461acc       0x5c CMakeFiles/tube-client.dir/65816/65816.c.obj
 .text.phy8     0x000000000e461b28       0x64 CMakeFiles/tube-client.dir/65816/65816.c.obj
 .text.phyE     0x000000000e461b8c       0x24 CMakeFiles/tube-client.dir/65816/65816.c.obj
 .text.phb      0x000000000e461bb0       0x64 CMakeFiles/tube-client.dir/65816/65816.c.obj
 .text.phx8     0x000000000e461c14       0x64 CMakeFiles/tube-client.dir/65816/65816.c.obj
 .text.phxE     0x000000000e461c78       0x24 CMakeFiles/tube-client.dir/65816/65816.c.obj
 .text.pha16    0x000000000e461c9c       0x88 CMakeFiles/tube-client.dir/65816/65816.c.obj
 .text.phy16    0x000000000e461d24       0x88 CMakeFiles/tube-client.dir/65816/65816.c.obj
 .text.phx16    0x000000000e461dac       0x88 CMakeFiles/tube-client.dir/65816/65816.c.obj
 .text.jsrE     0x000000000e461e34       0xa4 CMakeFiles/tube-client.dir/65816/65816.c.obj
 .text.phke     0x000000000e461ed8       0x5c CMakeFiles/tube-client.dir/65816/65816.c.obj
 .text.phbe     0x000000000e461f34       0x64 CMakeFiles/tube-client.dir/65816/65816.c.obj
 .text.asla8    0x000000000e461f98       0x64 CMakeFiles/tube-client.dir/65816/65816.c.obj
 .text.inca8    0x000000000e461ffc       0x5c CMakeFiles/tube-client.dir/65816/65816.c.obj
 .text.pld      0x000000000e462058       0xa4 CMakeFiles/tube-client.dir/65816/65816.c.obj
 .text.deca8    0x000000000e4620fc       0x5c CMakeFiles/tube-client.dir/65816/65816.c.obj
 .text.tsc      0x000000000e462158       0x5c CMakeFiles/tube-client.dir/65816/65816.c.obj
 .text.lsra8    0x000000000e4621b4       0x60 CMakeFiles/tube-client.dir/65816/65816.c.obj
 .text.tcd      0x000000000e462214       0x5c CMakeFiles/tube-client.dir/65816/65816.c.obj
 .text.tdc      0x000000000e462270       0x5c CMakeFiles/tube-client.dir/65816/65816.c.obj
 .text.dey8     0x000000000e4622cc       0x5c CMakeFiles/tube-client.dir/65816/65816.c.obj
 .text.txa8     0x000000000e462328       0x5c CMakeFiles/tube-client.dir/65816/65816.c.obj
 .text.tya8     0x000000000e462384       0x5c CMakeFiles/tube-client.dir/65816/65816.c.obj
 .text.txy8     0x000000000e4623e0       0x5c CMakeFiles/tube-client.dir/65816/65816.c.obj
 .text.tay8     0x000000000e46243c       0x5c CMakeFiles/tube-client.dir/65816/65816.c.obj
 .text.tax8     0x000000000e462498       0x5c CMakeFiles/tube-client.dir/65816/65816.c.obj
 .text.plb      0x000000000e4624f4       0x78 CMakeFiles/tube-client.dir/65816/65816.c.obj
 .text.tsx8     0x000000000e46256c       0x5c CMakeFiles/tube-client.dir/65816/65816.c.obj
 .text.tyx8     0x000000000e4625c8       0x5c CMakeFiles/tube-client.dir/65816/65816.c.obj
 .text.iny8     0x000000000e462624       0x5c CMakeFiles/tube-client.dir/65816/65816.c.obj
 .text.dex8     0x000000000e462680       0x5c CMakeFiles/tube-client.dir/65816/65816.c.obj
 .text.inx8     0x000000000e4626dc       0x5c CMakeFiles/tube-client.dir/65816/65816.c.obj
 .text.xba      0x000000000e462738       0x5c CMakeFiles/tube-client.dir/65816/65816.c.obj
 .text.xce      0x000000000e462794       0x64 CMakeFiles/tube-client.dir/65816/65816.c.obj
 .text.asla16   0x000000000e4627f8       0x6c CMakeFiles/tube-client.dir/65816/65816.c.obj
 .text.inca16   0x000000000e462864       0x5c CMakeFiles/tube-client.dir/65816/65816.c.obj
 .text.deca16   0x000000000e4628c0       0x5c CMakeFiles/tube-client.dir/65816/65816.c.obj
 .text.lsra16   0x000000000e46291c       0x60 CMakeFiles/tube-client.dir/65816/65816.c.obj
 .text.pla16    0x000000000e46297c       0xb4 CMakeFiles/tube-client.dir/65816/65816.c.obj
 .text.txa16    0x000000000e462a30       0x5c CMakeFiles/tube-client.dir/65816/65816.c.obj
 .text.tya16    0x000000000e462a8c       0x5c CMakeFiles/tube-client.dir/65816/65816.c.obj
 .text.ply16    0x000000000e462ae8       0xb4 CMakeFiles/tube-client.dir/65816/65816.c.obj
 .text.dey16    0x000000000e462b9c       0x5c CMakeFiles/tube-client.dir/65816/65816.c.obj
 .text.txy16    0x000000000e462bf8       0x5c CMakeFiles/tube-client.dir/65816/65816.c.obj
 .text.tax16    0x000000000e462c54       0x5c CMakeFiles/tube-client.dir/65816/65816.c.obj
 .text.tsx16    0x000000000e462cb0       0x5c CMakeFiles/tube-client.dir/65816/65816.c.obj
 .text.iny16    0x000000000e462d0c       0x5c CMakeFiles/tube-client.dir/65816/65816.c.obj
 .text.dex16    0x000000000e462d68       0x5c CMakeFiles/tube-client.dir/65816/65816.c.obj
 .text.inx16    0x000000000e462dc4       0x5c CMakeFiles/tube-client.dir/65816/65816.c.obj
 .text.plx16    0x000000000e462e20       0xb4 CMakeFiles/tube-client.dir/65816/65816.c.obj
 .text.plaE     0x000000000e462ed4       0x9c CMakeFiles/tube-client.dir/65816/65816.c.obj
 .text.ply8_tail
                0x000000000e462f70       0x84 CMakeFiles/tube-client.dir/65816/65816.c.obj
 .text.plyE     0x000000000e462ff4       0x24 CMakeFiles/tube-client.dir/65816/65816.c.obj
 .text.ply8     0x000000000e463018       0x18 CMakeFiles/tube-client.dir/65816/65816.c.obj
 .text.plbe     0x000000000e463030       0x78 CMakeFiles/tube-client.dir/65816/65816.c.obj
 .text.plxE     0x000000000e4630a8       0x9c CMakeFiles/tube-client.dir/65816/65816.c.obj
 .text.rola8    0x000000000e463144       0x74 CMakeFiles/tube-client.dir/65816/65816.c.obj
 .text.rola16   0x000000000e4631b8       0x74 CMakeFiles/tube-client.dir/65816/65816.c.obj
 .text.rora8    0x000000000e46322c       0x70 CMakeFiles/tube-client.dir/65816/65816.c.obj
 .text.tsbZp16  0x000000000e46329c       0x60 CMakeFiles/tube-client.dir/65816/65816.c.obj
 .text.rora16   0x000000000e4632fc       0x70 CMakeFiles/tube-client.dir/65816/65816.c.obj
 .text.trbZp16  0x000000000e46336c       0x60 CMakeFiles/tube-client.dir/65816/65816.c.obj
 .text.plpE     0x000000000e4633cc       0x78 CMakeFiles/tube-client.dir/65816/65816.c.obj
 .text.tsbZp8   0x000000000e463444       0x60 CMakeFiles/tube-client.dir/65816/65816.c.obj
 .text.plp      0x000000000e4634a4       0x84 CMakeFiles/tube-client.dir/65816/65816.c.obj
 .text.rorAbsx16
                0x000000000e463528       0x68 CMakeFiles/tube-client.dir/65816/65816.c.obj
 .text.rorZpx16
                0x000000000e463590       0x68 CMakeFiles/tube-client.dir/65816/65816.c.obj
 .text.pla8     0x000000000e4635f8       0x90 CMakeFiles/tube-client.dir/65816/65816.c.obj
 .text.plx8     0x000000000e463688       0x90 CMakeFiles/tube-client.dir/65816/65816.c.obj
 .text.rolZpx16
                0x000000000e463718       0x6c CMakeFiles/tube-client.dir/65816/65816.c.obj
 .text.rolAbsx16
                0x000000000e463784       0x6c CMakeFiles/tube-client.dir/65816/65816.c.obj
 .text.jsrIndx  0x000000000e4637f0       0xe4 CMakeFiles/tube-client.dir/65816/65816.c.obj
 .text.rolAbsx8
                0x000000000e4638d4       0x78 CMakeFiles/tube-client.dir/65816/65816.c.obj
 .text.rorZp8   0x000000000e46394c       0x74 CMakeFiles/tube-client.dir/65816/65816.c.obj
 .text.rorAbsx8
                0x000000000e4639c0       0x74 CMakeFiles/tube-client.dir/65816/65816.c.obj
 .text.rolZpx8  0x000000000e463a34       0x78 CMakeFiles/tube-client.dir/65816/65816.c.obj
 .text.rorZpx8  0x000000000e463aac       0x74 CMakeFiles/tube-client.dir/65816/65816.c.obj
 .text.phpE     0x000000000e463b20       0xa8 CMakeFiles/tube-client.dir/65816/65816.c.obj
 .text.stxZpy16
                0x000000000e463bc8       0xa0 CMakeFiles/tube-client.dir/65816/65816.c.obj
 .text.stxZpy8  0x000000000e463c68       0xa0 CMakeFiles/tube-client.dir/65816/65816.c.obj
 .text.ldxZpy16
                0x000000000e463d08       0xb4 CMakeFiles/tube-client.dir/65816/65816.c.obj
 .text.brkE     0x000000000e463dbc      0x108 CMakeFiles/tube-client.dir/65816/65816.c.obj
 .text.cope     0x000000000e463ec4      0x104 CMakeFiles/tube-client.dir/65816/65816.c.obj
 .text.stzAbs16
                0x000000000e463fc8       0x4c CMakeFiles/tube-client.dir/65816/65816.c.obj
 .text.staAbs16
                0x000000000e464014       0x54 CMakeFiles/tube-client.dir/65816/65816.c.obj
 .text.styAbs16
                0x000000000e464068       0x54 CMakeFiles/tube-client.dir/65816/65816.c.obj
 .text.stxAbs16
                0x000000000e4640bc       0x54 CMakeFiles/tube-client.dir/65816/65816.c.obj
 .text.adcAbs16
                0x000000000e464110       0x4c CMakeFiles/tube-client.dir/65816/65816.c.obj
 .text.staIndirectxE
                0x000000000e46415c       0x98 CMakeFiles/tube-client.dir/65816/65816.c.obj
 .text.stzAbs8  0x000000000e4641f4       0x60 CMakeFiles/tube-client.dir/65816/65816.c.obj
 .text.adcIndirectxE
                0x000000000e464254      0x19c CMakeFiles/tube-client.dir/65816/65816.c.obj
 .text.sbcIndirectxE
                0x000000000e4643f0      0x1ac CMakeFiles/tube-client.dir/65816/65816.c.obj
 .text.stxAbs8  0x000000000e46459c       0x68 CMakeFiles/tube-client.dir/65816/65816.c.obj
 .text.staAbs8  0x000000000e464604       0x68 CMakeFiles/tube-client.dir/65816/65816.c.obj
 .text.styAbs8  0x000000000e46466c       0x68 CMakeFiles/tube-client.dir/65816/65816.c.obj
 .text.ldyAbs16
                0x000000000e4646d4       0x70 CMakeFiles/tube-client.dir/65816/65816.c.obj
 .text.ldaAbs16
                0x000000000e464744       0x70 CMakeFiles/tube-client.dir/65816/65816.c.obj
 .text.ldxAbs16
                0x000000000e4647b4       0x70 CMakeFiles/tube-client.dir/65816/65816.c.obj
 .text.ldaIndirectxE
                0x000000000e464824       0xb8 CMakeFiles/tube-client.dir/65816/65816.c.obj
 .text.staSp16  0x000000000e4648dc       0x6c CMakeFiles/tube-client.dir/65816/65816.c.obj
 .text.eorIndirectxE
                0x000000000e464948       0xc4 CMakeFiles/tube-client.dir/65816/65816.c.obj
 .text.andIndirectxE
                0x000000000e464a0c       0xbc CMakeFiles/tube-client.dir/65816/65816.c.obj
 .text.oraIndirectxE
                0x000000000e464ac8       0xc0 CMakeFiles/tube-client.dir/65816/65816.c.obj
 .text.adcSp16  0x000000000e464b88       0x64 CMakeFiles/tube-client.dir/65816/65816.c.obj
 .text.sbcSp16  0x000000000e464bec      0x19c CMakeFiles/tube-client.dir/65816/65816.c.obj
 .text.eorAbs16
                0x000000000e464d88       0x80 CMakeFiles/tube-client.dir/65816/65816.c.obj
 .text.andAbs16
                0x000000000e464e08       0x78 CMakeFiles/tube-client.dir/65816/65816.c.obj
 .text.oraAbs16
                0x000000000e464e80       0x7c CMakeFiles/tube-client.dir/65816/65816.c.obj
 .text.ldaAbs8  0x000000000e464efc       0x88 CMakeFiles/tube-client.dir/65816/65816.c.obj
 .text.ldyAbs8  0x000000000e464f84       0x88 CMakeFiles/tube-client.dir/65816/65816.c.obj
 .text.cpxAbs16
                0x000000000e46500c       0x88 CMakeFiles/tube-client.dir/65816/65816.c.obj
 .text.ldxAbs8  0x000000000e465094       0x88 CMakeFiles/tube-client.dir/65816/65816.c.obj
 .text.cmpAbs16
                0x000000000e46511c       0x88 CMakeFiles/tube-client.dir/65816/65816.c.obj
 .text.cpyAbs16
                0x000000000e4651a4       0x88 CMakeFiles/tube-client.dir/65816/65816.c.obj
 .text.bitAbs16
                0x000000000e46522c       0x7c CMakeFiles/tube-client.dir/65816/65816.c.obj
 .text.staSp8   0x000000000e4652a8       0x6c CMakeFiles/tube-client.dir/65816/65816.c.obj
 .text.ldaSp16  0x000000000e465314       0x88 CMakeFiles/tube-client.dir/65816/65816.c.obj
 .text.eorAbs8  0x000000000e46539c       0x94 CMakeFiles/tube-client.dir/65816/65816.c.obj
 .text.andAbs8  0x000000000e465430       0x8c CMakeFiles/tube-client.dir/65816/65816.c.obj
 .text.oraAbs8  0x000000000e4654bc       0x90 CMakeFiles/tube-client.dir/65816/65816.c.obj
 .text.tsbAbs16
                0x000000000e46554c       0x98 CMakeFiles/tube-client.dir/65816/65816.c.obj
 .text.incAbs16
                0x000000000e4655e4       0x8c CMakeFiles/tube-client.dir/65816/65816.c.obj
 .text.cmpAbs8  0x000000000e465670       0xa0 CMakeFiles/tube-client.dir/65816/65816.c.obj
 .text.decAbs16
                0x000000000e465710       0x8c CMakeFiles/tube-client.dir/65816/65816.c.obj
 .text.cpxAbs8  0x000000000e46579c       0xa0 CMakeFiles/tube-client.dir/65816/65816.c.obj
 .text.cpyAbs8  0x000000000e46583c       0xa0 CMakeFiles/tube-client.dir/65816/65816.c.obj
 .text.eorSp16  0x000000000e4658dc       0x98 CMakeFiles/tube-client.dir/65816/65816.c.obj
 .text.oraSp16  0x000000000e465974       0x94 CMakeFiles/tube-client.dir/65816/65816.c.obj
 .text.andSp16  0x000000000e465a08       0x90 CMakeFiles/tube-client.dir/65816/65816.c.obj
 .text.bitAbs8  0x000000000e465a98       0x90 CMakeFiles/tube-client.dir/65816/65816.c.obj
 .text.lsrAbs16
                0x000000000e465b28       0x90 CMakeFiles/tube-client.dir/65816/65816.c.obj
 .text.trbAbs16
                0x000000000e465bb8       0x98 CMakeFiles/tube-client.dir/65816/65816.c.obj
 .text.php      0x000000000e465c50       0xc4 CMakeFiles/tube-client.dir/65816/65816.c.obj
 .text.ldaSp8   0x000000000e465d14       0x98 CMakeFiles/tube-client.dir/65816/65816.c.obj
 .text.cmpSp16  0x000000000e465dac       0xa0 CMakeFiles/tube-client.dir/65816/65816.c.obj
 .text.aslAbs16
                0x000000000e465e4c       0x94 CMakeFiles/tube-client.dir/65816/65816.c.obj
 .text.tsbAbs8  0x000000000e465ee0       0x94 CMakeFiles/tube-client.dir/65816/65816.c.obj
 .text.incAbs8  0x000000000e465f74       0x8c CMakeFiles/tube-client.dir/65816/65816.c.obj
 .text.decAbs8  0x000000000e466000       0x8c CMakeFiles/tube-client.dir/65816/65816.c.obj
 .text.trbAbs8  0x000000000e46608c       0x94 CMakeFiles/tube-client.dir/65816/65816.c.obj
 .text.eorSp8   0x000000000e466120       0xa4 CMakeFiles/tube-client.dir/65816/65816.c.obj
 .text.andSp8   0x000000000e4661c4       0x9c CMakeFiles/tube-client.dir/65816/65816.c.obj
 .text.oraSp8   0x000000000e466260       0xa0 CMakeFiles/tube-client.dir/65816/65816.c.obj
 .text.lsrAbs8  0x000000000e466300       0x90 CMakeFiles/tube-client.dir/65816/65816.c.obj
 .text.aslAbs8  0x000000000e466390       0x94 CMakeFiles/tube-client.dir/65816/65816.c.obj
 .text.rolAbs16
                0x000000000e466424       0xa4 CMakeFiles/tube-client.dir/65816/65816.c.obj
 .text.rorAbs16
                0x000000000e4664c8       0xa0 CMakeFiles/tube-client.dir/65816/65816.c.obj
 .text.sbcIndirectyE
                0x000000000e466568      0x144 CMakeFiles/tube-client.dir/65816/65816.c.obj
 .text.sbcZp8   0x000000000e4666ac      0x144 CMakeFiles/tube-client.dir/65816/65816.c.obj
 .text.sbcZpx8  0x000000000e4667f0      0x144 CMakeFiles/tube-client.dir/65816/65816.c.obj
 .text.sbcIndirect8
                0x000000000e466934      0x144 CMakeFiles/tube-client.dir/65816/65816.c.obj
 .text.sbcLong8
                0x000000000e466a78      0x144 CMakeFiles/tube-client.dir/65816/65816.c.obj
 .text.sbcIndirectLongy8
                0x000000000e466bbc      0x144 CMakeFiles/tube-client.dir/65816/65816.c.obj
 .text.sbcIndirectx8
                0x000000000e466d00      0x144 CMakeFiles/tube-client.dir/65816/65816.c.obj
 .text.sbcIndirecty8
                0x000000000e466e44      0x144 CMakeFiles/tube-client.dir/65816/65816.c.obj
 .text.sbcIndirectLong8
                0x000000000e466f88      0x144 CMakeFiles/tube-client.dir/65816/65816.c.obj
 .text.sbcLongx8
                0x000000000e4670cc      0x144 CMakeFiles/tube-client.dir/65816/65816.c.obj
 .text.sbcAbsx8
                0x000000000e467210      0x144 CMakeFiles/tube-client.dir/65816/65816.c.obj
 .text.sbcsIndirecty8
                0x000000000e467354      0x144 CMakeFiles/tube-client.dir/65816/65816.c.obj
 .text.sbcAbsy8
                0x000000000e467498      0x144 CMakeFiles/tube-client.dir/65816/65816.c.obj
 .text.sbcImm8  0x000000000e4675dc      0x164 CMakeFiles/tube-client.dir/65816/65816.c.obj
 .text.sbcIndirectLongy16
                0x000000000e467740      0x150 CMakeFiles/tube-client.dir/65816/65816.c.obj
 .text.sbcAbsx16
                0x000000000e467890      0x150 CMakeFiles/tube-client.dir/65816/65816.c.obj
 .text.sbcLong16
                0x000000000e4679e0      0x150 CMakeFiles/tube-client.dir/65816/65816.c.obj
 .text.sbcIndirect16
                0x000000000e467b30      0x150 CMakeFiles/tube-client.dir/65816/65816.c.obj
 .text.sbcIndirecty16
                0x000000000e467c80      0x150 CMakeFiles/tube-client.dir/65816/65816.c.obj
 .text.sbcsIndirecty16
                0x000000000e467dd0      0x150 CMakeFiles/tube-client.dir/65816/65816.c.obj
 .text.sbcIndirectx16
                0x000000000e467f20      0x150 CMakeFiles/tube-client.dir/65816/65816.c.obj
 .text.sbcIndirectLong16
                0x000000000e468070      0x150 CMakeFiles/tube-client.dir/65816/65816.c.obj
 .text.sbcZpx16
                0x000000000e4681c0      0x150 CMakeFiles/tube-client.dir/65816/65816.c.obj
 .text.sbcLongx16
                0x000000000e468310      0x150 CMakeFiles/tube-client.dir/65816/65816.c.obj
 .text.sbcAbsy16
                0x000000000e468460      0x150 CMakeFiles/tube-client.dir/65816/65816.c.obj
 .text.sbcZp16  0x000000000e4685b0      0x150 CMakeFiles/tube-client.dir/65816/65816.c.obj
 .text.sbcImm16
                0x000000000e468700      0x16c CMakeFiles/tube-client.dir/65816/65816.c.obj
 .text.sbcAbs8  0x000000000e46886c      0x17c CMakeFiles/tube-client.dir/65816/65816.c.obj
 .text.rolAbs8  0x000000000e4689e8       0xb0 CMakeFiles/tube-client.dir/65816/65816.c.obj
 .text.sbcAbs16
                0x000000000e468a98      0x188 CMakeFiles/tube-client.dir/65816/65816.c.obj
 .text.sbcSp8   0x000000000e468c20      0x18c CMakeFiles/tube-client.dir/65816/65816.c.obj
 .text.adcAbsx8
                0x000000000e468dac      0x134 CMakeFiles/tube-client.dir/65816/65816.c.obj
 .text.adcIndirectLong8
                0x000000000e468ee0      0x134 CMakeFiles/tube-client.dir/65816/65816.c.obj
 .text.adcsIndirecty8
                0x000000000e469014      0x134 CMakeFiles/tube-client.dir/65816/65816.c.obj
 .text.adcIndirectx8
                0x000000000e469148      0x134 CMakeFiles/tube-client.dir/65816/65816.c.obj
 .text.adcIndirecty8
                0x000000000e46927c      0x134 CMakeFiles/tube-client.dir/65816/65816.c.obj
 .text.adcIndirectyE
                0x000000000e4693b0      0x134 CMakeFiles/tube-client.dir/65816/65816.c.obj
 .text.adcIndirect8
                0x000000000e4694e4      0x134 CMakeFiles/tube-client.dir/65816/65816.c.obj
 .text.adcIndirectLongy8
                0x000000000e469618      0x134 CMakeFiles/tube-client.dir/65816/65816.c.obj
 .text.adcZpx8  0x000000000e46974c      0x134 CMakeFiles/tube-client.dir/65816/65816.c.obj
 .text.adcAbsy8
                0x000000000e469880      0x134 CMakeFiles/tube-client.dir/65816/65816.c.obj
 .text.adcZp8   0x000000000e4699b4      0x134 CMakeFiles/tube-client.dir/65816/65816.c.obj
 .text.adcLong8
                0x000000000e469ae8      0x134 CMakeFiles/tube-client.dir/65816/65816.c.obj
 .text.adcLongx8
                0x000000000e469c1c      0x134 CMakeFiles/tube-client.dir/65816/65816.c.obj
 .text.adcImm8  0x000000000e469d50      0x154 CMakeFiles/tube-client.dir/65816/65816.c.obj
 .text.cld      0x000000000e469ea4       0x4c CMakeFiles/tube-client.dir/65816/65816.c.obj
 .text.cli      0x000000000e469ef0       0x4c CMakeFiles/tube-client.dir/65816/65816.c.obj
 .text.clv      0x000000000e469f3c       0x4c CMakeFiles/tube-client.dir/65816/65816.c.obj
 .text.sec      0x000000000e469f88       0x4c CMakeFiles/tube-client.dir/65816/65816.c.obj
 .text.sed      0x000000000e469fd4       0x4c CMakeFiles/tube-client.dir/65816/65816.c.obj
 .text.sei      0x000000000e46a020       0x4c CMakeFiles/tube-client.dir/65816/65816.c.obj
 .text.clc      0x000000000e46a06c       0x4c CMakeFiles/tube-client.dir/65816/65816.c.obj
 .text.wdm      0x000000000e46a0b8       0x38 CMakeFiles/tube-client.dir/65816/65816.c.obj
 .text.adcAbs8  0x000000000e46a0f0      0x16c CMakeFiles/tube-client.dir/65816/65816.c.obj
 .text.txs8     0x000000000e46a25c       0x54 CMakeFiles/tube-client.dir/65816/65816.c.obj
 .text.txs16    0x000000000e46a2b0       0x54 CMakeFiles/tube-client.dir/65816/65816.c.obj
 .text.tcs      0x000000000e46a304       0x54 CMakeFiles/tube-client.dir/65816/65816.c.obj
 .text.adcSp8   0x000000000e46a358      0x17c CMakeFiles/tube-client.dir/65816/65816.c.obj
 .text.op_brk   0x000000000e46a4d4      0x148 CMakeFiles/tube-client.dir/65816/65816.c.obj
 .text.cop      0x000000000e46a61c      0x148 CMakeFiles/tube-client.dir/65816/65816.c.obj
 .text.wai      0x000000000e46a764       0x58 CMakeFiles/tube-client.dir/65816/65816.c.obj
 .text.stzZp16  0x000000000e46a7bc       0x74 CMakeFiles/tube-client.dir/65816/65816.c.obj
 .text.staIndirect16
                0x000000000e46a830       0x80 CMakeFiles/tube-client.dir/65816/65816.c.obj
 .text.tyx16    0x000000000e46a8b0       0x70 CMakeFiles/tube-client.dir/65816/65816.c.obj
 .text.tay16    0x000000000e46a920       0x70 CMakeFiles/tube-client.dir/65816/65816.c.obj
 .text.w65816_reset
                0x000000000e46a990       0xc4 CMakeFiles/tube-client.dir/65816/65816.c.obj
                0x000000000e46a990                w65816_reset
 .text.w65816_init
                0x000000000e46aa54       0x40 CMakeFiles/tube-client.dir/65816/65816.c.obj
                0x000000000e46aa54                w65816_init
 .text.w65816_exec
                0x000000000e46aa94      0x4c0 CMakeFiles/tube-client.dir/65816/65816.c.obj
                0x000000000e46aa94                w65816_exec
 .text.copro_65816_emulator
                0x000000000e46af54       0x70 CMakeFiles/tube-client.dir/copro-65816.c.obj
                0x000000000e46af54                copro_65816_emulator
 .text.copro_pdp11_write8
                0x000000000e46afc4       0x30 CMakeFiles/tube-client.dir/copro-pdp11.c.obj
                0x000000000e46afc4                copro_pdp11_write8
 .text.copro_pdp11_read8
                0x000000000e46aff4       0x30 CMakeFiles/tube-client.dir/copro-pdp11.c.obj
                0x000000000e46aff4                copro_pdp11_read8
 .text.copro_pdp11_write16
                0x000000000e46b024       0x34 CMakeFiles/tube-client.dir/copro-pdp11.c.obj
                0x000000000e46b024                copro_pdp11_write16
 .text.copro_pdp11_read16
                0x000000000e46b058       0x3c CMakeFiles/tube-client.dir/copro-pdp11.c.obj
                0x000000000e46b058                copro_pdp11_read16
 .text.copro_pdp11_emulator
                0x000000000e46b094       0xf8 CMakeFiles/tube-client.dir/copro-pdp11.c.obj
                0x000000000e46b094                copro_pdp11_emulator
 .text.branch   0x000000000e46b18c       0x30 CMakeFiles/tube-client.dir/pdp11/pdp11.c.obj
 .text.switchmode
                0x000000000e46b1bc       0x50 CMakeFiles/tube-client.dir/pdp11/pdp11.c.obj
 .text.trap.isra.0
                0x000000000e46b20c       0x14 CMakeFiles/tube-client.dir/pdp11/pdp11.c.obj
 .text.panic    0x000000000e46b220      0x134 CMakeFiles/tube-client.dir/pdp11/pdp11.c.obj
 .text.memwrite
                0x000000000e46b354       0x64 CMakeFiles/tube-client.dir/pdp11/pdp11.c.obj
 .text.trapat   0x000000000e46b3b8       0xbc CMakeFiles/tube-client.dir/pdp11/pdp11.c.obj
 .text.handleinterrupt
                0x000000000e46b474       0xfc CMakeFiles/tube-client.dir/pdp11/pdp11.c.obj
 .text.memread  0x000000000e46b570       0x64 CMakeFiles/tube-client.dir/pdp11/pdp11.c.obj
 .text.aget.part.0
                0x000000000e46b5d4      0x1ac CMakeFiles/tube-client.dir/pdp11/pdp11.c.obj
 .text.pdp11_reset
                0x000000000e46b780       0x44 CMakeFiles/tube-client.dir/pdp11/pdp11.c.obj
                0x000000000e46b780                pdp11_reset
 .text.pdp11_interrupt
                0x000000000e46b7c4       0xfc CMakeFiles/tube-client.dir/pdp11/pdp11.c.obj
                0x000000000e46b7c4                pdp11_interrupt
 .text.pdp11_execute
                0x000000000e46b8c0     0x2024 CMakeFiles/tube-client.dir/pdp11/pdp11.c.obj
                0x000000000e46b8c0                pdp11_execute
 .text.copro_null_emulator
                0x000000000e46d8e4       0x30 CMakeFiles/tube-client.dir/copro-null.c.obj
                0x000000000e46d8e4                copro_null_emulator
 .text.copy_armbasic
                0x000000000e46d914       0x14 CMakeFiles/tube-client.dir/armbasic.c.obj
                0x000000000e46d914                copy_armbasic
 .text.defaultEscapeHandler
                0x000000000e46d928       0x18 CMakeFiles/tube-client.dir/copro-armnative.c.obj
 .text.defaultEventHandler
                0x000000000e46d940        0x4 CMakeFiles/tube-client.dir/copro-armnative.c.obj
 .text.defaultExitHandler
                0x000000000e46d944       0x28 CMakeFiles/tube-client.dir/copro-armnative.c.obj
 .text.cli_loop
                0x000000000e46d96c       0x8c CMakeFiles/tube-client.dir/copro-armnative.c.obj
 .text.defaultUpcallHandler
                0x000000000e46d9f8        0xc CMakeFiles/tube-client.dir/copro-armnative.c.obj
 .text.defaultExceptionRegistersHandler
                0x000000000e46da04        0xc CMakeFiles/tube-client.dir/copro-armnative.c.obj
 .text.defaultUnusedSWIHandler
                0x000000000e46da10        0xc CMakeFiles/tube-client.dir/copro-armnative.c.obj
 .text.defaultCallbackHandler
                0x000000000e46da1c        0xc CMakeFiles/tube-client.dir/copro-armnative.c.obj
 .text.defaultOtherExceptionHandler
                0x000000000e46da28        0xc CMakeFiles/tube-client.dir/copro-armnative.c.obj
 .text.defaultAddressExceptionHandler
                0x000000000e46da34        0xc CMakeFiles/tube-client.dir/copro-armnative.c.obj
 .text.defaultDataAbortHandler
                0x000000000e46da40        0xc CMakeFiles/tube-client.dir/copro-armnative.c.obj
 .text.defaultPrefetchAbortHandler
                0x000000000e46da4c        0xc CMakeFiles/tube-client.dir/copro-armnative.c.obj
 .text.defaultUndefinedInstructionHandler
                0x000000000e46da58        0xc CMakeFiles/tube-client.dir/copro-armnative.c.obj
 .text.defaultErrorHandler
                0x000000000e46da64       0x28 CMakeFiles/tube-client.dir/copro-armnative.c.obj
 .text.copro_armnative_reset
                0x000000000e46da8c       0x18 CMakeFiles/tube-client.dir/copro-armnative.c.obj
                0x000000000e46da8c                copro_armnative_reset
 .text.copro_armnative_emulator
                0x000000000e46daa4      0x29c CMakeFiles/tube-client.dir/copro-armnative.c.obj
                0x000000000e46daa4                copro_armnative_emulator
 .text          0x000000000e46dd40      0x104 CMakeFiles/tube-client.dir/copro-armnativeasm.S.obj
                0x000000000e46dd40                copro_armnative_enable_mailbox
                0x000000000e46dd44                copro_armnative_disable_mailbox
                0x000000000e46dd48                copro_armnative_fiq_handler
                0x000000000e46dd7c                copro_armnative_swi_handler
                0x000000000e46dda4                _user_exec
                0x000000000e46de0c                _error_handler_wrapper
                0x000000000e46de18                _escape_handler_wrapper
                0x000000000e46de30                _exit_handler_wrapper
 .text.darm_immshift_decode
                0x000000000e46de44       0xac CMakeFiles/tube-client.dir/darm/armv7.c.obj
                0x000000000e46de44                darm_immshift_decode
 .text.darm_armv7_disasm
                0x000000000e46def0      0xffc CMakeFiles/tube-client.dir/darm/armv7.c.obj
                0x000000000e46def0                darm_armv7_disasm
 .text.darm_mnemonic_name
                0x000000000e46eeec       0x1c CMakeFiles/tube-client.dir/darm/armv7.c.obj
                0x000000000e46eeec                darm_mnemonic_name
 .text.darm_register_name
                0x000000000e46ef08       0x2c CMakeFiles/tube-client.dir/darm/armv7.c.obj
                0x000000000e46ef08                darm_register_name
 .text.darm_shift_type_name
                0x000000000e46ef34       0x2c CMakeFiles/tube-client.dir/darm/armv7.c.obj
                0x000000000e46ef34                darm_shift_type_name
 .text.darm_condition_name
                0x000000000e46ef60       0x60 CMakeFiles/tube-client.dir/darm/armv7.c.obj
                0x000000000e46ef60                darm_condition_name
 .text._utoa    0x000000000e46efc0       0x80 CMakeFiles/tube-client.dir/darm/darm.c.obj
 .text.darm_init
                0x000000000e46f040       0x6c CMakeFiles/tube-client.dir/darm/darm.c.obj
                0x000000000e46f040                darm_init
 .text.darm_str2
                0x000000000e46f0ac     0x16a0 CMakeFiles/tube-client.dir/darm/darm.c.obj
                0x000000000e46f0ac                darm_str2
 .text.RPI_GetArmTimer
                0x000000000e47074c        0xc CMakeFiles/tube-client.dir/rpi-armtimer.c.obj
                0x000000000e47074c                RPI_GetArmTimer
 .text.RPI_ArmTimerInit
                0x000000000e470758       0x28 CMakeFiles/tube-client.dir/rpi-armtimer.c.obj
                0x000000000e470758                RPI_ArmTimerInit
 .text.OS_WriteC
                0x000000000e470780       0x10 CMakeFiles/tube-client.dir/swi.c.obj
                0x000000000e470780                OS_WriteC
 .text.OS_Write0
                0x000000000e470790       0x10 CMakeFiles/tube-client.dir/swi.c.obj
                0x000000000e470790                OS_Write0
 .text.OS_ReadC
                0x000000000e4707a0       0x2c CMakeFiles/tube-client.dir/swi.c.obj
                0x000000000e4707a0                OS_ReadC
 .text.OS_CLI   0x000000000e4707cc       0x10 CMakeFiles/tube-client.dir/swi.c.obj
                0x000000000e4707cc                OS_CLI
 .text.OS_Word  0x000000000e4707dc       0x10 CMakeFiles/tube-client.dir/swi.c.obj
                0x000000000e4707dc                OS_Word
 .text.OS_Byte  0x000000000e4707ec       0x34 CMakeFiles/tube-client.dir/swi.c.obj
                0x000000000e4707ec                OS_Byte
 .text.OS_ReadLine
                0x000000000e470820       0x2c CMakeFiles/tube-client.dir/swi.c.obj
                0x000000000e470820                OS_ReadLine
 .text.OS_Exit  0x000000000e47084c       0x10 CMakeFiles/tube-client.dir/swi.c.obj
                0x000000000e47084c                OS_Exit
 .text.OS_ReadModeVariable
                0x000000000e47085c       0x14 CMakeFiles/tube-client.dir/swi.c.obj
                0x000000000e47085c                OS_ReadModeVariable
 .text.matchCommand
                0x000000000e470870       0xd4 CMakeFiles/tube-client.dir/tube-commands.c.obj
 .text.doCmdArmBasic
                0x000000000e470944       0x28 CMakeFiles/tube-client.dir/tube-commands.c.obj
 .text.doCmdFill
                0x000000000e47096c       0x54 CMakeFiles/tube-client.dir/tube-commands.c.obj
 .text.doCmdGo  0x000000000e4709c0       0x2c CMakeFiles/tube-client.dir/tube-commands.c.obj
 .text.doCmdPiLIFE
                0x000000000e4709ec      0x43c CMakeFiles/tube-client.dir/tube-commands.c.obj
 .text.doCmdTest
                0x000000000e470e28       0x18 CMakeFiles/tube-client.dir/tube-commands.c.obj
 .text.doCmdCrc
                0x000000000e470e40       0xa8 CMakeFiles/tube-client.dir/tube-commands.c.obj
 .text.doCmdDis
                0x000000000e470ee8      0x100 CMakeFiles/tube-client.dir/tube-commands.c.obj
 .text.doCmdMem
                0x000000000e470fe8      0x120 CMakeFiles/tube-client.dir/tube-commands.c.obj
 .text.doCmdHelp
                0x000000000e471108      0x258 CMakeFiles/tube-client.dir/tube-commands.c.obj
 .text.doCmdPiVDU
                0x000000000e471360      0x210 CMakeFiles/tube-client.dir/tube-commands.c.obj
 .text.dispatchCmd
                0x000000000e471570       0xac CMakeFiles/tube-client.dir/tube-commands.c.obj
                0x000000000e471570                dispatchCmd
 .text.set_ignore_transfer
                0x000000000e47161c       0x10 CMakeFiles/tube-client.dir/tube-isr.c.obj
                0x000000000e47161c                set_ignore_transfer
 .text.copro_armnative_tube_interrupt_handler
                0x000000000e47162c      0x668 CMakeFiles/tube-client.dir/tube-isr.c.obj
                0x000000000e47162c                copro_armnative_tube_interrupt_handler
 .text.tubeRead
                0x000000000e471c94       0x34 CMakeFiles/tube-client.dir/tube-lib.c.obj
                0x000000000e471c94                tubeRead
 .text.tubeWrite
                0x000000000e471cc8       0x34 CMakeFiles/tube-client.dir/tube-lib.c.obj
                0x000000000e471cc8                tubeWrite
 .text.sendByte
                0x000000000e471cfc       0xd0 CMakeFiles/tube-client.dir/tube-lib.c.obj
                0x000000000e471cfc                sendByte
 .text.receiveByte
                0x000000000e471dcc       0xd0 CMakeFiles/tube-client.dir/tube-lib.c.obj
                0x000000000e471dcc                receiveByte
 .text.sendStringWithoutTerminator
                0x000000000e471e9c       0x38 CMakeFiles/tube-client.dir/tube-lib.c.obj
                0x000000000e471e9c                sendStringWithoutTerminator
 .text.sendString
                0x000000000e471ed4       0x34 CMakeFiles/tube-client.dir/tube-lib.c.obj
                0x000000000e471ed4                sendString
 .text.receiveString
                0x000000000e471f08       0x34 CMakeFiles/tube-client.dir/tube-lib.c.obj
                0x000000000e471f08                receiveString
 .text.sendBlock
                0x000000000e471f3c       0x30 CMakeFiles/tube-client.dir/tube-lib.c.obj
                0x000000000e471f3c                sendBlock
 .text.receiveBlock
                0x000000000e471f6c       0x30 CMakeFiles/tube-client.dir/tube-lib.c.obj
                0x000000000e471f6c                receiveBlock
 .text.sendWord
                0x000000000e471f9c       0x3c CMakeFiles/tube-client.dir/tube-lib.c.obj
                0x000000000e471f9c                sendWord
 .text.receiveWord
                0x000000000e471fd8       0x4c CMakeFiles/tube-client.dir/tube-lib.c.obj
                0x000000000e471fd8                receiveWord
 .text.tube_GetEnv
                0x000000000e472024       0x24 CMakeFiles/tube-client.dir/tube-swi.c.obj
 .text.tube_EnterOS
                0x000000000e472048       0x14 CMakeFiles/tube-client.dir/tube-swi.c.obj
 .text.tube_SynchroniseCodeAreas
                0x000000000e47205c        0x4 CMakeFiles/tube-client.dir/tube-swi.c.obj
 .text.tube_WriteN
                0x000000000e472060       0x34 CMakeFiles/tube-client.dir/tube-swi.c.obj
 .text.tube_Plot
                0x000000000e472094       0x54 CMakeFiles/tube-client.dir/tube-swi.c.obj
 .text.tube_NewLine
                0x000000000e4720e8       0x20 CMakeFiles/tube-client.dir/tube-swi.c.obj
 .text.tube_WriteS
                0x000000000e472108       0x40 CMakeFiles/tube-client.dir/tube-swi.c.obj
 .text.tube_WriteC
                0x000000000e472148       0x10 CMakeFiles/tube-client.dir/tube-swi.c.obj
 .text.tube_ChangeEnvironment
                0x000000000e472158       0x80 CMakeFiles/tube-client.dir/tube-swi.c.obj
 .text.tube_SWI_Not_Known
                0x000000000e4721d8       0x3c CMakeFiles/tube-client.dir/tube-swi.c.obj
 .text.tube_ReadPoint
                0x000000000e472214       0xb4 CMakeFiles/tube-client.dir/tube-swi.c.obj
 .text.tube_BPut
                0x000000000e4722c8       0x38 CMakeFiles/tube-client.dir/tube-swi.c.obj
 .text.tube_BGet
                0x000000000e472300       0x4c CMakeFiles/tube-client.dir/tube-swi.c.obj
 .text.tube_ReadC
                0x000000000e47234c       0x40 CMakeFiles/tube-client.dir/tube-swi.c.obj
 .text.tube_IntOff
                0x000000000e47238c        0x4 CMakeFiles/tube-client.dir/tube-swi.c.obj
 .text.tube_IntOn
                0x000000000e472390        0x4 CMakeFiles/tube-client.dir/tube-swi.c.obj
 .text.tube_Exit
                0x000000000e472394       0x18 CMakeFiles/tube-client.dir/tube-swi.c.obj
 .text.tube_ReadLine
                0x000000000e4723ac       0x90 CMakeFiles/tube-client.dir/tube-swi.c.obj
 .text.tube_Args
                0x000000000e47243c       0x58 CMakeFiles/tube-client.dir/tube-swi.c.obj
 .text.tube_File
                0x000000000e472494       0xb8 CMakeFiles/tube-client.dir/tube-swi.c.obj
 .text.tube_GBPB
                0x000000000e47254c       0xbc CMakeFiles/tube-client.dir/tube-swi.c.obj
 .text.tube_Word
                0x000000000e472608       0xec CMakeFiles/tube-client.dir/tube-swi.c.obj
 .text.tube_Find
                0x000000000e4726f4       0x6c CMakeFiles/tube-client.dir/tube-swi.c.obj
 .text.tube_Write0
                0x000000000e472760       0x38 CMakeFiles/tube-client.dir/tube-swi.c.obj
 .text.tube_GenerateError
                0x000000000e472798       0x54 CMakeFiles/tube-client.dir/tube-swi.c.obj
 .text.generate_error
                0x000000000e4727ec       0x54 CMakeFiles/tube-client.dir/tube-swi.c.obj
                0x000000000e4727ec                generate_error
 .text.updateCarry
                0x000000000e472840       0x18 CMakeFiles/tube-client.dir/tube-swi.c.obj
                0x000000000e472840                updateCarry
 .text.handler_not_implemented
                0x000000000e472858       0x10 CMakeFiles/tube-client.dir/tube-swi.c.obj
                0x000000000e472858                handler_not_implemented
 .text.C_SWI_Handler
                0x000000000e472868       0xe4 CMakeFiles/tube-client.dir/tube-swi.c.obj
                0x000000000e472868                C_SWI_Handler
 .text.user_exec_fn
                0x000000000e47294c        0xc CMakeFiles/tube-client.dir/tube-swi.c.obj
                0x000000000e47294c                user_exec_fn
 .text.user_exec_raw
                0x000000000e472958      0x16c CMakeFiles/tube-client.dir/tube-swi.c.obj
                0x000000000e472958                user_exec_raw
 .text.tube_Byte
                0x000000000e472ac4      0x108 CMakeFiles/tube-client.dir/tube-swi.c.obj
 .text.tube_Mouse
                0x000000000e472bcc       0x6c CMakeFiles/tube-client.dir/tube-swi.c.obj
 .text.tube_CLI
                0x000000000e472c38      0x1c0 CMakeFiles/tube-client.dir/tube-swi.c.obj
 .text.sqrtf    0x000000000e472df8       0x44 /usr/lib/gcc/arm-none-eabi/11.2.0/../../../../arm-none-eabi/lib/thumb/v7+fp/hard/libm.a(lib_a-wf_sqrt.o)
                0x000000000e472df8                sqrtf
 *fill*         0x000000000e472e3c        0x4 00000000
 .text.sqrt     0x000000000e472e40       0x48 /usr/lib/gcc/arm-none-eabi/11.2.0/../../../../arm-none-eabi/lib/thumb/v7+fp/hard/libm.a(lib_a-w_sqrt.o)
                0x000000000e472e40                sqrt
 .text.__ieee754_sqrtf
                0x000000000e472e88        0x8 /usr/lib/gcc/arm-none-eabi/11.2.0/../../../../arm-none-eabi/lib/thumb/v7+fp/hard/libm.a(lib_a-ef_sqrt.o)
                0x000000000e472e88                __ieee754_sqrtf
 .text.__ieee754_sqrt
                0x000000000e472e90        0x8 /usr/lib/gcc/arm-none-eabi/11.2.0/../../../../arm-none-eabi/lib/thumb/v7+fp/hard/libm.a(lib_a-e_sqrt.o)
                0x000000000e472e90                __ieee754_sqrt
 .text          0x000000000e472e98       0x30 /usr/lib/gcc/arm-none-eabi/11.2.0/thumb/v7+fp/hard/libgcc.a(_aeabi_uldivmod.o)
                0x000000000e472e98                __aeabi_uldivmod
 .text.__udivmoddi4
                0x000000000e472ec8       0xf8 /usr/lib/gcc/arm-none-eabi/11.2.0/thumb/v7+fp/hard/libgcc.a(_udivmoddi4.o)
                0x000000000e472ec8                __udivmoddi4
 .text          0x000000000e472fc0        0x4 /usr/lib/gcc/arm-none-eabi/11.2.0/thumb/v7+fp/hard/libgcc.a(_dvmd_tls.o)
                0x000000000e472fc0                __aeabi_ldiv0
                0x000000000e472fc0                __aeabi_idiv0
 .text.atoi     0x000000000e472fc4        0x8 /usr/lib/gcc/arm-none-eabi/11.2.0/../../../../arm-none-eabi/lib/thumb/v7+fp/hard/libc_nano.a(lib_a-atoi.o)
                0x000000000e472fc4                atoi
 .text.calloc   0x000000000e472fcc       0x10 /usr/lib/gcc/arm-none-eabi/11.2.0/../../../../arm-none-eabi/lib/thumb/v7+fp/hard/libc_nano.a(lib_a-calloc.o)
                0x000000000e472fcc                calloc
 .text.__errno  0x000000000e472fdc        0xc /usr/lib/gcc/arm-none-eabi/11.2.0/../../../../arm-none-eabi/lib/thumb/v7+fp/hard/libc_nano.a(lib_a-errno.o)
                0x000000000e472fdc                __errno
 .text.__sflush_r
                0x000000000e472fe8      0x10c /usr/lib/gcc/arm-none-eabi/11.2.0/../../../../arm-none-eabi/lib/thumb/v7+fp/hard/libc_nano.a(lib_a-fflush.o)
                0x000000000e472fe8                __sflush_r
 .text._fflush_r
                0x000000000e4730f4       0x78 /usr/lib/gcc/arm-none-eabi/11.2.0/../../../../arm-none-eabi/lib/thumb/v7+fp/hard/libc_nano.a(lib_a-fflush.o)
                0x000000000e4730f4                _fflush_r
 .text.fflush   0x000000000e47316c       0x24 /usr/lib/gcc/arm-none-eabi/11.2.0/../../../../arm-none-eabi/lib/thumb/v7+fp/hard/libc_nano.a(lib_a-fflush.o)
                0x000000000e47316c                fflush
 .text.std      0x000000000e473190       0x48 /usr/lib/gcc/arm-none-eabi/11.2.0/../../../../arm-none-eabi/lib/thumb/v7+fp/hard/libc_nano.a(lib_a-findfp.o)
 .text._cleanup_r
                0x000000000e4731d8        0xc /usr/lib/gcc/arm-none-eabi/11.2.0/../../../../arm-none-eabi/lib/thumb/v7+fp/hard/libc_nano.a(lib_a-findfp.o)
                0x000000000e4731d8                _cleanup_r
 .text.__sfmoreglue
                0x000000000e4731e4       0x2c /usr/lib/gcc/arm-none-eabi/11.2.0/../../../../arm-none-eabi/lib/thumb/v7+fp/hard/libc_nano.a(lib_a-findfp.o)
                0x000000000e4731e4                __sfmoreglue
 .text.__sfp_lock_acquire
                0x000000000e473210        0xc /usr/lib/gcc/arm-none-eabi/11.2.0/../../../../arm-none-eabi/lib/thumb/v7+fp/hard/libc_nano.a(lib_a-findfp.o)
                0x000000000e473210                __sfp_lock_acquire
 .text.__sfp_lock_release
                0x000000000e47321c        0xc /usr/lib/gcc/arm-none-eabi/11.2.0/../../../../arm-none-eabi/lib/thumb/v7+fp/hard/libc_nano.a(lib_a-findfp.o)
                0x000000000e47321c                __sfp_lock_release
 .text.__sinit_lock_acquire
                0x000000000e473228        0xc /usr/lib/gcc/arm-none-eabi/11.2.0/../../../../arm-none-eabi/lib/thumb/v7+fp/hard/libc_nano.a(lib_a-findfp.o)
                0x000000000e473228                __sinit_lock_acquire
 .text.__sinit_lock_release
                0x000000000e473234        0xc /usr/lib/gcc/arm-none-eabi/11.2.0/../../../../arm-none-eabi/lib/thumb/v7+fp/hard/libc_nano.a(lib_a-findfp.o)
                0x000000000e473234                __sinit_lock_release
 .text.__sinit  0x000000000e473240       0x70 /usr/lib/gcc/arm-none-eabi/11.2.0/../../../../arm-none-eabi/lib/thumb/v7+fp/hard/libc_nano.a(lib_a-findfp.o)
                0x000000000e473240                __sinit
 .text.__sfp    0x000000000e4732b0       0x8c /usr/lib/gcc/arm-none-eabi/11.2.0/../../../../arm-none-eabi/lib/thumb/v7+fp/hard/libc_nano.a(lib_a-findfp.o)
                0x000000000e4732b0                __sfp
 .text._fwalk_reent
                0x000000000e47333c       0x3e /usr/lib/gcc/arm-none-eabi/11.2.0/../../../../arm-none-eabi/lib/thumb/v7+fp/hard/libc_nano.a(lib_a-fwalk.o)
                0x000000000e47333c                _fwalk_reent
 *fill*         0x000000000e47337a        0x2 00000000
 .text._fwrite_r
                0x000000000e47337c       0xc4 /usr/lib/gcc/arm-none-eabi/11.2.0/../../../../arm-none-eabi/lib/thumb/v7+fp/hard/libc_nano.a(lib_a-fwrite.o)
                0x000000000e47337c                _fwrite_r
 .text.fwrite   0x000000000e473440       0x1c /usr/lib/gcc/arm-none-eabi/11.2.0/../../../../arm-none-eabi/lib/thumb/v7+fp/hard/libc_nano.a(lib_a-fwrite.o)
                0x000000000e473440                fwrite
 .text.__retarget_lock_init_recursive
                0x000000000e47345c        0x2 /usr/lib/gcc/arm-none-eabi/11.2.0/../../../../arm-none-eabi/lib/thumb/v7+fp/hard/libc_nano.a(lib_a-lock.o)
                0x000000000e47345c                __retarget_lock_init_recursive
 .text.__retarget_lock_acquire_recursive
                0x000000000e47345e        0x2 /usr/lib/gcc/arm-none-eabi/11.2.0/../../../../arm-none-eabi/lib/thumb/v7+fp/hard/libc_nano.a(lib_a-lock.o)
                0x000000000e47345e                __retarget_lock_acquire_recursive
 .text.__retarget_lock_release_recursive
                0x000000000e473460        0x2 /usr/lib/gcc/arm-none-eabi/11.2.0/../../../../arm-none-eabi/lib/thumb/v7+fp/hard/libc_nano.a(lib_a-lock.o)
                0x000000000e473460                __retarget_lock_release_recursive
 *fill*         0x000000000e473462        0x2 00000000
 .text.malloc   0x000000000e473464       0x10 /usr/lib/gcc/arm-none-eabi/11.2.0/../../../../arm-none-eabi/lib/thumb/v7+fp/hard/libc_nano.a(lib_a-malloc.o)
                0x000000000e473464                malloc
 .text.free     0x000000000e473474       0x10 /usr/lib/gcc/arm-none-eabi/11.2.0/../../../../arm-none-eabi/lib/thumb/v7+fp/hard/libc_nano.a(lib_a-malloc.o)
                0x000000000e473474                free
 .text.memcpy   0x000000000e473484       0x1a /usr/lib/gcc/arm-none-eabi/11.2.0/../../../../arm-none-eabi/lib/thumb/v7+fp/hard/libc_nano.a(lib_a-memcpy-stub.o)
                0x000000000e473484                memcpy
 .text.memmove  0x000000000e47349e       0x34 /usr/lib/gcc/arm-none-eabi/11.2.0/../../../../arm-none-eabi/lib/thumb/v7+fp/hard/libc_nano.a(lib_a-memmove.o)
                0x000000000e47349e                memmove
 .text.memset   0x000000000e4734d2       0x10 /usr/lib/gcc/arm-none-eabi/11.2.0/../../../../arm-none-eabi/lib/thumb/v7+fp/hard/libc_nano.a(lib_a-memset.o)
                0x000000000e4734d2                memset
 .text._calloc_r
                0x000000000e4734e2       0x2c /usr/lib/gcc/arm-none-eabi/11.2.0/../../../../arm-none-eabi/lib/thumb/v7+fp/hard/libc_nano.a(lib_a-nano-callocr.o)
                0x000000000e4734e2                _calloc_r
 *fill*         0x000000000e47350e        0x2 00000000
 .text._free_r  0x000000000e473510       0x98 /usr/lib/gcc/arm-none-eabi/11.2.0/../../../../arm-none-eabi/lib/thumb/v7+fp/hard/libc_nano.a(lib_a-nano-freer.o)
                0x000000000e473510                _free_r
 .text._malloc_r
                0x000000000e4735a8       0xb4 /usr/lib/gcc/arm-none-eabi/11.2.0/../../../../arm-none-eabi/lib/thumb/v7+fp/hard/libc_nano.a(lib_a-nano-mallocr.o)
                0x000000000e4735a8                _malloc_r
 .text.__cvt    0x000000000e47365c       0xa4 /usr/lib/gcc/arm-none-eabi/11.2.0/../../../../arm-none-eabi/lib/thumb/v7+fp/hard/libc_nano.a(lib_a-nano-vfprintf_float.o)
                0x000000000e47365c                __cvt
 .text.__exponent
                0x000000000e473700       0x8c /usr/lib/gcc/arm-none-eabi/11.2.0/../../../../arm-none-eabi/lib/thumb/v7+fp/hard/libc_nano.a(lib_a-nano-vfprintf_float.o)
                0x000000000e473700                __exponent
 *fill*         0x000000000e47378c        0x4 00000000
 .text._printf_float
                0x000000000e473790      0x43c /usr/lib/gcc/arm-none-eabi/11.2.0/../../../../arm-none-eabi/lib/thumb/v7+fp/hard/libc_nano.a(lib_a-nano-vfprintf_float.o)
                0x000000000e473790                _printf_float
 .text._printf_common
                0x000000000e473bcc       0xe4 /usr/lib/gcc/arm-none-eabi/11.2.0/../../../../arm-none-eabi/lib/thumb/v7+fp/hard/libc_nano.a(lib_a-nano-vfprintf_i.o)
                0x000000000e473bcc                _printf_common
 .text._printf_i
                0x000000000e473cb0      0x250 /usr/lib/gcc/arm-none-eabi/11.2.0/../../../../arm-none-eabi/lib/thumb/v7+fp/hard/libc_nano.a(lib_a-nano-vfprintf_i.o)
                0x000000000e473cb0                _printf_i
 .text.printf   0x000000000e473f00       0x30 /usr/lib/gcc/arm-none-eabi/11.2.0/../../../../arm-none-eabi/lib/thumb/v7+fp/hard/libc_nano.a(lib_a-printf.o)
                0x000000000e473f00                printf
                0x000000000e473f00                iprintf
 .text.putchar  0x000000000e473f30       0x2c /usr/lib/gcc/arm-none-eabi/11.2.0/../../../../arm-none-eabi/lib/thumb/v7+fp/hard/libc_nano.a(lib_a-putchar.o)
                0x000000000e473f30                putchar
 .text._putc_r  0x000000000e473f5c       0x90 /usr/lib/gcc/arm-none-eabi/11.2.0/../../../../arm-none-eabi/lib/thumb/v7+fp/hard/libc_nano.a(lib_a-putc.o)
                0x000000000e473f5c                _putc_r
 .text._puts_r  0x000000000e473fec       0xdc /usr/lib/gcc/arm-none-eabi/11.2.0/../../../../arm-none-eabi/lib/thumb/v7+fp/hard/libc_nano.a(lib_a-puts.o)
                0x000000000e473fec                _puts_r
 .text.puts     0x000000000e4740c8       0x10 /usr/lib/gcc/arm-none-eabi/11.2.0/../../../../arm-none-eabi/lib/thumb/v7+fp/hard/libc_nano.a(lib_a-puts.o)
                0x000000000e4740c8                puts
 .text.random   0x000000000e4740d8       0x7c /usr/lib/gcc/arm-none-eabi/11.2.0/../../../../arm-none-eabi/lib/thumb/v7+fp/hard/libc_nano.a(lib_a-random.o)
                0x000000000e4740d8                random
 .text._sbrk_r  0x000000000e474154       0x20 /usr/lib/gcc/arm-none-eabi/11.2.0/../../../../arm-none-eabi/lib/thumb/v7+fp/hard/libc_nano.a(lib_a-sbrkr.o)
                0x000000000e474154                _sbrk_r
 .text          0x000000000e474174       0x1c /usr/lib/gcc/arm-none-eabi/11.2.0/../../../../arm-none-eabi/lib/thumb/v7+fp/hard/libc_nano.a(lib_a-setjmp.o)
                0x000000000e474174                setjmp
                0x000000000e474180                longjmp
 .text.snprintf
                0x000000000e474190       0x68 /usr/lib/gcc/arm-none-eabi/11.2.0/../../../../arm-none-eabi/lib/thumb/v7+fp/hard/libc_nano.a(lib_a-snprintf.o)
                0x000000000e474190                snprintf
                0x000000000e474190                sniprintf
 .text.sprintf  0x000000000e4741f8       0x40 /usr/lib/gcc/arm-none-eabi/11.2.0/../../../../arm-none-eabi/lib/thumb/v7+fp/hard/libc_nano.a(lib_a-sprintf.o)
                0x000000000e4741f8                sprintf
                0x000000000e4741f8                siprintf
 .text.sscanf   0x000000000e474238       0x58 /usr/lib/gcc/arm-none-eabi/11.2.0/../../../../arm-none-eabi/lib/thumb/v7+fp/hard/libc_nano.a(lib_a-sscanf.o)
                0x000000000e474238                sscanf
                0x000000000e474238                siscanf
 .text.__sread  0x000000000e474290       0x22 /usr/lib/gcc/arm-none-eabi/11.2.0/../../../../arm-none-eabi/lib/thumb/v7+fp/hard/libc_nano.a(lib_a-stdio.o)
                0x000000000e474290                __sread
 .text.__seofread
                0x000000000e4742b2        0x4 /usr/lib/gcc/arm-none-eabi/11.2.0/../../../../arm-none-eabi/lib/thumb/v7+fp/hard/libc_nano.a(lib_a-stdio.o)
                0x000000000e4742b2                __seofread
 .text.__swrite
                0x000000000e4742b6       0x38 /usr/lib/gcc/arm-none-eabi/11.2.0/../../../../arm-none-eabi/lib/thumb/v7+fp/hard/libc_nano.a(lib_a-stdio.o)
                0x000000000e4742b6                __swrite
 .text.__sseek  0x000000000e4742ee       0x24 /usr/lib/gcc/arm-none-eabi/11.2.0/../../../../arm-none-eabi/lib/thumb/v7+fp/hard/libc_nano.a(lib_a-stdio.o)
                0x000000000e4742ee                __sseek
 .text.__sclose
                0x000000000e474312        0x8 /usr/lib/gcc/arm-none-eabi/11.2.0/../../../../arm-none-eabi/lib/thumb/v7+fp/hard/libc_nano.a(lib_a-stdio.o)
                0x000000000e474312                __sclose
 *fill*         0x000000000e47431a        0x2 00000000
 .text.strcasecmp
                0x000000000e47431c       0x34 /usr/lib/gcc/arm-none-eabi/11.2.0/../../../../arm-none-eabi/lib/thumb/v7+fp/hard/libc_nano.a(lib_a-strcasecmp.o)
                0x000000000e47431c                strcasecmp
 .text.strchr   0x000000000e474350       0x1a /usr/lib/gcc/arm-none-eabi/11.2.0/../../../../arm-none-eabi/lib/thumb/v7+fp/hard/libc_nano.a(lib_a-strchr.o)
                0x000000000e474350                strchr
 .text.strcpy   0x000000000e47436a       0x10 /usr/lib/gcc/arm-none-eabi/11.2.0/../../../../arm-none-eabi/lib/thumb/v7+fp/hard/libc_nano.a(lib_a-strcpy.o)
                0x000000000e47436a                strcpy
 .text          0x000000000e47437a       0x10 /usr/lib/gcc/arm-none-eabi/11.2.0/../../../../arm-none-eabi/lib/thumb/v7+fp/hard/libc_nano.a(lib_a-strlen.o)
                0x000000000e47437a                strlen
 *fill*         0x000000000e47438a        0x2 00000000
 .text.strncasecmp
                0x000000000e47438c       0x44 /usr/lib/gcc/arm-none-eabi/11.2.0/../../../../arm-none-eabi/lib/thumb/v7+fp/hard/libc_nano.a(lib_a-strncasecmp.o)
                0x000000000e47438c                strncasecmp
 .text.strncmp  0x000000000e4743d0       0x28 /usr/lib/gcc/arm-none-eabi/11.2.0/../../../../arm-none-eabi/lib/thumb/v7+fp/hard/libc_nano.a(lib_a-strncmp.o)
                0x000000000e4743d0                strncmp
 .text.strncpy  0x000000000e4743f8       0x26 /usr/lib/gcc/arm-none-eabi/11.2.0/../../../../arm-none-eabi/lib/thumb/v7+fp/hard/libc_nano.a(lib_a-strncpy.o)
                0x000000000e4743f8                strncpy
 *fill*         0x000000000e47441e        0x2 00000000
 .text._strtol_l.constprop.0
                0x000000000e474420      0x10c /usr/lib/gcc/arm-none-eabi/11.2.0/../../../../arm-none-eabi/lib/thumb/v7+fp/hard/libc_nano.a(lib_a-strtol.o)
 .text._strtol_r
                0x000000000e47452c        0x4 /usr/lib/gcc/arm-none-eabi/11.2.0/../../../../arm-none-eabi/lib/thumb/v7+fp/hard/libc_nano.a(lib_a-strtol.o)
                0x000000000e47452c                _strtol_r
 .text.strtol   0x000000000e474530       0x14 /usr/lib/gcc/arm-none-eabi/11.2.0/../../../../arm-none-eabi/lib/thumb/v7+fp/hard/libc_nano.a(lib_a-strtol.o)
                0x000000000e474530                strtol
 .text.vprintf  0x000000000e474544       0x30 /usr/lib/gcc/arm-none-eabi/11.2.0/../../../../arm-none-eabi/lib/thumb/v7+fp/hard/libc_nano.a(lib_a-vprintf.o)
                0x000000000e474544                vprintf
                0x000000000e474544                viprintf
 .text._vsnprintf_r
                0x000000000e474574       0x56 /usr/lib/gcc/arm-none-eabi/11.2.0/../../../../arm-none-eabi/lib/thumb/v7+fp/hard/libc_nano.a(lib_a-vsnprintf.o)
                0x000000000e474574                _vsnprintf_r
                0x000000000e474574                _vsniprintf_r
 *fill*         0x000000000e4745ca        0x2 00000000
 .text.vsnprintf
                0x000000000e4745cc       0x1c /usr/lib/gcc/arm-none-eabi/11.2.0/../../../../arm-none-eabi/lib/thumb/v7+fp/hard/libc_nano.a(lib_a-vsnprintf.o)
                0x000000000e4745cc                vsnprintf
                0x000000000e4745cc                vsniprintf
 .text.__swbuf_r
                0x000000000e4745e8       0xa4 /usr/lib/gcc/arm-none-eabi/11.2.0/../../../../arm-none-eabi/lib/thumb/v7+fp/hard/libc_nano.a(lib_a-wbuf.o)
                0x000000000e4745e8                __swbuf_r
 .text._write_r
                0x000000000e47468c       0x24 /usr/lib/gcc/arm-none-eabi/11.2.0/../../../../arm-none-eabi/lib/thumb/v7+fp/hard/libc_nano.a(lib_a-writer.o)
                0x000000000e47468c                _write_r
 .text.__swsetup_r
                0x000000000e4746b0       0xdc /usr/lib/gcc/arm-none-eabi/11.2.0/../../../../arm-none-eabi/lib/thumb/v7+fp/hard/libc_nano.a(lib_a-wsetup.o)
                0x000000000e4746b0                __swsetup_r
 .text.__assert_func
                0x000000000e47478c       0x3c /usr/lib/gcc/arm-none-eabi/11.2.0/../../../../arm-none-eabi/lib/thumb/v7+fp/hard/libc_nano.a(lib_a-assert.o)
                0x000000000e47478c                __assert_func
 .text._close_r
                0x000000000e4747c8       0x20 /usr/lib/gcc/arm-none-eabi/11.2.0/../../../../arm-none-eabi/lib/thumb/v7+fp/hard/libc_nano.a(lib_a-closer.o)
                0x000000000e4747c8                _close_r
 .text.quorem   0x000000000e4747e8      0x12e /usr/lib/gcc/arm-none-eabi/11.2.0/../../../../arm-none-eabi/lib/thumb/v7+fp/hard/libc_nano.a(lib_a-dtoa.o)
 *fill*         0x000000000e474916        0x2 00000000
 .text._dtoa_r  0x000000000e474918      0xadc /usr/lib/gcc/arm-none-eabi/11.2.0/../../../../arm-none-eabi/lib/thumb/v7+fp/hard/libc_nano.a(lib_a-dtoa.o)
                0x000000000e474918                _dtoa_r
 .text.fprintf  0x000000000e4753f4       0x24 /usr/lib/gcc/arm-none-eabi/11.2.0/../../../../arm-none-eabi/lib/thumb/v7+fp/hard/libc_nano.a(lib_a-fprintf.o)
                0x000000000e4753f4                fprintf
                0x000000000e4753f4                fiprintf
 .text._localeconv_r
                0x000000000e475418        0x8 /usr/lib/gcc/arm-none-eabi/11.2.0/../../../../arm-none-eabi/lib/thumb/v7+fp/hard/libc_nano.a(lib_a-localeconv.o)
                0x000000000e475418                _localeconv_r
 .text._lseek_r
                0x000000000e475420       0x24 /usr/lib/gcc/arm-none-eabi/11.2.0/../../../../arm-none-eabi/lib/thumb/v7+fp/hard/libc_nano.a(lib_a-lseekr.o)
                0x000000000e475420                _lseek_r
 .text.__swhatbuf_r
                0x000000000e475444       0x4a /usr/lib/gcc/arm-none-eabi/11.2.0/../../../../arm-none-eabi/lib/thumb/v7+fp/hard/libc_nano.a(lib_a-makebuf.o)
                0x000000000e475444                __swhatbuf_r
 *fill*         0x000000000e47548e        0x2 00000000
 .text.__smakebuf_r
                0x000000000e475490       0x80 /usr/lib/gcc/arm-none-eabi/11.2.0/../../../../arm-none-eabi/lib/thumb/v7+fp/hard/libc_nano.a(lib_a-makebuf.o)
                0x000000000e475490                __smakebuf_r
 .text.__ascii_mbtowc
                0x000000000e475510       0x24 /usr/lib/gcc/arm-none-eabi/11.2.0/../../../../arm-none-eabi/lib/thumb/v7+fp/hard/libc_nano.a(lib_a-mbtowc_r.o)
                0x000000000e475510                __ascii_mbtowc
 .text.memchr   0x000000000e475534       0x1c /usr/lib/gcc/arm-none-eabi/11.2.0/../../../../arm-none-eabi/lib/thumb/v7+fp/hard/libc_nano.a(lib_a-memchr-stub.o)
                0x000000000e475534                memchr
 .text.__malloc_lock
                0x000000000e475550        0xc /usr/lib/gcc/arm-none-eabi/11.2.0/../../../../arm-none-eabi/lib/thumb/v7+fp/hard/libc_nano.a(lib_a-mlock.o)
                0x000000000e475550                __malloc_lock
 .text.__malloc_unlock
                0x000000000e47555c        0xc /usr/lib/gcc/arm-none-eabi/11.2.0/../../../../arm-none-eabi/lib/thumb/v7+fp/hard/libc_nano.a(lib_a-mlock.o)
                0x000000000e47555c                __malloc_unlock
 .text._Balloc  0x000000000e475568       0x80 /usr/lib/gcc/arm-none-eabi/11.2.0/../../../../arm-none-eabi/lib/thumb/v7+fp/hard/libc_nano.a(lib_a-mprec.o)
                0x000000000e475568                _Balloc
 .text._Bfree   0x000000000e4755e8       0x44 /usr/lib/gcc/arm-none-eabi/11.2.0/../../../../arm-none-eabi/lib/thumb/v7+fp/hard/libc_nano.a(lib_a-mprec.o)
                0x000000000e4755e8                _Bfree
 .text.__multadd
                0x000000000e47562c       0x90 /usr/lib/gcc/arm-none-eabi/11.2.0/../../../../arm-none-eabi/lib/thumb/v7+fp/hard/libc_nano.a(lib_a-mprec.o)
                0x000000000e47562c                __multadd
 .text.__hi0bits
                0x000000000e4756bc       0x40 /usr/lib/gcc/arm-none-eabi/11.2.0/../../../../arm-none-eabi/lib/thumb/v7+fp/hard/libc_nano.a(lib_a-mprec.o)
                0x000000000e4756bc                __hi0bits
 .text.__lo0bits
                0x000000000e4756fc       0x5c /usr/lib/gcc/arm-none-eabi/11.2.0/../../../../arm-none-eabi/lib/thumb/v7+fp/hard/libc_nano.a(lib_a-mprec.o)
                0x000000000e4756fc                __lo0bits
 .text.__i2b    0x000000000e475758       0x2c /usr/lib/gcc/arm-none-eabi/11.2.0/../../../../arm-none-eabi/lib/thumb/v7+fp/hard/libc_nano.a(lib_a-mprec.o)
                0x000000000e475758                __i2b
 .text.__multiply
                0x000000000e475784      0x154 /usr/lib/gcc/arm-none-eabi/11.2.0/../../../../arm-none-eabi/lib/thumb/v7+fp/hard/libc_nano.a(lib_a-mprec.o)
                0x000000000e475784                __multiply
 .text.__pow5mult
                0x000000000e4758d8       0xb4 /usr/lib/gcc/arm-none-eabi/11.2.0/../../../../arm-none-eabi/lib/thumb/v7+fp/hard/libc_nano.a(lib_a-mprec.o)
                0x000000000e4758d8                __pow5mult
 .text.__lshift
                0x000000000e47598c       0xe0 /usr/lib/gcc/arm-none-eabi/11.2.0/../../../../arm-none-eabi/lib/thumb/v7+fp/hard/libc_nano.a(lib_a-mprec.o)
                0x000000000e47598c                __lshift
 .text.__mcmp   0x000000000e475a6c       0x38 /usr/lib/gcc/arm-none-eabi/11.2.0/../../../../arm-none-eabi/lib/thumb/v7+fp/hard/libc_nano.a(lib_a-mprec.o)
                0x000000000e475a6c                __mcmp
 .text.__mdiff  0x000000000e475aa4      0x11c /usr/lib/gcc/arm-none-eabi/11.2.0/../../../../arm-none-eabi/lib/thumb/v7+fp/hard/libc_nano.a(lib_a-mprec.o)
                0x000000000e475aa4                __mdiff
 .text.__d2b    0x000000000e475bc0       0xb8 /usr/lib/gcc/arm-none-eabi/11.2.0/../../../../arm-none-eabi/lib/thumb/v7+fp/hard/libc_nano.a(lib_a-mprec.o)
                0x000000000e475bc0                __d2b
 .text.__ssputs_r
                0x000000000e475c78       0xb6 /usr/lib/gcc/arm-none-eabi/11.2.0/../../../../arm-none-eabi/lib/thumb/v7+fp/hard/libc_nano.a(lib_a-nano-svfprintf.o)
                0x000000000e475c78                __ssputs_r
 *fill*         0x000000000e475d2e        0x2 00000000
 .text._svfprintf_r
                0x000000000e475d30      0x200 /usr/lib/gcc/arm-none-eabi/11.2.0/../../../../arm-none-eabi/lib/thumb/v7+fp/hard/libc_nano.a(lib_a-nano-svfprintf.o)
                0x000000000e475d30                _svfprintf_r
                0x000000000e475d30                _svfiprintf_r
 .text._sungetc_r
                0x000000000e475f30       0x7a /usr/lib/gcc/arm-none-eabi/11.2.0/../../../../arm-none-eabi/lib/thumb/v7+fp/hard/libc_nano.a(lib_a-nano-svfscanf.o)
                0x000000000e475f30                _sungetc_r
 .text.__ssrefill_r
                0x000000000e475faa       0x3a /usr/lib/gcc/arm-none-eabi/11.2.0/../../../../arm-none-eabi/lib/thumb/v7+fp/hard/libc_nano.a(lib_a-nano-svfscanf.o)
                0x000000000e475faa                __ssrefill_r
 .text.__ssvfscanf_r
                0x000000000e475fe4      0x2f4 /usr/lib/gcc/arm-none-eabi/11.2.0/../../../../arm-none-eabi/lib/thumb/v7+fp/hard/libc_nano.a(lib_a-nano-svfscanf.o)
                0x000000000e475fe4                __ssvfscanf_r
                0x000000000e475fe4                __ssvfiscanf_r
 .text.__sfputc_r
                0x000000000e4762d8       0x2e /usr/lib/gcc/arm-none-eabi/11.2.0/../../../../arm-none-eabi/lib/thumb/v7+fp/hard/libc_nano.a(lib_a-nano-vfprintf.o)
 .text.__sfputs_r
                0x000000000e476306       0x24 /usr/lib/gcc/arm-none-eabi/11.2.0/../../../../arm-none-eabi/lib/thumb/v7+fp/hard/libc_nano.a(lib_a-nano-vfprintf.o)
                0x000000000e476306                __sfputs_r
 *fill*         0x000000000e47632a        0x2 00000000
 .text._vfprintf_r
                0x000000000e47632c      0x260 /usr/lib/gcc/arm-none-eabi/11.2.0/../../../../arm-none-eabi/lib/thumb/v7+fp/hard/libc_nano.a(lib_a-nano-vfprintf.o)
                0x000000000e47632c                _vfiprintf_r
                0x000000000e47632c                _vfprintf_r
 .text._scanf_chars
                0x000000000e47658c       0xb4 /usr/lib/gcc/arm-none-eabi/11.2.0/../../../../arm-none-eabi/lib/thumb/v7+fp/hard/libc_nano.a(lib_a-nano-vfscanf_i.o)
                0x000000000e47658c                _scanf_chars
 .text._scanf_i
                0x000000000e476640      0x1e4 /usr/lib/gcc/arm-none-eabi/11.2.0/../../../../arm-none-eabi/lib/thumb/v7+fp/hard/libc_nano.a(lib_a-nano-vfscanf_i.o)
                0x000000000e476640                _scanf_i
 .text._read_r  0x000000000e476824       0x24 /usr/lib/gcc/arm-none-eabi/11.2.0/../../../../arm-none-eabi/lib/thumb/v7+fp/hard/libc_nano.a(lib_a-readr.o)
                0x000000000e476824                _read_r
 .text.__sccl   0x000000000e476848       0x70 /usr/lib/gcc/arm-none-eabi/11.2.0/../../../../arm-none-eabi/lib/thumb/v7+fp/hard/libc_nano.a(lib_a-sccl.o)
                0x000000000e476848                __sccl
 .text._strtoul_l.constprop.0
                0x000000000e4768b8       0xf4 /usr/lib/gcc/arm-none-eabi/11.2.0/../../../../arm-none-eabi/lib/thumb/v7+fp/hard/libc_nano.a(lib_a-strtoul.o)
 .text._strtoul_r
                0x000000000e4769ac        0x4 /usr/lib/gcc/arm-none-eabi/11.2.0/../../../../arm-none-eabi/lib/thumb/v7+fp/hard/libc_nano.a(lib_a-strtoul.o)
                0x000000000e4769ac                _strtoul_r
 .text.__submore
                0x000000000e4769b0       0x6e /usr/lib/gcc/arm-none-eabi/11.2.0/../../../../arm-none-eabi/lib/thumb/v7+fp/hard/libc_nano.a(lib_a-ungetc.o)
                0x000000000e4769b0                __submore
 .text.__ascii_wctomb
                0x000000000e476a1e       0x1a /usr/lib/gcc/arm-none-eabi/11.2.0/../../../../arm-none-eabi/lib/thumb/v7+fp/hard/libc_nano.a(lib_a-wctomb_r.o)
                0x000000000e476a1e                __ascii_wctomb
 .text.abort    0x000000000e476a38        0xe /usr/lib/gcc/arm-none-eabi/11.2.0/../../../../arm-none-eabi/lib/thumb/v7+fp/hard/libc_nano.a(lib_a-abort.o)
                0x000000000e476a38                abort
 *fill*         0x000000000e476a46        0x2 00000000
 .text._fstat_r
                0x000000000e476a48       0x24 /usr/lib/gcc/arm-none-eabi/11.2.0/../../../../arm-none-eabi/lib/thumb/v7+fp/hard/libc_nano.a(lib_a-fstatr.o)
                0x000000000e476a48                _fstat_r
 .text._isatty_r
                0x000000000e476a6c       0x20 /usr/lib/gcc/arm-none-eabi/11.2.0/../../../../arm-none-eabi/lib/thumb/v7+fp/hard/libc_nano.a(lib_a-isattyr.o)
                0x000000000e476a6c                _isatty_r
 .text._realloc_r
                0x000000000e476a8c       0x5e /usr/lib/gcc/arm-none-eabi/11.2.0/../../../../arm-none-eabi/lib/thumb/v7+fp/hard/libc_nano.a(lib_a-nano-reallocr.o)
                0x000000000e476a8c                _realloc_r
 .text._raise_r
                0x000000000e476aea       0x50 /usr/lib/gcc/arm-none-eabi/11.2.0/../../../../arm-none-eabi/lib/thumb/v7+fp/hard/libc_nano.a(lib_a-signal.o)
                0x000000000e476aea                _raise_r
 *fill*         0x000000000e476b3a        0x2 00000000
 .text.raise    0x000000000e476b3c       0x10 /usr/lib/gcc/arm-none-eabi/11.2.0/../../../../arm-none-eabi/lib/thumb/v7+fp/hard/libc_nano.a(lib_a-signal.o)
                0x000000000e476b3c                raise
 .text._kill_r  0x000000000e476b4c       0x24 /usr/lib/gcc/arm-none-eabi/11.2.0/../../../../arm-none-eabi/lib/thumb/v7+fp/hard/libc_nano.a(lib_a-signalr.o)
                0x000000000e476b4c                _kill_r
 .text._getpid_r
                0x000000000e476b70        0x4 /usr/lib/gcc/arm-none-eabi/11.2.0/../../../../arm-none-eabi/lib/thumb/v7+fp/hard/libc_nano.a(lib_a-signalr.o)
                0x000000000e476b70                _getpid_r
 .text._malloc_usable_size_r
                0x000000000e476b74       0x10 /usr/lib/gcc/arm-none-eabi/11.2.0/../../../../arm-none-eabi/lib/thumb/v7+fp/hard/libc_nano.a(lib_a-nano-msizer.o)
                0x000000000e476b74                _malloc_usable_size_r
 .text          0x000000000e476b84       0xac /usr/lib/gcc/arm-none-eabi/11.2.0/thumb/v7+fp/hard/libgcc.a(_udivsi3.o)
                0x000000000e476b84                __udivsi3
                0x000000000e476b84                __aeabi_uidiv
                0x000000000e476c14                __aeabi_uidivmod
 .text          0x000000000e476c30       0xe0 /usr/lib/gcc/arm-none-eabi/11.2.0/thumb/v7+fp/hard/libgcc.a(_divsi3.o)
                0x000000000e476c30                __aeabi_idiv
                0x000000000e476c30                __divsi3
                0x000000000e476cf4                __aeabi_idivmod
 .text._getpid  0x000000000e476d10       0x14 /usr/lib/gcc/arm-none-eabi/11.2.0/../../../../arm-none-eabi/lib/thumb/v7+fp/hard/libnosys.a(getpid.o)
                0x000000000e476d10                _getpid
 .text._kill    0x000000000e476d24       0x14 /usr/lib/gcc/arm-none-eabi/11.2.0/../../../../arm-none-eabi/lib/thumb/v7+fp/hard/libnosys.a(kill.o)
                0x000000000e476d24                _kill
 .text._kill.__stub
                0x000000000e476d38       0x28 linker stubs
 *(.gnu.warning)
 *(.glue_7t)
 .glue_7t       0x000000000e476d60        0x0 linker stubs
 *(.glue_7)
 .glue_7        0x000000000e476d60        0x0 linker stubs
 *(.vfp11_veneer)
 .vfp11_veneer  0x000000000e476d60        0x0 linker stubs
 *(.v4_bx)
 .v4_bx         0x000000000e476d60        0x0 linker stubs

.fini
 *(.fini)
                [!provide]                        PROVIDE (__etext = .)
                [!provide]                        PROVIDE (_etext = .)
                [!provide]                        PROVIDE (etext = .)

.rodata         0x000000000e476d60    0x1e76c
 *(.rodata .rodata.* .gnu.linkonce.r.*)
 .rodata.str1.4
                0x000000000e476d60      0x100 CMakeFiles/tube-client.dir/copro-defs.c.obj
 .rodata.default_set_rounding.str1.4
                0x000000000e476e60        0x7 CMakeFiles/tube-client.dir/framebuffer/fonts.c.obj
 *fill*         0x000000000e476e67        0x1 
 .rodata.str1.4
                0x000000000e476e68      0x155 CMakeFiles/tube-client.dir/framebuffer/fonts.c.obj
                                        0x159 (size before relaxing)
 *fill*         0x000000000e476fbd        0x3 
 .rodata.vdu_25.str1.4
                0x000000000e476fc0       0x1d CMakeFiles/tube-client.dir/framebuffer/framebuffer.c.obj
 *fill*         0x000000000e476fdd        0x3 
 .rodata.vdu_22.str1.4
                0x000000000e476fe0       0x1b CMakeFiles/tube-client.dir/framebuffer/framebuffer.c.obj
 *fill*         0x000000000e476ffb        0x1 
 .rodata.help_message.str1.4
                0x000000000e476ffc      0x157 CMakeFiles/tube-client.dir/framebuffer/framebuffer.c.obj
                                        0x15b (size before relaxing)
 *fill*         0x000000000e477153        0x1 
 .rodata        0x000000000e477154      0x1f8 CMakeFiles/tube-client.dir/framebuffer/framebuffer.c.obj
 .rodata.prim_fill_area.str1.4
                0x000000000e47734c       0x17 CMakeFiles/tube-client.dir/framebuffer/primitives.c.obj
 *fill*         0x000000000e477363        0x1 
 .rodata.prim_define_sprite.str1.4
                0x000000000e477364       0x26 CMakeFiles/tube-client.dir/framebuffer/primitives.c.obj
 *fill*         0x000000000e47738a        0x2 
 .rodata.prim_draw_sprite.str1.4
                0x000000000e47738c       0xb1 CMakeFiles/tube-client.dir/framebuffer/primitives.c.obj
 *fill*         0x000000000e47743d        0x3 
 .rodata.default_init_screen.str1.4
                0x000000000e477440      0x111 CMakeFiles/tube-client.dir/framebuffer/screen_modes.c.obj
 *fill*         0x000000000e477551        0x3 
 .rodata.OS_ScreenMode_impl.str1.4
                0x000000000e477554       0x64 CMakeFiles/tube-client.dir/framebuffer/swi_impl.c.obj
 .rodata.tt_reset.str1.4
                0x000000000e4775b8        0x8 CMakeFiles/tube-client.dir/framebuffer/teletext.c.obj
 .rodata.get_info_string.part.0.str1.4
                0x000000000e4775b8       0x1a CMakeFiles/tube-client.dir/info.c.obj
 *fill*         0x000000000e4775d2        0x2 
 .rodata.str1.4
                0x000000000e4775d4       0x9d CMakeFiles/tube-client.dir/info.c.obj
 *fill*         0x000000000e477671        0x3 
 .rodata        0x000000000e477674       0x60 CMakeFiles/tube-client.dir/info.c.obj
 .rodata.log_info.str1.4
                0x000000000e4776d4        0x7 CMakeFiles/tube-client.dir/logging.c.obj
                                          0xa (size before relaxing)
 *fill*         0x000000000e4776db        0x1 
 .rodata.log_warn.str1.4
                0x000000000e4776dc        0x7 CMakeFiles/tube-client.dir/logging.c.obj
 *fill*         0x000000000e4776e3        0x1 
 .rodata.reset_performance_counters.str1.4
                0x000000000e4776e4       0x24 CMakeFiles/tube-client.dir/performance.c.obj
 .rodata.str1.4
                0x000000000e477708      0x1cf CMakeFiles/tube-client.dir/performance.c.obj
                                        0x1db (size before relaxing)
 *fill*         0x000000000e4778d7        0x1 
 .rodata.type_names
                0x000000000e4778d8       0x80 CMakeFiles/tube-client.dir/performance.c.obj
 .rodata.copy_test_programs.str1.4
                0x000000000e477958       0x54 CMakeFiles/tube-client.dir/programs.c.obj
 .rodata        0x000000000e4779ac     0x4018 CMakeFiles/tube-client.dir/programs.c.obj
 .rodata.get_copro_mhz.str1.4
                0x000000000e47b9c4       0x1d CMakeFiles/tube-client.dir/tube-client.c.obj
 *fill*         0x000000000e47b9e1        0x3 
 .rodata.kernel_main.str1.4
                0x000000000e47b9e4       0x3c CMakeFiles/tube-client.dir/tube-client.c.obj
 .rodata.dump_info.str1.4
                0x000000000e47ba20       0xe7 CMakeFiles/tube-client.dir/tube-exception.c.obj
                                         0xeb (size before relaxing)
 *fill*         0x000000000e47bb07        0x1 
 .rodata.undefined_instruction_handler.str1.4
                0x000000000e47bb08       0x16 CMakeFiles/tube-client.dir/tube-exception.c.obj
 *fill*         0x000000000e47bb1e        0x2 
 .rodata.prefetch_abort_handler.str1.4
                0x000000000e47bb20        0xf CMakeFiles/tube-client.dir/tube-exception.c.obj
 *fill*         0x000000000e47bb2f        0x1 
 .rodata.data_abort_handler.str1.4
                0x000000000e47bb30        0xb CMakeFiles/tube-client.dir/tube-exception.c.obj
 *fill*         0x000000000e47bb3b        0x1 
 .rodata.swi_handler.str1.4
                0x000000000e47bb3c        0x4 CMakeFiles/tube-client.dir/tube-exception.c.obj
 .rodata.tube_parasite_write_banksel.str1.4
                0x000000000e47bb40       0x16 CMakeFiles/tube-client.dir/tube-ula.c.obj
 *fill*         0x000000000e47bb56        0x2 
 .rodata.tube_init_hardware.str1.4
                0x000000000e47bb58        0x4 CMakeFiles/tube-client.dir/tube-ula.c.obj
 .rodata.get_elk_mode.str1.4
                0x000000000e47bb5c        0x9 CMakeFiles/tube-client.dir/utils.c.obj
 *fill*         0x000000000e47bb65        0x3 
 .rodata.check_elk_mode_and_patch.str1.4
                0x000000000e47bb68       0x62 CMakeFiles/tube-client.dir/utils.c.obj
 *fill*         0x000000000e47bbca        0x2 
 .rodata.M6502_new.str1.4
                0x000000000e47bbcc       0x10 CMakeFiles/tube-client.dir/lib6502.c.obj
 .rodata.exec86.str1.4
                0x000000000e47bbdc       0x22 CMakeFiles/tube-client.dir/cpu80186/cpu80186.c.obj
 *fill*         0x000000000e47bbfe        0x2 
 .rodata.byteregtable
                0x000000000e47bc00        0x8 CMakeFiles/tube-client.dir/cpu80186/cpu80186.c.obj
 .rodata.parity
                0x000000000e47bc08      0x100 CMakeFiles/tube-client.dir/cpu80186/cpu80186.c.obj
 .rodata.copro_arm2_write32.str1.4
                0x000000000e47bd08       0x1c CMakeFiles/tube-client.dir/copro-arm2.c.obj
 .rodata.arm2_execute_run.str1.4
                0x000000000e47bd24      0x12a CMakeFiles/tube-client.dir/mame/arm.c.obj
 *fill*         0x000000000e47be4e        0x2 
 .rodata.sRegisterTable
                0x000000000e47be50      0x100 CMakeFiles/tube-client.dir/mame/arm.c.obj
 .rodata.n32016_warn.str1.4
                0x000000000e47bf50        0xf CMakeFiles/tube-client.dir/NS32016/32016.c.obj
 *fill*         0x000000000e47bf5f        0x1 
 .rodata.n32016_ShowRegs.str1.4
                0x000000000e47bf60      0x104 CMakeFiles/tube-client.dir/NS32016/32016.c.obj
 .rodata.GetGenPhase2.str1.4
                0x000000000e47c064       0x31 CMakeFiles/tube-client.dir/NS32016/32016.c.obj
 *fill*         0x000000000e47c095        0x3 
 .rodata.n32016_exec.str1.4
                0x000000000e47c098      0x10d CMakeFiles/tube-client.dir/NS32016/32016.c.obj
 *fill*         0x000000000e47c1a5        0x3 
 .rodata.IndexLKUP
                0x000000000e47c1a8       0x20 CMakeFiles/tube-client.dir/NS32016/32016.c.obj
 .rodata.OpSizeLookup
                0x000000000e47c1c8       0x18 CMakeFiles/tube-client.dir/NS32016/32016.c.obj
                0x000000000e47c1c8                OpSizeLookup
 .rodata.FormatSizes
                0x000000000e47c1e0       0x10 CMakeFiles/tube-client.dir/NS32016/Decode.c.obj
                0x000000000e47c1e0                FormatSizes
 .rodata.n32016_dumpregs.str1.4
                0x000000000e47c1f0        0x3 CMakeFiles/tube-client.dir/NS32016/Trap.c.obj
 .rodata.HandleTrap.str1.4
                0x000000000e47c1f0       0x14 CMakeFiles/tube-client.dir/NS32016/Trap.c.obj
 .rodata.TrapText
                0x000000000e47c204      0x208 CMakeFiles/tube-client.dir/NS32016/Trap.c.obj
 .rodata.read_x8.str1.4
                0x000000000e47c40c       0x10 CMakeFiles/tube-client.dir/NS32016/mem32016.c.obj
 .rodata.read_n.str1.4
                0x000000000e47c41c       0x21 CMakeFiles/tube-client.dir/NS32016/mem32016.c.obj
 *fill*         0x000000000e47c43d        0x3 
 .rodata.write_x8.str1.4
                0x000000000e47c440       0x25 CMakeFiles/tube-client.dir/NS32016/mem32016.c.obj
 *fill*         0x000000000e47c465        0x3 
 .rodata.PandoraV2_00
                0x000000000e47c468     0x8000 CMakeFiles/tube-client.dir/NS32016/mem32016.c.obj
 .rodata.partab
                0x000000000e484468      0x100 CMakeFiles/tube-client.dir/yaze/simz80.c.obj
 .rodata.sim_error.str1.4
                0x000000000e484568       0x19 CMakeFiles/tube-client.dir/mc6809nc/mc6809.c.obj
 *fill*         0x000000000e484581        0x3 
 .rodata.indexed.str1.4
                0x000000000e484584       0x1a CMakeFiles/tube-client.dir/mc6809nc/mc6809.c.obj
 *fill*         0x000000000e48459e        0x2 
 .rodata.mc6809nc_execute.str1.4
                0x000000000e4845a0       0x6b CMakeFiles/tube-client.dir/mc6809nc/mc6809.c.obj
 *fill*         0x000000000e48460b        0x1 
 .rodata.index_regs
                0x000000000e48460c       0x10 CMakeFiles/tube-client.dir/mc6809nc/mc6809.c.obj
 .rodata.do_writemem65816.str1.4
                0x000000000e48461c       0x33 CMakeFiles/tube-client.dir/65816/65816.c.obj
 *fill*         0x000000000e48464f        0x1 
 .rodata.panic.str1.4
                0x000000000e484650       0x6e CMakeFiles/tube-client.dir/pdp11/pdp11.c.obj
                                         0x92 (size before relaxing)
 *fill*         0x000000000e4846be        0x2 
 .rodata.trapat.str1.4
                0x000000000e4846c0       0x43 CMakeFiles/tube-client.dir/pdp11/pdp11.c.obj
 *fill*         0x000000000e484703        0x1 
 .rodata.pdp11_interrupt.str1.4
                0x000000000e484704       0x52 CMakeFiles/tube-client.dir/pdp11/pdp11.c.obj
 *fill*         0x000000000e484756        0x2 
 .rodata.pdp11_execute.str1.4
                0x000000000e484758       0xa1 CMakeFiles/tube-client.dir/pdp11/pdp11.c.obj
 *fill*         0x000000000e4847f9        0x3 
 .rodata.copro_null_emulator.str1.4
                0x000000000e4847fc       0x18 CMakeFiles/tube-client.dir/copro-null.c.obj
 .rodata.BAS135
                0x000000000e484814     0xefc4 CMakeFiles/tube-client.dir/armbasic.c.obj
 .rodata.cli_loop.str1.4
                0x000000000e4937d8       0x13 CMakeFiles/tube-client.dir/copro-armnative.c.obj
 *fill*         0x000000000e4937eb        0x1 
 .rodata.defaultUpcallHandler.str1.4
                0x000000000e4937ec        0xf CMakeFiles/tube-client.dir/copro-armnative.c.obj
 *fill*         0x000000000e4937fb        0x1 
 .rodata.defaultExceptionRegistersHandler.str1.4
                0x000000000e4937fc       0x1c CMakeFiles/tube-client.dir/copro-armnative.c.obj
 .rodata.defaultUnusedSWIHandler.str1.4
                0x000000000e493818       0x13 CMakeFiles/tube-client.dir/copro-armnative.c.obj
 *fill*         0x000000000e49382b        0x1 
 .rodata.defaultCallbackHandler.str1.4
                0x000000000e49382c       0x11 CMakeFiles/tube-client.dir/copro-armnative.c.obj
 *fill*         0x000000000e49383d        0x3 
 .rodata.defaultOtherExceptionHandler.str1.4
                0x000000000e493840       0x19 CMakeFiles/tube-client.dir/copro-armnative.c.obj
 *fill*         0x000000000e493859        0x3 
 .rodata.defaultAddressExceptionHandler.str1.4
                0x000000000e49385c       0x1a CMakeFiles/tube-client.dir/copro-armnative.c.obj
 *fill*         0x000000000e493876        0x2 
 .rodata.defaultDataAbortHandler.str1.4
                0x000000000e493878       0x13 CMakeFiles/tube-client.dir/copro-armnative.c.obj
 *fill*         0x000000000e49388b        0x1 
 .rodata.defaultPrefetchAbortHandler.str1.4
                0x000000000e49388c       0x17 CMakeFiles/tube-client.dir/copro-armnative.c.obj
 *fill*         0x000000000e4938a3        0x1 
 .rodata.defaultUndefinedInstructionHandler.str1.4
                0x000000000e4938a4       0x1e CMakeFiles/tube-client.dir/copro-armnative.c.obj
 *fill*         0x000000000e4938c2        0x2 
 .rodata.copro_armnative_emulator.str1.4
                0x000000000e4938c4       0x2d CMakeFiles/tube-client.dir/copro-armnative.c.obj
 *fill*         0x000000000e4938f1        0x3 
 .rodata.str1.4
                0x000000000e4938f4      0x1c1 CMakeFiles/tube-client.dir/darm/armv7-tbl.c.obj
                                        0x1d5 (size before relaxing)
 *fill*         0x000000000e493ab5        0x3 
 .rodata.darm_immshift_decode.str1.4
                0x000000000e493ab8        0x4 CMakeFiles/tube-client.dir/darm/armv7.c.obj
 .rodata.darm_condition_name.str1.4
                0x000000000e493abc        0x1 CMakeFiles/tube-client.dir/darm/armv7.c.obj
 .rodata.str1.4
                0x000000000e493abc      0x263 CMakeFiles/tube-client.dir/darm/armv7.c.obj
                                        0x26f (size before relaxing)
 *fill*         0x000000000e493d1f        0x1 
 .rodata.g_condition_codes
                0x000000000e493d20       0xd8 CMakeFiles/tube-client.dir/darm/armv7.c.obj
 .rodata.shift_types
                0x000000000e493df8       0x10 CMakeFiles/tube-client.dir/darm/armv7.c.obj
 .rodata.str1.4
                0x000000000e493e08      0xf02 CMakeFiles/tube-client.dir/darm/darm-tbl.c.obj
                                        0xf2a (size before relaxing)
 *fill*         0x000000000e494d0a        0x2 
 .rodata._utoa.str1.4
                0x000000000e494d0c       0x11 CMakeFiles/tube-client.dir/darm/darm.c.obj
 *fill*         0x000000000e494d1d        0x3 
 .rodata.darm_str2.str1.4
                0x000000000e494d20       0x26 CMakeFiles/tube-client.dir/darm/darm.c.obj
                                         0x37 (size before relaxing)
 *fill*         0x000000000e494d46        0x2 
 .rodata.doCmdFill.str1.4
                0x000000000e494d48        0xb CMakeFiles/tube-client.dir/tube-commands.c.obj
 *fill*         0x000000000e494d53        0x1 
 .rodata.doCmdGo.str1.4
                0x000000000e494d54        0x3 CMakeFiles/tube-client.dir/tube-commands.c.obj
 *fill*         0x000000000e494d57        0x1 
 .rodata.doCmdPiLIFE.str1.4
                0x000000000e494d58        0x9 CMakeFiles/tube-client.dir/tube-commands.c.obj
 *fill*         0x000000000e494d61        0x3 
 .rodata.doCmdTest.str1.4
                0x000000000e494d64        0xc CMakeFiles/tube-client.dir/tube-commands.c.obj
 .rodata.doCmdCrc.str1.4
                0x000000000e494d70       0x13 CMakeFiles/tube-client.dir/tube-commands.c.obj
 *fill*         0x000000000e494d83        0x1 
 .rodata.doCmdDis.str1.4
                0x000000000e494d84       0x15 CMakeFiles/tube-client.dir/tube-commands.c.obj
 *fill*         0x000000000e494d99        0x3 
 .rodata.doCmdMem.str1.4
                0x000000000e494d9c       0x13 CMakeFiles/tube-client.dir/tube-commands.c.obj
                                         0x17 (size before relaxing)
 *fill*         0x000000000e494daf        0x1 
 .rodata.doCmdHelp.str1.4
                0x000000000e494db0       0x69 CMakeFiles/tube-client.dir/tube-commands.c.obj
                                         0x71 (size before relaxing)
 *fill*         0x000000000e494e19        0x3 
 .rodata.doCmdPiVDU.str1.4
                0x000000000e494e1c       0x3c CMakeFiles/tube-client.dir/tube-commands.c.obj
 .rodata.dispatchCmd.str1.4
                0x000000000e494e58        0x5 CMakeFiles/tube-client.dir/tube-commands.c.obj
 *fill*         0x000000000e494e5d        0x3 
 .rodata.str1.4
                0x000000000e494e60       0x27 CMakeFiles/tube-client.dir/tube-commands.c.obj
                                         0x3b (size before relaxing)
 *fill*         0x000000000e494e87        0x1 
 .rodata.cmdFuncs
                0x000000000e494e88       0x28 CMakeFiles/tube-client.dir/tube-commands.c.obj
 .rodata.cmdMode
                0x000000000e494eb0       0x28 CMakeFiles/tube-client.dir/tube-commands.c.obj
 .rodata.cmdStrings
                0x000000000e494ed8       0x28 CMakeFiles/tube-client.dir/tube-commands.c.obj
 .rodata.copro_armnative_tube_interrupt_handler.str1.4
                0x000000000e494f00       0x1e CMakeFiles/tube-client.dir/tube-isr.c.obj
 *fill*         0x000000000e494f1e        0x2 
 .rodata.sendByte.str1.4
                0x000000000e494f20       0x4d CMakeFiles/tube-client.dir/tube-lib.c.obj
 *fill*         0x000000000e494f6d        0x3 
 .rodata.receiveByte.str1.4
                0x000000000e494f70       0x4d CMakeFiles/tube-client.dir/tube-lib.c.obj
 *fill*         0x000000000e494fbd        0x3 
 .rodata.tube_ChangeEnvironment.str1.4
                0x000000000e494fc0       0x1b CMakeFiles/tube-client.dir/tube-swi.c.obj
 *fill*         0x000000000e494fdb        0x1 
 .rodata.tube_SWI_Not_Known.str1.4
                0x000000000e494fdc       0x40 CMakeFiles/tube-client.dir/tube-swi.c.obj
 .rodata.tube_Word.str1.4
                0x000000000e49501c       0x2d CMakeFiles/tube-client.dir/tube-swi.c.obj
 *fill*         0x000000000e495049        0x3 
 .rodata.handler_not_implemented.str1.4
                0x000000000e49504c       0x29 CMakeFiles/tube-client.dir/tube-swi.c.obj
 *fill*         0x000000000e495075        0x3 
 .rodata.user_exec_raw.str1.4
                0x000000000e495078       0x15 CMakeFiles/tube-client.dir/tube-swi.c.obj
 *fill*         0x000000000e49508d        0x3 
 .rodata.osword_in_len
                0x000000000e495090       0x15 CMakeFiles/tube-client.dir/tube-swi.c.obj
 *fill*         0x000000000e4950a5        0x3 
 .rodata.osword_out_len
                0x000000000e4950a8       0x15 CMakeFiles/tube-client.dir/tube-swi.c.obj
 .rodata._ctype_
                0x000000000e4950bd      0x101 /usr/lib/gcc/arm-none-eabi/11.2.0/../../../../arm-none-eabi/lib/thumb/v7+fp/hard/libc_nano.a(lib_a-ctype_.o)
                0x000000000e4950bd                _ctype_
 *fill*         0x000000000e4951be        0x2 
 .rodata.__sf_fake_stderr
                0x000000000e4951c0       0x20 /usr/lib/gcc/arm-none-eabi/11.2.0/../../../../arm-none-eabi/lib/thumb/v7+fp/hard/libc_nano.a(lib_a-findfp.o)
                0x000000000e4951c0                __sf_fake_stderr
 .rodata.__sf_fake_stdin
                0x000000000e4951e0       0x20 /usr/lib/gcc/arm-none-eabi/11.2.0/../../../../arm-none-eabi/lib/thumb/v7+fp/hard/libc_nano.a(lib_a-findfp.o)
                0x000000000e4951e0                __sf_fake_stdin
 .rodata.__sf_fake_stdout
                0x000000000e495200       0x20 /usr/lib/gcc/arm-none-eabi/11.2.0/../../../../arm-none-eabi/lib/thumb/v7+fp/hard/libc_nano.a(lib_a-findfp.o)
                0x000000000e495200                __sf_fake_stdout
 .rodata._global_impure_ptr
                0x000000000e495220        0x4 /usr/lib/gcc/arm-none-eabi/11.2.0/../../../../arm-none-eabi/lib/thumb/v7+fp/hard/libc_nano.a(lib_a-impure.o)
                0x000000000e495220                _global_impure_ptr
 .rodata._printf_float.str1.1
                0x000000000e495224       0x10 /usr/lib/gcc/arm-none-eabi/11.2.0/../../../../arm-none-eabi/lib/thumb/v7+fp/hard/libc_nano.a(lib_a-nano-vfprintf_float.o)
                                         0x12 (size before relaxing)
 .rodata._printf_i.str1.1
                0x000000000e495234       0x22 /usr/lib/gcc/arm-none-eabi/11.2.0/../../../../arm-none-eabi/lib/thumb/v7+fp/hard/libc_nano.a(lib_a-nano-vfprintf_i.o)
 .rodata.srandom.str1.1
                0x000000000e495256       0x58 /usr/lib/gcc/arm-none-eabi/11.2.0/../../../../arm-none-eabi/lib/thumb/v7+fp/hard/libc_nano.a(lib_a-random.o)
 .rodata.__assert_func.str1.1
                0x000000000e4952ae       0x3c /usr/lib/gcc/arm-none-eabi/11.2.0/../../../../arm-none-eabi/lib/thumb/v7+fp/hard/libc_nano.a(lib_a-assert.o)
                                         0x3d (size before relaxing)
 .rodata._dtoa_r.str1.1
                0x000000000e4952ea       0x5d /usr/lib/gcc/arm-none-eabi/11.2.0/../../../../arm-none-eabi/lib/thumb/v7+fp/hard/libc_nano.a(lib_a-dtoa.o)
                                         0x76 (size before relaxing)
 .rodata._setlocale_r.str1.1
                0x000000000e495347        0x8 /usr/lib/gcc/arm-none-eabi/11.2.0/../../../../arm-none-eabi/lib/thumb/v7+fp/hard/libc_nano.a(lib_a-locale.o)
                                          0x9 (size before relaxing)
 .rodata.str1.1
                0x000000000e49534f        0x2 /usr/lib/gcc/arm-none-eabi/11.2.0/../../../../arm-none-eabi/lib/thumb/v7+fp/hard/libc_nano.a(lib_a-locale.o)
 .rodata._Balloc.str1.1
                0x000000000e495351       0x40 /usr/lib/gcc/arm-none-eabi/11.2.0/../../../../arm-none-eabi/lib/thumb/v7+fp/hard/libc_nano.a(lib_a-mprec.o)
                                         0x57 (size before relaxing)
 .rodata.__multadd.str1.1
                0x000000000e495391       0x11 /usr/lib/gcc/arm-none-eabi/11.2.0/../../../../arm-none-eabi/lib/thumb/v7+fp/hard/libc_nano.a(lib_a-mprec.o)
 *fill*         0x000000000e495391        0x7 
 .rodata.__mprec_bigtens
                0x000000000e495398       0x28 /usr/lib/gcc/arm-none-eabi/11.2.0/../../../../arm-none-eabi/lib/thumb/v7+fp/hard/libc_nano.a(lib_a-mprec.o)
                0x000000000e495398                __mprec_bigtens
 .rodata.__mprec_tens
                0x000000000e4953c0       0xc8 /usr/lib/gcc/arm-none-eabi/11.2.0/../../../../arm-none-eabi/lib/thumb/v7+fp/hard/libc_nano.a(lib_a-mprec.o)
                0x000000000e4953c0                __mprec_tens
 .rodata.p05.0  0x000000000e495488        0xc /usr/lib/gcc/arm-none-eabi/11.2.0/../../../../arm-none-eabi/lib/thumb/v7+fp/hard/libc_nano.a(lib_a-mprec.o)
 .rodata._svfprintf_r.str1.1
                0x000000000e495494       0x11 /usr/lib/gcc/arm-none-eabi/11.2.0/../../../../arm-none-eabi/lib/thumb/v7+fp/hard/libc_nano.a(lib_a-nano-svfprintf.o)
 .rodata.__ssvfscanf_r.str1.1
                0x000000000e4954a5        0x4 /usr/lib/gcc/arm-none-eabi/11.2.0/../../../../arm-none-eabi/lib/thumb/v7+fp/hard/libc_nano.a(lib_a-nano-svfscanf.o)
 .rodata._vfprintf_r.str1.1
                0x000000000e4954a5       0x11 /usr/lib/gcc/arm-none-eabi/11.2.0/../../../../arm-none-eabi/lib/thumb/v7+fp/hard/libc_nano.a(lib_a-nano-vfprintf.o)
 .rodata.str1.1
                0x000000000e4954a5        0x9 /usr/lib/gcc/arm-none-eabi/11.2.0/../../../../arm-none-eabi/lib/thumb/v7+fp/hard/libc_nano.a(lib_a-nano-vfscanf_i.o)
 .rodata._scanf_i.str1.1
                0x000000000e4954ae       0x12 /usr/lib/gcc/arm-none-eabi/11.2.0/../../../../arm-none-eabi/lib/thumb/v7+fp/hard/libc_nano.a(lib_a-nano-vfscanf_i.o)
 .rodata        0x000000000e4954c0        0xc /usr/lib/gcc/arm-none-eabi/11.2.0/../../../../arm-none-eabi/lib/thumb/v7+fp/hard/libc_nano.a(lib_a-nano-vfscanf_i.o)

.rodata1
 *(.rodata1)

.ARM.extab
 *(.ARM.extab* .gnu.linkonce.armextab.*)
                [!provide]                        PROVIDE (__exidx_start = .)

.ARM.exidx      0x000000000e4954cc        0x8
 *(.ARM.exidx* .gnu.linkonce.armexidx.*)
 .ARM.exidx.text.__udivmoddi4
                0x000000000e4954cc        0x8 /usr/lib/gcc/arm-none-eabi/11.2.0/thumb/v7+fp/hard/libgcc.a(_udivmoddi4.o)
                [!provide]                        PROVIDE (__exidx_end = .)

.eh_frame_hdr
 *(.eh_frame_hdr)

.eh_frame
 *(.eh_frame)

.gcc_except_table
 *(.gcc_except_table .gcc_except_table.*)

.exception_ranges
 *(.exception_ranges .exception_ranges*)

.eh_frame
 *(.eh_frame)

.gcc_except_table
 *(.gcc_except_table .gcc_except_table.*)

.exception_ranges
 *(.exception_ranges .exception_ranges*)

.tdata
 *(.tdata .tdata.* .gnu.linkonce.td.*)

.tbss
 *(.tbss .tbss.* .gnu.linkonce.tb.*)
 *(.tcommon)

.preinit_array  0x000000000e4954d4        0x0
                [!provide]                        PROVIDE (__preinit_array_start = .)
 *(.preinit_array)
                [!provide]                        PROVIDE (__preinit_array_end = .)

.init_array     0x000000000e4954d4        0x0
                [!provide]                        PROVIDE (__init_array_start = .)
 *(SORT_BY_NAME(.init_array.*))
 *(.init_array)
                [!provide]                        PROVIDE (__init_array_end = .)

.fini_array     0x000000000e4954d4        0x0
                [!provide]                        PROVIDE (__fini_array_start = .)
 *(SORT_BY_NAME(.fini_array.*))
 *(.fini_array)
                [!provide]                        PROVIDE (__fini_array_end = .)

.ctors
 *crtbegin.o(.ctors)
 *crtbegin?.o(.ctors)
 *(EXCLUDE_FILE(*crtend?.o *crtend.o) .ctors)
 *(SORT_BY_NAME(.ctors.*))
 *(.ctors)

.dtors
 *crtbegin.o(.dtors)
 *crtbegin?.o(.dtors)
 *(EXCLUDE_FILE(*crtend?.o *crtend.o) .dtors)
 *(SORT_BY_NAME(.dtors.*))
 *(.dtors)

.jcr
 *(.jcr)

.data.rel.ro
 *(.data.rel.ro.local* .gnu.linkonce.d.rel.ro.local.*)
 *(.data.rel.ro* .gnu.linkonce.d.rel.ro.*)

.dynamic
 *(.dynamic)

.got            0x000000000e4954d4        0x0
 *(.got.plt)
 *(.igot.plt)
 .igot.plt      0x000000000e4954d4        0x0 CMakeFiles/tube-client.dir/armc-cstartup.c.obj
 *(.got)
 *(.igot)

.data           0x000000000e4954d4    0x4e0cc
                0x000000000e4954d4                __data_start = .
 *(.data .data.* .gnu.linkonce.d.*)
 .data.copro_defs
                0x000000000e4954d4      0x180 CMakeFiles/tube-client.dir/copro-defs.c.obj
                0x000000000e4954d4                copro_defs
 .data.font01   0x000000000e495654     0x1000 CMakeFiles/tube-client.dir/framebuffer/fonts.c.obj
                0x000000000e495654                font01
 .data.font02   0x000000000e496654     0x1000 CMakeFiles/tube-client.dir/framebuffer/fonts.c.obj
                0x000000000e496654                font02
 .data.font03   0x000000000e497654     0x1000 CMakeFiles/tube-client.dir/framebuffer/fonts.c.obj
                0x000000000e497654                font03
 .data.font04   0x000000000e498654     0x1000 CMakeFiles/tube-client.dir/framebuffer/fonts.c.obj
                0x000000000e498654                font04
 .data.font05   0x000000000e499654     0x1000 CMakeFiles/tube-client.dir/framebuffer/fonts.c.obj
                0x000000000e499654                font05
 .data.font06   0x000000000e49a654     0x1000 CMakeFiles/tube-client.dir/framebuffer/fonts.c.obj
                0x000000000e49a654                font06
 .data.font07   0x000000000e49b654     0x1000 CMakeFiles/tube-client.dir/framebuffer/fonts.c.obj
                0x000000000e49b654                font07
 .data.font08   0x000000000e49c654     0x1000 CMakeFiles/tube-client.dir/framebuffer/fonts.c.obj
                0x000000000e49c654                font08
 .data.font09   0x000000000e49d654     0x1000 CMakeFiles/tube-client.dir/framebuffer/fonts.c.obj
                0x000000000e49d654                font09
 .data.font10   0x000000000e49e654     0x1000 CMakeFiles/tube-client.dir/framebuffer/fonts.c.obj
                0x000000000e49e654                font10
 .data.font11   0x000000000e49f654     0x1000 CMakeFiles/tube-client.dir/framebuffer/fonts.c.obj
                0x000000000e49f654                font11
 .data.font12   0x000000000e4a0654     0x1000 CMakeFiles/tube-client.dir/framebuffer/fonts.c.obj
                0x000000000e4a0654                font12
 .data.font13   0x000000000e4a1654     0x1000 CMakeFiles/tube-client.dir/framebuffer/fonts.c.obj
                0x000000000e4a1654                font13
 .data.font14   0x000000000e4a2654     0x1000 CMakeFiles/tube-client.dir/framebuffer/fonts.c.obj
                0x000000000e4a2654                font14
 .data.font15   0x000000000e4a3654     0x1000 CMakeFiles/tube-client.dir/framebuffer/fonts.c.obj
                0x000000000e4a3654                font15
 .data.font16   0x000000000e4a4654     0x1000 CMakeFiles/tube-client.dir/framebuffer/fonts.c.obj
                0x000000000e4a4654                font16
 .data.font17   0x000000000e4a5654     0x1000 CMakeFiles/tube-client.dir/framebuffer/fonts.c.obj
                0x000000000e4a5654                font17
 .data.font18   0x000000000e4a6654     0x1000 CMakeFiles/tube-client.dir/framebuffer/fonts.c.obj
                0x000000000e4a6654                font18
 .data.font19   0x000000000e4a7654     0x1000 CMakeFiles/tube-client.dir/framebuffer/fonts.c.obj
                0x000000000e4a7654                font19
 .data.font20   0x000000000e4a8654     0x1000 CMakeFiles/tube-client.dir/framebuffer/fonts.c.obj
                0x000000000e4a8654                font20
 .data.font21   0x000000000e4a9654     0x1000 CMakeFiles/tube-client.dir/framebuffer/fonts.c.obj
                0x000000000e4a9654                font21
 .data.font22   0x000000000e4aa654     0x1000 CMakeFiles/tube-client.dir/framebuffer/fonts.c.obj
                0x000000000e4aa654                font22
 .data.font23   0x000000000e4ab654     0x1000 CMakeFiles/tube-client.dir/framebuffer/fonts.c.obj
                0x000000000e4ab654                font23
 .data.font24   0x000000000e4ac654     0x1000 CMakeFiles/tube-client.dir/framebuffer/fonts.c.obj
                0x000000000e4ac654                font24
 .data.font25   0x000000000e4ad654     0x1000 CMakeFiles/tube-client.dir/framebuffer/fonts.c.obj
                0x000000000e4ad654                font25
 .data.font26   0x000000000e4ae654     0x1000 CMakeFiles/tube-client.dir/framebuffer/fonts.c.obj
                0x000000000e4ae654                font26
 .data.font27   0x000000000e4af654     0x1000 CMakeFiles/tube-client.dir/framebuffer/fonts.c.obj
                0x000000000e4af654                font27
 .data.font28   0x000000000e4b0654     0x1000 CMakeFiles/tube-client.dir/framebuffer/fonts.c.obj
                0x000000000e4b0654                font28
 .data.font29   0x000000000e4b1654     0x1000 CMakeFiles/tube-client.dir/framebuffer/fonts.c.obj
                0x000000000e4b1654                font29
 .data.font30   0x000000000e4b2654     0x1000 CMakeFiles/tube-client.dir/framebuffer/fonts.c.obj
                0x000000000e4b2654                font30
 .data.font31   0x000000000e4b3654     0x1000 CMakeFiles/tube-client.dir/framebuffer/fonts.c.obj
                0x000000000e4b3654                font31
 .data.font6847
                0x000000000e4b4654      0x600 CMakeFiles/tube-client.dir/framebuffer/fonts.c.obj
                0x000000000e4b4654                font6847
 .data.font_catalog
                0x000000000e4b4c54     0x13dc CMakeFiles/tube-client.dir/framebuffer/fonts.c.obj
 .data.fontbbc  0x000000000e4b6030      0x800 CMakeFiles/tube-client.dir/framebuffer/fonts.c.obj
                0x000000000e4b6030                fontbbc
 .data.saa5050  0x000000000e4b6830      0xa00 CMakeFiles/tube-client.dir/framebuffer/fonts.c.obj
                0x000000000e4b6830                saa5050
 .data.saa5051  0x000000000e4b7230      0xa00 CMakeFiles/tube-client.dir/framebuffer/fonts.c.obj
                0x000000000e4b7230                saa5051
 .data.saa5052  0x000000000e4b7c30      0xa00 CMakeFiles/tube-client.dir/framebuffer/fonts.c.obj
                0x000000000e4b7c30                saa5052
 .data.saa5053  0x000000000e4b8630      0xa00 CMakeFiles/tube-client.dir/framebuffer/fonts.c.obj
                0x000000000e4b8630                saa5053
 .data.saa5054  0x000000000e4b9030      0xa00 CMakeFiles/tube-client.dir/framebuffer/fonts.c.obj
                0x000000000e4b9030                saa5054
 .data.saa5055  0x000000000e4b9a30      0xa00 CMakeFiles/tube-client.dir/framebuffer/fonts.c.obj
                0x000000000e4b9a30                saa5055
 .data.saa5056  0x000000000e4ba430      0xa00 CMakeFiles/tube-client.dir/framebuffer/fonts.c.obj
                0x000000000e4ba430                saa5056
 .data.saa5057  0x000000000e4bae30      0xa00 CMakeFiles/tube-client.dir/framebuffer/fonts.c.obj
                0x000000000e4bae30                saa5057
 .data.flash_mark_time
                0x000000000e4bb830        0x1 CMakeFiles/tube-client.dir/framebuffer/framebuffer.c.obj
 .data.flash_space_time
                0x000000000e4bb831        0x1 CMakeFiles/tube-client.dir/framebuffer/framebuffer.c.obj
 *fill*         0x000000000e4bb832        0x2 
 .data.vdu_operation_table
                0x000000000e4bb834      0x800 CMakeFiles/tube-client.dir/framebuffer/framebuffer.c.obj
 .data.screen_modes
                0x000000000e4bc034     0x1a94 CMakeFiles/tube-client.dir/framebuffer/screen_modes.c.obj
 .data.vdu_device
                0x000000000e4bdac8        0x1 CMakeFiles/tube-client.dir/framebuffer/swi_impl.c.obj
 *fill*         0x000000000e4bdac9        0x3 
 .data.teletext_screen_modes
                0x000000000e4bdacc      0x1b0 CMakeFiles/tube-client.dir/framebuffer/teletext.c.obj
 .data.RPI_GpioBase
                0x000000000e4bdc7c        0x4 CMakeFiles/tube-client.dir/rpi-gpio.c.obj
                0x000000000e4bdc7c                RPI_GpioBase
 .data.tubevc_doorbell_asm
                0x000000000e4bdc80      0x264 CMakeFiles/tube-client.dir/tubevc.c.obj
                0x000000000e4bdc80                tubevc_doorbell_asm
 .data.itab.0   0x000000000e4bdee4      0x400 CMakeFiles/tube-client.dir/lib6502.c.obj
 .data.tuberom_6502_extern_1_10
                0x000000000e4be2e4      0x800 CMakeFiles/tube-client.dir/tuberom_6502.c.obj
                0x000000000e4be2e4                tuberom_6502_extern_1_10
 .data.tuberom_6502_intern_1_10
                0x000000000e4beae4      0x800 CMakeFiles/tube-client.dir/tuberom_6502.c.obj
                0x000000000e4beae4                tuberom_6502_intern_1_10
 .data.tuberom_6502_turbo
                0x000000000e4bf2e4      0x800 CMakeFiles/tube-client.dir/tuberom_6502_turbo.c.obj
                0x000000000e4bf2e4                tuberom_6502_turbo
 .data.Client86_v1_01
                0x000000000e4bfae4     0x4000 CMakeFiles/tube-client.dir/cpu80186/mem80186.c.obj
                0x000000000e4bfae4                Client86_v1_01
 .data.tuberom_arm_v100
                0x000000000e4c3ae4     0x4000 CMakeFiles/tube-client.dir/tuberom_arm.c.obj
                0x000000000e4c3ae4                tuberom_arm_v100
 .data.copro_z80_rom
                0x000000000e4c7ae4     0x1000 CMakeFiles/tube-client.dir/copro-z80.c.obj
 .data.tuberom_6809_jgh_1_0
                0x000000000e4c8ae4      0x800 CMakeFiles/tube-client.dir/tuberom_6809.c.obj
                0x000000000e4c8ae4                tuberom_6809_jgh_1_0
 .data.tuberom_opc5ls
                0x000000000e4c92e4     0x2000 CMakeFiles/tube-client.dir/opc5ls/tuberom.c.obj
                0x000000000e4c92e4                tuberom_opc5ls
 .data.tuberom_opc6
                0x000000000e4cb2e4     0x1000 CMakeFiles/tube-client.dir/opc6/tuberom.c.obj
                0x000000000e4cb2e4                tuberom_opc6
 .data.tuberom_opc7
                0x000000000e4cc2e4     0x2000 CMakeFiles/tube-client.dir/opc7/tuberom.c.obj
                0x000000000e4cc2e4                tuberom_opc7
 .data.tuberom_f100
                0x000000000e4ce2e4     0x1000 CMakeFiles/tube-client.dir/f100/tuberom.c.obj
                0x000000000e4ce2e4                tuberom_f100
 .data.tuberom_f100_high
                0x000000000e4cf2e4      0x200 CMakeFiles/tube-client.dir/f100/tuberom.c.obj
                0x000000000e4cf2e4                tuberom_f100_high
 .data.def      0x000000000e4cf4e4        0x1 CMakeFiles/tube-client.dir/65816/65816.c.obj
 *fill*         0x000000000e4cf4e5        0x3 
 .data.opcodes  0x000000000e4cf4e8     0x1400 CMakeFiles/tube-client.dir/65816/65816.c.obj
 .data.w65816mask
                0x000000000e4d08e8        0x4 CMakeFiles/tube-client.dir/65816/65816.c.obj
 .data.tuberom_dominic65816_bin
                0x000000000e4d08ec     0x8000 CMakeFiles/tube-client.dir/65816/tuberom_dominic65816.c.obj
                0x000000000e4d08ec                tuberom_dominic65816_bin
 .data.tuberom_reco65816_bin
                0x000000000e4d88ec     0x8000 CMakeFiles/tube-client.dir/65816/tuberom_reco65816.c.obj
                0x000000000e4d88ec                tuberom_reco65816_bin
 .data.m_pdp11  0x000000000e4e08ec        0x4 CMakeFiles/tube-client.dir/pdp11/pdp11.c.obj
                0x000000000e4e08ec                m_pdp11
 .data.tuberom_pdp11
                0x000000000e4e08f0      0x800 CMakeFiles/tube-client.dir/pdp11/tuberom.c.obj
                0x000000000e4e08f0                tuberom_pdp11
 .data.env      0x000000000e4e10f0        0x4 CMakeFiles/tube-client.dir/copro-armnative.c.obj
                0x000000000e4e10f0                env
 .data.armv7_format_strings
                0x000000000e4e10f4     0x1674 CMakeFiles/tube-client.dir/darm/armv7-tbl.c.obj
                0x000000000e4e10f4                armv7_format_strings
 .data.armv7_instr_labels
                0x000000000e4e2768      0x200 CMakeFiles/tube-client.dir/darm/armv7-tbl.c.obj
                0x000000000e4e2768                armv7_instr_labels
 .data.armv7_instr_types
                0x000000000e4e2968      0x100 CMakeFiles/tube-client.dir/darm/armv7-tbl.c.obj
                0x000000000e4e2968                armv7_instr_types
 .data.type_bits_instr_lookup
                0x000000000e4e2a68        0x8 CMakeFiles/tube-client.dir/darm/armv7-tbl.c.obj
                0x000000000e4e2a68                type_bits_instr_lookup
 .data.type_brnchmisc_instr_lookup
                0x000000000e4e2a70       0x20 CMakeFiles/tube-client.dir/darm/armv7-tbl.c.obj
                0x000000000e4e2a70                type_brnchmisc_instr_lookup
 .data.type_mul_instr_lookup
                0x000000000e4e2a90       0x10 CMakeFiles/tube-client.dir/darm/armv7-tbl.c.obj
                0x000000000e4e2a90                type_mul_instr_lookup
 .data.type_opless_instr_lookup
                0x000000000e4e2aa0       0x10 CMakeFiles/tube-client.dir/darm/armv7-tbl.c.obj
                0x000000000e4e2aa0                type_opless_instr_lookup
 .data.type_pas_instr_lookup
                0x000000000e4e2ab0       0x80 CMakeFiles/tube-client.dir/darm/armv7-tbl.c.obj
                0x000000000e4e2ab0                type_pas_instr_lookup
 .data.type_pusr_instr_lookup
                0x000000000e4e2b30       0x20 CMakeFiles/tube-client.dir/darm/armv7-tbl.c.obj
                0x000000000e4e2b30                type_pusr_instr_lookup
 .data.type_sat_instr_lookup
                0x000000000e4e2b50        0x8 CMakeFiles/tube-client.dir/darm/armv7-tbl.c.obj
                0x000000000e4e2b50                type_sat_instr_lookup
 .data.type_shift_instr_lookup
                0x000000000e4e2b58       0x20 CMakeFiles/tube-client.dir/darm/armv7-tbl.c.obj
                0x000000000e4e2b58                type_shift_instr_lookup
 .data.type_stack0_instr_lookup
                0x000000000e4e2b78       0x40 CMakeFiles/tube-client.dir/darm/armv7-tbl.c.obj
                0x000000000e4e2b78                type_stack0_instr_lookup
 .data.type_stack1_instr_lookup
                0x000000000e4e2bb8       0x10 CMakeFiles/tube-client.dir/darm/armv7-tbl.c.obj
                0x000000000e4e2bb8                type_stack1_instr_lookup
 .data.type_stack2_instr_lookup
                0x000000000e4e2bc8       0x10 CMakeFiles/tube-client.dir/darm/armv7-tbl.c.obj
                0x000000000e4e2bc8                type_stack2_instr_lookup
 .data.type_sync_instr_lookup
                0x000000000e4e2bd8       0x20 CMakeFiles/tube-client.dir/darm/armv7-tbl.c.obj
                0x000000000e4e2bd8                type_sync_instr_lookup
 .data.type_uncond2_instr_lookup
                0x000000000e4e2bf8       0x10 CMakeFiles/tube-client.dir/darm/armv7-tbl.c.obj
                0x000000000e4e2bf8                type_uncond2_instr_lookup
 .data.darm_mnemonics
                0x000000000e4e2c08      0x588 CMakeFiles/tube-client.dir/darm/darm-tbl.c.obj
                0x000000000e4e2c08                darm_mnemonics
 .data.darm_registers
                0x000000000e4e3190       0x40 CMakeFiles/tube-client.dir/darm/darm-tbl.c.obj
                0x000000000e4e3190                darm_registers
 .data.SWIHandler_Table
                0x000000000e4e31d0      0x200 CMakeFiles/tube-client.dir/tube-swi.c.obj
                0x000000000e4e31d0                SWIHandler_Table
 .data._impure_ptr
                0x000000000e4e33d0        0x4 /usr/lib/gcc/arm-none-eabi/11.2.0/../../../../arm-none-eabi/lib/thumb/v7+fp/hard/libc_nano.a(lib_a-impure.o)
                0x000000000e4e33d0                _impure_ptr
 .data.impure_data
                0x000000000e4e33d4       0x60 /usr/lib/gcc/arm-none-eabi/11.2.0/../../../../arm-none-eabi/lib/thumb/v7+fp/hard/libc_nano.a(lib_a-impure.o)
 .data.__global_locale
                0x000000000e4e3434      0x16c /usr/lib/gcc/arm-none-eabi/11.2.0/../../../../arm-none-eabi/lib/thumb/v7+fp/hard/libc_nano.a(lib_a-locale.o)
                0x000000000e4e3434                __global_locale

.data1
 *(.data1)
                0x000000000e4e35a0                _edata = .
                [!provide]                        PROVIDE (edata = .)
                0x000000000e4e35a0                __bss_start = .
                0x000000000e4e35a0                __bss_start__ = .

.bss            0x000000000e4e4000    0x22264
 *(.dynbss)
 *(.bss .bss.* .gnu.linkonce.b.*)
 .bss.heap_end.0
                0x000000000e4e4000        0x4 CMakeFiles/tube-client.dir/armc-cstubs.c.obj
 *fill*         0x000000000e4e4004     0x3ffc 
 .bss.PageTable
                0x000000000e4e8000     0x4000 CMakeFiles/tube-client.dir/cache.c.obj
 .bss.PageTable2
                0x000000000e4ec000      0x800 CMakeFiles/tube-client.dir/cache.c.obj
 *fill*         0x000000000e4ec800     0x3800 
 .bss.PageTable3
                0x000000000e4f0000      0x400 CMakeFiles/tube-client.dir/cache.c.obj
 .bss.current_font
                0x000000000e4f0400       0x7c CMakeFiles/tube-client.dir/framebuffer/fonts.c.obj
 .bss.b_visible
                0x000000000e4f047c        0x2 CMakeFiles/tube-client.dir/framebuffer/framebuffer.c.obj
 .bss.b_x_pos   0x000000000e4f047e        0x2 CMakeFiles/tube-client.dir/framebuffer/framebuffer.c.obj
 .bss.b_y_pos   0x000000000e4f0480        0x2 CMakeFiles/tube-client.dir/framebuffer/framebuffer.c.obj
 .bss.c_bg_col  0x000000000e4f0482        0x1 CMakeFiles/tube-client.dir/framebuffer/framebuffer.c.obj
 *fill*         0x000000000e4f0483        0x1 
 .bss.c_enabled
                0x000000000e4f0484        0x2 CMakeFiles/tube-client.dir/framebuffer/framebuffer.c.obj
 .bss.c_fg_col  0x000000000e4f0486        0x1 CMakeFiles/tube-client.dir/framebuffer/framebuffer.c.obj
 *fill*         0x000000000e4f0487        0x1 
 .bss.c_x_pos   0x000000000e4f0488        0x2 CMakeFiles/tube-client.dir/framebuffer/framebuffer.c.obj
 .bss.c_y_pos   0x000000000e4f048a        0x2 CMakeFiles/tube-client.dir/framebuffer/framebuffer.c.obj
 .bss.current_sprite
                0x000000000e4f048c        0x1 CMakeFiles/tube-client.dir/framebuffer/framebuffer.c.obj
 .bss.cursor_count.5
                0x000000000e4f048d        0x1 CMakeFiles/tube-client.dir/framebuffer/framebuffer.c.obj
 *fill*         0x000000000e4f048e        0x2 
 .bss.cursor_height
                0x000000000e4f0490        0x4 CMakeFiles/tube-client.dir/framebuffer/framebuffer.c.obj
 .bss.e_enabled
                0x000000000e4f0494        0x2 CMakeFiles/tube-client.dir/framebuffer/framebuffer.c.obj
 .bss.e_x_pos   0x000000000e4f0496        0x2 CMakeFiles/tube-client.dir/framebuffer/framebuffer.c.obj
 .bss.e_y_pos   0x000000000e4f0498        0x2 CMakeFiles/tube-client.dir/framebuffer/framebuffer.c.obj
 .bss.f_visible
                0x000000000e4f049a        0x2 CMakeFiles/tube-client.dir/framebuffer/framebuffer.c.obj
 .bss.f_x_pos   0x000000000e4f049c        0x2 CMakeFiles/tube-client.dir/framebuffer/framebuffer.c.obj
 .bss.f_y_pos   0x000000000e4f049e        0x2 CMakeFiles/tube-client.dir/framebuffer/framebuffer.c.obj
 .bss.flash_count.3
                0x000000000e4f04a0        0x1 CMakeFiles/tube-client.dir/framebuffer/framebuffer.c.obj
 .bss.flash_state.4
                0x000000000e4f04a1        0x1 CMakeFiles/tube-client.dir/framebuffer/framebuffer.c.obj
 *fill*         0x000000000e4f04a2        0x2 
 .bss.font_height
                0x000000000e4f04a4        0x4 CMakeFiles/tube-client.dir/framebuffer/framebuffer.c.obj
 .bss.font_width
                0x000000000e4f04a8        0x4 CMakeFiles/tube-client.dir/framebuffer/framebuffer.c.obj
 .bss.g_bg_col  0x000000000e4f04ac        0x1 CMakeFiles/tube-client.dir/framebuffer/framebuffer.c.obj
 .bss.g_fg_col  0x000000000e4f04ad        0x1 CMakeFiles/tube-client.dir/framebuffer/framebuffer.c.obj
 *fill*         0x000000000e4f04ae        0x2 
 .bss.g_window  0x000000000e4f04b0        0x8 CMakeFiles/tube-client.dir/framebuffer/framebuffer.c.obj
 .bss.g_x_origin
                0x000000000e4f04b8        0x2 CMakeFiles/tube-client.dir/framebuffer/framebuffer.c.obj
 .bss.g_x_pos   0x000000000e4f04ba        0x2 CMakeFiles/tube-client.dir/framebuffer/framebuffer.c.obj
 .bss.g_x_pos_last1
                0x000000000e4f04bc        0x2 CMakeFiles/tube-client.dir/framebuffer/framebuffer.c.obj
 .bss.g_x_pos_last2
                0x000000000e4f04be        0x2 CMakeFiles/tube-client.dir/framebuffer/framebuffer.c.obj
 .bss.g_y_origin
                0x000000000e4f04c0        0x2 CMakeFiles/tube-client.dir/framebuffer/framebuffer.c.obj
 .bss.g_y_pos   0x000000000e4f04c2        0x2 CMakeFiles/tube-client.dir/framebuffer/framebuffer.c.obj
 .bss.g_y_pos_last1
                0x000000000e4f04c4        0x2 CMakeFiles/tube-client.dir/framebuffer/framebuffer.c.obj
 .bss.g_y_pos_last2
                0x000000000e4f04c6        0x2 CMakeFiles/tube-client.dir/framebuffer/framebuffer.c.obj
 .bss.screen    0x000000000e4f04c8        0x4 CMakeFiles/tube-client.dir/framebuffer/framebuffer.c.obj
 .bss.t_window  0x000000000e4f04cc        0x4 CMakeFiles/tube-client.dir/framebuffer/framebuffer.c.obj
 .bss.text_at_g_cursor
                0x000000000e4f04d0        0x1 CMakeFiles/tube-client.dir/framebuffer/framebuffer.c.obj
 *fill*         0x000000000e4f04d1        0x3 
 .bss.text_height
                0x000000000e4f04d4        0x4 CMakeFiles/tube-client.dir/framebuffer/framebuffer.c.obj
 .bss.text_width
                0x000000000e4f04d8        0x4 CMakeFiles/tube-client.dir/framebuffer/framebuffer.c.obj
 .bss.vdu_buf.1
                0x000000000e4f04dc       0x10 CMakeFiles/tube-client.dir/framebuffer/framebuffer.c.obj
 .bss.vdu_index.2
                0x000000000e4f04ec        0x4 CMakeFiles/tube-client.dir/framebuffer/framebuffer.c.obj
 .bss.vdu_op.0  0x000000000e4f04f0        0x4 CMakeFiles/tube-client.dir/framebuffer/framebuffer.c.obj
 .bss.vdu_queue
                0x000000000e4f04f4     0x2000 CMakeFiles/tube-client.dir/framebuffer/framebuffer.c.obj
 .bss.vdu_rp    0x000000000e4f24f4        0x4 CMakeFiles/tube-client.dir/framebuffer/framebuffer.c.obj
 .bss.vdu_wp    0x000000000e4f24f8        0x4 CMakeFiles/tube-client.dir/framebuffer/framebuffer.c.obj
 .bss.vsync_flag
                0x000000000e4f24fc        0x4 CMakeFiles/tube-client.dir/framebuffer/framebuffer.c.obj
 .bss.arc_end_x
                0x000000000e4f2500        0x2 CMakeFiles/tube-client.dir/framebuffer/primitives.c.obj
 .bss.arc_end_y
                0x000000000e4f2502        0x2 CMakeFiles/tube-client.dir/framebuffer/primitives.c.obj
 .bss.arc_fill_x
                0x000000000e4f2504        0x2 CMakeFiles/tube-client.dir/framebuffer/primitives.c.obj
 .bss.arc_fill_y
                0x000000000e4f2506        0x2 CMakeFiles/tube-client.dir/framebuffer/primitives.c.obj
 .bss.flood_queue_rd
                0x000000000e4f2508        0x4 CMakeFiles/tube-client.dir/framebuffer/primitives.c.obj
 .bss.flood_queue_wr
                0x000000000e4f250c        0x4 CMakeFiles/tube-client.dir/framebuffer/primitives.c.obj
 .bss.flood_queue_x
                0x000000000e4f2510     0x8000 CMakeFiles/tube-client.dir/framebuffer/primitives.c.obj
 .bss.flood_queue_y
                0x000000000e4fa510     0x8000 CMakeFiles/tube-client.dir/framebuffer/primitives.c.obj
 .bss.g_bg_plotmode
                0x000000000e502510        0x1 CMakeFiles/tube-client.dir/framebuffer/primitives.c.obj
 .bss.g_fg_plotmode
                0x000000000e502511        0x1 CMakeFiles/tube-client.dir/framebuffer/primitives.c.obj
 .bss.g_x_max   0x000000000e502512        0x2 CMakeFiles/tube-client.dir/framebuffer/primitives.c.obj
 .bss.g_x_min   0x000000000e502514        0x2 CMakeFiles/tube-client.dir/framebuffer/primitives.c.obj
 .bss.g_y_max   0x000000000e502516        0x2 CMakeFiles/tube-client.dir/framebuffer/primitives.c.obj
 .bss.g_y_min   0x000000000e502518        0x2 CMakeFiles/tube-client.dir/framebuffer/primitives.c.obj
 *fill*         0x000000000e50251a        0x2 
 .bss.sprites   0x000000000e50251c     0x1000 CMakeFiles/tube-client.dir/framebuffer/primitives.c.obj
 .bss.colour_table
                0x000000000e50351c      0x400 CMakeFiles/tube-client.dir/framebuffer/screen_modes.c.obj
 .bss.fb        0x000000000e50391c        0x4 CMakeFiles/tube-client.dir/framebuffer/screen_modes.c.obj
                0x000000000e50391c                fb
 .bss.last_mark.0
                0x000000000e503920        0x4 CMakeFiles/tube-client.dir/framebuffer/screen_modes.c.obj
 .bss.base_handler
                0x000000000e503924      0x200 CMakeFiles/tube-client.dir/framebuffer/swi_impl.c.obj
 .bss.initialized
                0x000000000e503b24        0x4 CMakeFiles/tube-client.dir/framebuffer/swi_impl.c.obj
 .bss.tt        0x000000000e503b28      0xac0 CMakeFiles/tube-client.dir/framebuffer/teletext.c.obj
                0x000000000e503b28                tt
 .bss.cmdline   0x000000000e5045e8      0x400 CMakeFiles/tube-client.dir/info.c.obj
 .bss.info_string
                0x000000000e5049e8      0x400 CMakeFiles/tube-client.dir/info.c.obj
 .bss.read.1    0x000000000e504de8        0x4 CMakeFiles/tube-client.dir/info.c.obj
 .bss.read.3    0x000000000e504dec        0x4 CMakeFiles/tube-client.dir/info.c.obj
 .bss.result.0  0x000000000e504df0        0xc CMakeFiles/tube-client.dir/info.c.obj
 .bss.ret.2     0x000000000e504dfc      0x400 CMakeFiles/tube-client.dir/info.c.obj
 .bss.speed.4   0x000000000e5051fc        0x4 CMakeFiles/tube-client.dir/info.c.obj
 .bss.tx_buffer
                0x000000000e505200        0x4 CMakeFiles/tube-client.dir/rpi-aux.c.obj
 .bss.tx_head   0x000000000e505204        0x4 CMakeFiles/tube-client.dir/rpi-aux.c.obj
 .bss.tx_tail   0x000000000e505208        0x4 CMakeFiles/tube-client.dir/rpi-aux.c.obj
 .bss.property.0
                0x000000000e50520c      0x408 CMakeFiles/tube-client.dir/rpi-mailbox-interface.c.obj
 .bss.pt_index  0x000000000e505614        0x4 CMakeFiles/tube-client.dir/rpi-mailbox-interface.c.obj
 .bss.arm_speed
                0x000000000e505618        0x4 CMakeFiles/tube-client.dir/tube-client.c.obj
                0x000000000e505618                arm_speed
 .bss.copro     0x000000000e50561c        0x4 CMakeFiles/tube-client.dir/tube-client.c.obj
                0x000000000e50561c                copro
 .bss.copro_def
                0x000000000e505620        0x4 CMakeFiles/tube-client.dir/tube-client.c.obj
 .bss.copro_memory_size
                0x000000000e505624        0x4 CMakeFiles/tube-client.dir/tube-client.c.obj
                0x000000000e505624                copro_memory_size
 .bss.copro_speed
                0x000000000e505628        0x4 CMakeFiles/tube-client.dir/tube-client.c.obj
                0x000000000e505628                copro_speed
 .bss.tube_delay
                0x000000000e50562c        0x4 CMakeFiles/tube-client.dir/tube-client.c.obj
                0x000000000e50562c                tube_delay
 .bss.copro_command
                0x000000000e505630        0x1 CMakeFiles/tube-client.dir/tube-ula.c.obj
 *fill*         0x000000000e505631        0x3 
 .bss.host_addr_bus
                0x000000000e505634        0x4 CMakeFiles/tube-client.dir/tube-ula.c.obj
 .bss.hp1       0x000000000e505638        0x1 CMakeFiles/tube-client.dir/tube-ula.c.obj
 .bss.hp2       0x000000000e505639        0x1 CMakeFiles/tube-client.dir/tube-ula.c.obj
 *fill*         0x000000000e50563a        0x2 
 .bss.hp3       0x000000000e50563c        0x2 CMakeFiles/tube-client.dir/tube-ula.c.obj
 .bss.hp3pos    0x000000000e50563e        0x1 CMakeFiles/tube-client.dir/tube-ula.c.obj
 .bss.hp4       0x000000000e50563f        0x1 CMakeFiles/tube-client.dir/tube-ula.c.obj
 .bss.led_type  0x000000000e505640        0x4 CMakeFiles/tube-client.dir/tube-ula.c.obj
 .bss.pct       0x000000000e505644       0x38 CMakeFiles/tube-client.dir/tube-ula.c.obj
 .bss.ph1       0x000000000e50567c       0x18 CMakeFiles/tube-client.dir/tube-ula.c.obj
 .bss.ph1len    0x000000000e505694        0x1 CMakeFiles/tube-client.dir/tube-ula.c.obj
 .bss.ph1rdpos  0x000000000e505695        0x1 CMakeFiles/tube-client.dir/tube-ula.c.obj
 .bss.ph1wrpos  0x000000000e505696        0x1 CMakeFiles/tube-client.dir/tube-ula.c.obj
 .bss.ph3_1     0x000000000e505697        0x1 CMakeFiles/tube-client.dir/tube-ula.c.obj
 .bss.ph3pos    0x000000000e505698        0x1 CMakeFiles/tube-client.dir/tube-ula.c.obj
 *fill*         0x000000000e505699        0x3 
 .bss.pstat     0x000000000e50569c        0x4 CMakeFiles/tube-client.dir/tube-ula.c.obj
 .bss.test_pin  0x000000000e5056a0        0x4 CMakeFiles/tube-client.dir/tube-ula.c.obj
                0x000000000e5056a0                test_pin
 .bss.tube_irq  0x000000000e5056a4        0x4 CMakeFiles/tube-client.dir/tube-ula.c.obj
                0x000000000e5056a4                tube_irq
 .bss.vdu_enabled
                0x000000000e5056a8        0x4 CMakeFiles/tube-client.dir/tube-ula.c.obj
 .bss.copro_lib6502_mpu
                0x000000000e5056ac        0x4 CMakeFiles/tube-client.dir/copro-lib6502.c.obj
                0x000000000e5056ac                copro_lib6502_mpu
 .bss.last_copro
                0x000000000e5056b0        0x4 CMakeFiles/tube-client.dir/copro-lib6502.c.obj
 .bss.turbo     0x000000000e5056b4        0x1 CMakeFiles/tube-client.dir/copro-lib6502.c.obj
                0x000000000e5056b4                turbo
 .bss.af        0x000000000e5056b5        0x1 CMakeFiles/tube-client.dir/cpu80186/cpu80186.c.obj
 .bss.cf        0x000000000e5056b6        0x1 CMakeFiles/tube-client.dir/cpu80186/cpu80186.c.obj
 .bss.df        0x000000000e5056b7        0x1 CMakeFiles/tube-client.dir/cpu80186/cpu80186.c.obj
 .bss.disp16    0x000000000e5056b8        0x2 CMakeFiles/tube-client.dir/cpu80186/cpu80186.c.obj
 *fill*         0x000000000e5056ba        0x2 
 .bss.ea        0x000000000e5056bc        0x4 CMakeFiles/tube-client.dir/cpu80186/cpu80186.c.obj
 .bss.firstip.0
                0x000000000e5056c0        0x2 CMakeFiles/tube-client.dir/cpu80186/cpu80186.c.obj
 .bss.frametemp
                0x000000000e5056c2        0x2 CMakeFiles/tube-client.dir/cpu80186/cpu80186.c.obj
 .bss.ifl       0x000000000e5056c4        0x1 CMakeFiles/tube-client.dir/cpu80186/cpu80186.c.obj
                0x000000000e5056c4                ifl
 *fill*         0x000000000e5056c5        0x1 
 .bss.ip        0x000000000e5056c6        0x2 CMakeFiles/tube-client.dir/cpu80186/cpu80186.c.obj
                0x000000000e5056c6                ip
 .bss.mode      0x000000000e5056c8        0x1 CMakeFiles/tube-client.dir/cpu80186/cpu80186.c.obj
 .bss.nestlev   0x000000000e5056c9        0x1 CMakeFiles/tube-client.dir/cpu80186/cpu80186.c.obj
 .bss.of        0x000000000e5056ca        0x1 CMakeFiles/tube-client.dir/cpu80186/cpu80186.c.obj
 *fill*         0x000000000e5056cb        0x1 
 .bss.oldsp     0x000000000e5056cc        0x2 CMakeFiles/tube-client.dir/cpu80186/cpu80186.c.obj
 .bss.opcode    0x000000000e5056ce        0x1 CMakeFiles/tube-client.dir/cpu80186/cpu80186.c.obj
 *fill*         0x000000000e5056cf        0x1 
 .bss.oper1     0x000000000e5056d0        0x2 CMakeFiles/tube-client.dir/cpu80186/cpu80186.c.obj
 .bss.oper1b    0x000000000e5056d2        0x1 CMakeFiles/tube-client.dir/cpu80186/cpu80186.c.obj
 *fill*         0x000000000e5056d3        0x1 
 .bss.oper2     0x000000000e5056d4        0x2 CMakeFiles/tube-client.dir/cpu80186/cpu80186.c.obj
 .bss.oper2b    0x000000000e5056d6        0x1 CMakeFiles/tube-client.dir/cpu80186/cpu80186.c.obj
 .bss.pf        0x000000000e5056d7        0x1 CMakeFiles/tube-client.dir/cpu80186/cpu80186.c.obj
 .bss.reg       0x000000000e5056d8        0x1 CMakeFiles/tube-client.dir/cpu80186/cpu80186.c.obj
 *fill*         0x000000000e5056d9        0x3 
 .bss.regs      0x000000000e5056dc       0x10 CMakeFiles/tube-client.dir/cpu80186/cpu80186.c.obj
                0x000000000e5056dc                regs
 .bss.reptype   0x000000000e5056ec        0x1 CMakeFiles/tube-client.dir/cpu80186/cpu80186.c.obj
 *fill*         0x000000000e5056ed        0x1 
 .bss.res16     0x000000000e5056ee        0x2 CMakeFiles/tube-client.dir/cpu80186/cpu80186.c.obj
 .bss.res8      0x000000000e5056f0        0x1 CMakeFiles/tube-client.dir/cpu80186/cpu80186.c.obj
 .bss.rm        0x000000000e5056f1        0x1 CMakeFiles/tube-client.dir/cpu80186/cpu80186.c.obj
 .bss.savecs    0x000000000e5056f2        0x2 CMakeFiles/tube-client.dir/cpu80186/cpu80186.c.obj
 .bss.saveip    0x000000000e5056f4        0x2 CMakeFiles/tube-client.dir/cpu80186/cpu80186.c.obj
 .bss.segoverride
                0x000000000e5056f6        0x1 CMakeFiles/tube-client.dir/cpu80186/cpu80186.c.obj
 *fill*         0x000000000e5056f7        0x1 
 .bss.segregs   0x000000000e5056f8        0x8 CMakeFiles/tube-client.dir/cpu80186/cpu80186.c.obj
                0x000000000e5056f8                segregs
 .bss.sf        0x000000000e505700        0x1 CMakeFiles/tube-client.dir/cpu80186/cpu80186.c.obj
 *fill*         0x000000000e505701        0x1 
 .bss.stacksize
                0x000000000e505702        0x2 CMakeFiles/tube-client.dir/cpu80186/cpu80186.c.obj
 .bss.temp1     0x000000000e505704        0x4 CMakeFiles/tube-client.dir/cpu80186/cpu80186.c.obj
 .bss.temp16    0x000000000e505708        0x2 CMakeFiles/tube-client.dir/cpu80186/cpu80186.c.obj
 *fill*         0x000000000e50570a        0x2 
 .bss.temp2     0x000000000e50570c        0x4 CMakeFiles/tube-client.dir/cpu80186/cpu80186.c.obj
 .bss.tempcf    0x000000000e505710        0x1 CMakeFiles/tube-client.dir/cpu80186/cpu80186.c.obj
 .bss.tf        0x000000000e505711        0x1 CMakeFiles/tube-client.dir/cpu80186/cpu80186.c.obj
 .bss.trap_toggle.1
                0x000000000e505712        0x2 CMakeFiles/tube-client.dir/cpu80186/cpu80186.c.obj
 .bss.useseg    0x000000000e505714        0x2 CMakeFiles/tube-client.dir/cpu80186/cpu80186.c.obj
 .bss.zf        0x000000000e505716        0x1 CMakeFiles/tube-client.dir/cpu80186/cpu80186.c.obj
 *fill*         0x000000000e505717        0x1 
 .bss.RAM       0x000000000e505718        0x4 CMakeFiles/tube-client.dir/cpu80186/mem80186.c.obj
                0x000000000e505718                RAM
 .bss.RAM_LIMIT
                0x000000000e50571c        0x4 CMakeFiles/tube-client.dir/cpu80186/mem80186.c.obj
 .bss.arm2_ram  0x000000000e505720        0x4 CMakeFiles/tube-client.dir/copro-arm2.c.obj
 .bss.m_coproRegister
                0x000000000e505724       0x40 CMakeFiles/tube-client.dir/mame/arm.c.obj
 .bss.m_copro_type
                0x000000000e505764        0x1 CMakeFiles/tube-client.dir/mame/arm.c.obj
 .bss.m_pendingFiq
                0x000000000e505765        0x1 CMakeFiles/tube-client.dir/mame/arm.c.obj
 .bss.m_pendingIrq
                0x000000000e505766        0x1 CMakeFiles/tube-client.dir/mame/arm.c.obj
 *fill*         0x000000000e505767        0x1 
 .bss.m_sArmRegister
                0x000000000e505768       0x6c CMakeFiles/tube-client.dir/mame/arm.c.obj
                0x000000000e505768                m_sArmRegister
 *fill*         0x000000000e5057d4        0x4 
 .bss.FR        0x000000000e5057d8       0x40 CMakeFiles/tube-client.dir/NS32016/32016.c.obj
 .bss.FSR       0x000000000e505818        0x4 CMakeFiles/tube-client.dir/NS32016/32016.c.obj
 *fill*         0x000000000e50581c        0x4 
 .bss.Immediate64
                0x000000000e505820        0x8 CMakeFiles/tube-client.dir/NS32016/32016.c.obj
 .bss.OpSize    0x000000000e505828        0x4 CMakeFiles/tube-client.dir/NS32016/32016.c.obj
 .bss.PR        0x000000000e50582c       0x40 CMakeFiles/tube-client.dir/NS32016/32016.c.obj
                0x000000000e50582c                PR
 .bss.Regs      0x000000000e50586c        0x8 CMakeFiles/tube-client.dir/NS32016/32016.c.obj
                0x000000000e50586c                Regs
 .bss.genaddr   0x000000000e505874        0x8 CMakeFiles/tube-client.dir/NS32016/32016.c.obj
 .bss.genreg    0x000000000e50587c        0x8 CMakeFiles/tube-client.dir/NS32016/32016.c.obj
 .bss.gentype   0x000000000e505884        0x8 CMakeFiles/tube-client.dir/NS32016/32016.c.obj
 .bss.pc        0x000000000e50588c        0x4 CMakeFiles/tube-client.dir/NS32016/32016.c.obj
 .bss.r         0x000000000e505890       0x20 CMakeFiles/tube-client.dir/NS32016/32016.c.obj
                0x000000000e505890                r
 .bss.sp        0x000000000e5058b0        0x8 CMakeFiles/tube-client.dir/NS32016/32016.c.obj
                0x000000000e5058b0                sp
 .bss.startpc   0x000000000e5058b8        0x4 CMakeFiles/tube-client.dir/NS32016/32016.c.obj
 .bss.FunctionLookup
                0x000000000e5058bc      0x100 CMakeFiles/tube-client.dir/NS32016/Decode.c.obj
                0x000000000e5058bc                FunctionLookup
 .bss.TrapFlags
                0x000000000e5059bc        0x4 CMakeFiles/tube-client.dir/NS32016/Trap.c.obj
                0x000000000e5059bc                TrapFlags
 .bss.RAM_SIZE  0x000000000e5059c0        0x4 CMakeFiles/tube-client.dir/NS32016/mem32016.c.obj
 .bss.ns32016ram
                0x000000000e5059c4        0x4 CMakeFiles/tube-client.dir/NS32016/mem32016.c.obj
 .bss.tubecycles
                0x000000000e5059c8        0x4 CMakeFiles/tube-client.dir/copro-32016.c.obj
                0x000000000e5059c8                tubecycles
 .bss.overlay_rom
                0x000000000e5059cc        0x4 CMakeFiles/tube-client.dir/copro-z80.c.obj
 .bss.IFF       0x000000000e5059d0        0x2 CMakeFiles/tube-client.dir/yaze/simz80.c.obj
 *fill*         0x000000000e5059d2        0x2 
 .bss.af        0x000000000e5059d4        0x4 CMakeFiles/tube-client.dir/yaze/simz80.c.obj
 .bss.af_sel    0x000000000e5059d8        0x4 CMakeFiles/tube-client.dir/yaze/simz80.c.obj
 .bss.ir        0x000000000e5059dc        0x2 CMakeFiles/tube-client.dir/yaze/simz80.c.obj
 .bss.ix        0x000000000e5059de        0x2 CMakeFiles/tube-client.dir/yaze/simz80.c.obj
 .bss.iy        0x000000000e5059e0        0x2 CMakeFiles/tube-client.dir/yaze/simz80.c.obj
 .bss.pc        0x000000000e5059e2        0x2 CMakeFiles/tube-client.dir/yaze/simz80.c.obj
 .bss.regs      0x000000000e5059e4        0xc CMakeFiles/tube-client.dir/yaze/simz80.c.obj
 .bss.regs_sel  0x000000000e5059f0        0x4 CMakeFiles/tube-client.dir/yaze/simz80.c.obj
 .bss.sp        0x000000000e5059f4        0x2 CMakeFiles/tube-client.dir/yaze/simz80.c.obj
 *fill*         0x000000000e5059f6        0x2 
 .bss.overlay_rom
                0x000000000e5059f8        0x4 CMakeFiles/tube-client.dir/copro-mc6809nc.c.obj
 .bss.A         0x000000000e5059fc        0x1 CMakeFiles/tube-client.dir/mc6809nc/mc6809.c.obj
 .bss.B         0x000000000e5059fd        0x1 CMakeFiles/tube-client.dir/mc6809nc/mc6809.c.obj
 *fill*         0x000000000e5059fe        0x2 
 .bss.C         0x000000000e505a00        0x4 CMakeFiles/tube-client.dir/mc6809nc/mc6809.c.obj
 .bss.DP        0x000000000e505a04        0x2 CMakeFiles/tube-client.dir/mc6809nc/mc6809.c.obj
 .bss.EFI       0x000000000e505a06        0x1 CMakeFiles/tube-client.dir/mc6809nc/mc6809.c.obj
 *fill*         0x000000000e505a07        0x1 
 .bss.H         0x000000000e505a08        0x4 CMakeFiles/tube-client.dir/mc6809nc/mc6809.c.obj
 .bss.N         0x000000000e505a0c        0x1 CMakeFiles/tube-client.dir/mc6809nc/mc6809.c.obj
 *fill*         0x000000000e505a0d        0x3 
 .bss.OV        0x000000000e505a10        0x4 CMakeFiles/tube-client.dir/mc6809nc/mc6809.c.obj
 .bss.PC        0x000000000e505a14        0x2 CMakeFiles/tube-client.dir/mc6809nc/mc6809.c.obj
 .bss.S         0x000000000e505a16        0x2 CMakeFiles/tube-client.dir/mc6809nc/mc6809.c.obj
 .bss.U         0x000000000e505a18        0x2 CMakeFiles/tube-client.dir/mc6809nc/mc6809.c.obj
 .bss.X         0x000000000e505a1a        0x2 CMakeFiles/tube-client.dir/mc6809nc/mc6809.c.obj
 .bss.Y         0x000000000e505a1c        0x2 CMakeFiles/tube-client.dir/mc6809nc/mc6809.c.obj
 .bss.Z         0x000000000e505a1e        0x1 CMakeFiles/tube-client.dir/mc6809nc/mc6809.c.obj
 *fill*         0x000000000e505a1f        0x1 
 .bss.cc_changed
                0x000000000e505a20        0x4 CMakeFiles/tube-client.dir/mc6809nc/mc6809.c.obj
 .bss.cpu_clk   0x000000000e505a24        0x4 CMakeFiles/tube-client.dir/mc6809nc/mc6809.c.obj
 .bss.cpu_period
                0x000000000e505a28        0x4 CMakeFiles/tube-client.dir/mc6809nc/mc6809.c.obj
 .bss.ea        0x000000000e505a2c        0x2 CMakeFiles/tube-client.dir/mc6809nc/mc6809.c.obj
 *fill*         0x000000000e505a2e        0x2 
 .bss.firqs_pending
                0x000000000e505a30        0x4 CMakeFiles/tube-client.dir/mc6809nc/mc6809.c.obj
 .bss.iPC       0x000000000e505a34        0x2 CMakeFiles/tube-client.dir/mc6809nc/mc6809.c.obj
 *fill*         0x000000000e505a36        0x2 
 .bss.irqs_pending
                0x000000000e505a38        0x4 CMakeFiles/tube-client.dir/mc6809nc/mc6809.c.obj
 .bss.sync_flag
                0x000000000e505a3c        0x4 CMakeFiles/tube-client.dir/mc6809nc/mc6809.c.obj
 .bss.memory    0x000000000e505a40        0x4 CMakeFiles/tube-client.dir/copro-opc5ls.c.obj
 .bss.s         0x000000000e505a44       0x30 CMakeFiles/tube-client.dir/opc5ls/opc5ls.c.obj
 .bss.memory    0x000000000e505a74        0x4 CMakeFiles/tube-client.dir/copro-opc6.c.obj
 .bss.s         0x000000000e505a78       0x34 CMakeFiles/tube-client.dir/opc6/opc6.c.obj
 .bss.memory    0x000000000e505aac        0x4 CMakeFiles/tube-client.dir/copro-opc7.c.obj
 .bss.s         0x000000000e505ab0       0x60 CMakeFiles/tube-client.dir/opc7/opc7.c.obj
 .bss.memory    0x000000000e505b10        0x4 CMakeFiles/tube-client.dir/copro-f100.c.obj
 .bss.cpu       0x000000000e505b14       0x20 CMakeFiles/tube-client.dir/f100/f100.c.obj
 .bss.reset_vec
                0x000000000e505b34        0x2 CMakeFiles/tube-client.dir/f100/f100.c.obj
 .bss.banking   0x000000000e505b36        0x1 CMakeFiles/tube-client.dir/65816/65816.c.obj
 .bss.banknum   0x000000000e505b37        0x1 CMakeFiles/tube-client.dir/65816/65816.c.obj
 .bss.cycles    0x000000000e505b38        0x4 CMakeFiles/tube-client.dir/65816/65816.c.obj
 .bss.dbr       0x000000000e505b3c        0x4 CMakeFiles/tube-client.dir/65816/65816.c.obj
 .bss.divider   0x000000000e505b40        0x1 CMakeFiles/tube-client.dir/65816/65816.c.obj
 *fill*         0x000000000e505b41        0x1 
 .bss.dp        0x000000000e505b42        0x2 CMakeFiles/tube-client.dir/65816/65816.c.obj
 .bss.inwai     0x000000000e505b44        0x4 CMakeFiles/tube-client.dir/65816/65816.c.obj
 .bss.modeptr   0x000000000e505b48        0x4 CMakeFiles/tube-client.dir/65816/65816.c.obj
 .bss.pbr       0x000000000e505b4c        0x4 CMakeFiles/tube-client.dir/65816/65816.c.obj
 .bss.w65816a   0x000000000e505b50        0x2 CMakeFiles/tube-client.dir/65816/65816.c.obj
 *fill*         0x000000000e505b52        0x2 
 .bss.w65816nvb
                0x000000000e505b54        0x4 CMakeFiles/tube-client.dir/65816/65816.c.obj
 .bss.w65816p   0x000000000e505b58       0x28 CMakeFiles/tube-client.dir/65816/65816.c.obj
                0x000000000e505b58                w65816p
 .bss.w65816pc  0x000000000e505b80        0x2 CMakeFiles/tube-client.dir/65816/65816.c.obj
 *fill*         0x000000000e505b82        0x2 
 .bss.w65816ram
                0x000000000e505b84        0x4 CMakeFiles/tube-client.dir/65816/65816.c.obj
 .bss.w65816rom
                0x000000000e505b88        0x4 CMakeFiles/tube-client.dir/65816/65816.c.obj
 .bss.w65816s   0x000000000e505b8c        0x2 CMakeFiles/tube-client.dir/65816/65816.c.obj
 *fill*         0x000000000e505b8e        0x2 
 .bss.w65816x   0x000000000e505b90        0x2 CMakeFiles/tube-client.dir/65816/65816.c.obj
 *fill*         0x000000000e505b92        0x2 
 .bss.w65816y   0x000000000e505b94        0x2 CMakeFiles/tube-client.dir/65816/65816.c.obj
 *fill*         0x000000000e505b96        0x2 
 .bss.wins      0x000000000e505b98        0x4 CMakeFiles/tube-client.dir/65816/65816.c.obj
 .bss.memory    0x000000000e505b9c        0x4 CMakeFiles/tube-client.dir/copro-pdp11.c.obj
 .bss.cpu       0x000000000e505ba0       0x38 CMakeFiles/tube-client.dir/pdp11/pdp11.c.obj
 .bss.trapbuf   0x000000000e505bd8       0x5c CMakeFiles/tube-client.dir/pdp11/pdp11.c.obj
 .bss.armbasic  0x000000000e505c34        0x4 CMakeFiles/tube-client.dir/armbasic.c.obj
                0x000000000e505c34                armbasic
 .bss.banner    0x000000000e505c38       0x50 CMakeFiles/tube-client.dir/copro-armnative.c.obj
 .bss.defaultEnvironment
                0x000000000e505c88      0x1d4 CMakeFiles/tube-client.dir/copro-armnative.c.obj
 .bss.defaultErrorBuffer
                0x000000000e505e5c      0x104 CMakeFiles/tube-client.dir/copro-armnative.c.obj
 .bss.defaultEscapeFlag
                0x000000000e505f60        0x4 CMakeFiles/tube-client.dir/copro-armnative.c.obj
 .bss.enterOS   0x000000000e505f64       0x5c CMakeFiles/tube-client.dir/copro-armnative.c.obj
 .bss.last_copro
                0x000000000e505fc0        0x4 CMakeFiles/tube-client.dir/copro-armnative.c.obj
 .bss.reboot    0x000000000e505fc4       0x5c CMakeFiles/tube-client.dir/copro-armnative.c.obj
 .bss.reset_sent
                0x000000000e506020        0x4 CMakeFiles/tube-client.dir/copro-armnative.c.obj
 .bss.line      0x000000000e506024      0x100 CMakeFiles/tube-client.dir/tube-commands.c.obj
 .bss.a1.2      0x000000000e506124        0x1 CMakeFiles/tube-client.dir/tube-isr.c.obj
 .bss.a2.3      0x000000000e506125        0x1 CMakeFiles/tube-client.dir/tube-isr.c.obj
 .bss.a3.4      0x000000000e506126        0x1 CMakeFiles/tube-client.dir/tube-isr.c.obj
 *fill*         0x000000000e506127        0x1 
 .bss.count     0x000000000e506128        0x4 CMakeFiles/tube-client.dir/tube-isr.c.obj
 .bss.eblk.7    0x000000000e50612c        0x4 CMakeFiles/tube-client.dir/tube-isr.c.obj
 .bss.emsg.6    0x000000000e506130        0x4 CMakeFiles/tube-client.dir/tube-isr.c.obj
 .bss.ignore_transfer
                0x000000000e506134        0x4 CMakeFiles/tube-client.dir/tube-isr.c.obj
 .bss.isrErrorBlock
                0x000000000e506138      0x100 CMakeFiles/tube-client.dir/tube-isr.c.obj
 .bss.r1_state.13
                0x000000000e506238        0x1 CMakeFiles/tube-client.dir/tube-isr.c.obj
 .bss.r4_state.12
                0x000000000e506239        0x1 CMakeFiles/tube-client.dir/tube-isr.c.obj
 *fill*         0x000000000e50623a        0x2 
 .bss.remaining.0
                0x000000000e50623c        0x4 CMakeFiles/tube-client.dir/tube-isr.c.obj
 .bss.signature
                0x000000000e506240        0x4 CMakeFiles/tube-client.dir/tube-isr.c.obj
 .bss.tube_address
                0x000000000e506244        0x4 CMakeFiles/tube-client.dir/tube-isr.c.obj
                0x000000000e506244                tube_address
 .bss.type.8    0x000000000e506248        0x1 CMakeFiles/tube-client.dir/tube-isr.c.obj
 .bss.x.10      0x000000000e506249        0x1 CMakeFiles/tube-client.dir/tube-isr.c.obj
 .bss.y.11      0x000000000e50624a        0x1 CMakeFiles/tube-client.dir/tube-isr.c.obj
 *fill*         0x000000000e50624b        0x1 
 .bss.debug     0x000000000e50624c        0x4 CMakeFiles/tube-client.dir/tube-lib.c.obj
 .bss.last_r12  0x000000000e506250        0x4 CMakeFiles/tube-client.dir/tube-swi.c.obj
 .bss.__lock___malloc_recursive_mutex
                0x000000000e506254        0x1 /usr/lib/gcc/arm-none-eabi/11.2.0/../../../../arm-none-eabi/lib/thumb/v7+fp/hard/libc_nano.a(lib_a-lock.o)
                0x000000000e506254                __lock___malloc_recursive_mutex
 .bss.__lock___sfp_recursive_mutex
                0x000000000e506255        0x1 /usr/lib/gcc/arm-none-eabi/11.2.0/../../../../arm-none-eabi/lib/thumb/v7+fp/hard/libc_nano.a(lib_a-lock.o)
                0x000000000e506255                __lock___sfp_recursive_mutex
 .bss.__lock___sinit_recursive_mutex
                0x000000000e506256        0x1 /usr/lib/gcc/arm-none-eabi/11.2.0/../../../../arm-none-eabi/lib/thumb/v7+fp/hard/libc_nano.a(lib_a-lock.o)
                0x000000000e506256                __lock___sinit_recursive_mutex
 *fill*         0x000000000e506257        0x1 
 .bss.__malloc_free_list
                0x000000000e506258        0x4 /usr/lib/gcc/arm-none-eabi/11.2.0/../../../../arm-none-eabi/lib/thumb/v7+fp/hard/libc_nano.a(lib_a-nano-mallocr.o)
                0x000000000e506258                __malloc_free_list
 .bss.__malloc_sbrk_start
                0x000000000e50625c        0x4 /usr/lib/gcc/arm-none-eabi/11.2.0/../../../../arm-none-eabi/lib/thumb/v7+fp/hard/libc_nano.a(lib_a-nano-mallocr.o)
                0x000000000e50625c                __malloc_sbrk_start
 .bss.errno     0x000000000e506260        0x4 /usr/lib/gcc/arm-none-eabi/11.2.0/../../../../arm-none-eabi/lib/thumb/v7+fp/hard/libc_nano.a(lib_a-reent.o)
                0x000000000e506260                errno
 *(COMMON)
                0x000000000e506264                . = ALIGN ((. != 0x0)?0x4:0x1)
                0x000000000e506264                _bss_end__ = .
                0x000000000e506264                __bss_end__ = .
                0x000000000e506264                . = ALIGN (0x4)
                0x000000000e506264                . = ALIGN (0x4)
                0x000000000e506264                __end__ = .
                0x000000000e506264                _end = .
                [!provide]                        PROVIDE (end = .)

.noinit         0x000000000e506280    0x18000
 .noinit        0x000000000e506280    0x10000 CMakeFiles/tube-client.dir/framebuffer/screen_modes.c.obj
 .noinit        0x000000000e516280     0x8000 CMakeFiles/tube-client.dir/rpi-mailbox-interface.c.obj

.stab           0x0000000000000000       0x3c
 *(.stab)
 .stab          0x0000000000000000       0x24 /usr/lib/gcc/arm-none-eabi/11.2.0/../../../../arm-none-eabi/lib/thumb/v7+fp/hard/libnosys.a(getpid.o)
 .stab          0x0000000000000024       0x18 /usr/lib/gcc/arm-none-eabi/11.2.0/../../../../arm-none-eabi/lib/thumb/v7+fp/hard/libnosys.a(kill.o)
                                         0x24 (size before relaxing)

.stabstr        0x0000000000000000       0x76
 *(.stabstr)
 .stabstr       0x0000000000000000       0x76 /usr/lib/gcc/arm-none-eabi/11.2.0/../../../../arm-none-eabi/lib/thumb/v7+fp/hard/libnosys.a(getpid.o)

.stab.excl
 *(.stab.excl)

.stab.exclstr
 *(.stab.exclstr)

.stab.index
 *(.stab.index)

.stab.indexstr
 *(.stab.indexstr)

.comment        0x0000000000000000       0x1e
 *(.comment)
 .comment       0x0000000000000000       0x1e CMakeFiles/tube-client.dir/armc-cstartup.c.obj
                                         0x1f (size before relaxing)
 .comment       0x000000000000001e       0x1f CMakeFiles/tube-client.dir/armc-cstubs.c.obj
 .comment       0x000000000000001e       0x1f CMakeFiles/tube-client.dir/cache.c.obj
 .comment       0x000000000000001e       0x1f CMakeFiles/tube-client.dir/copro-defs.c.obj
 .comment       0x000000000000001e       0x1f CMakeFiles/tube-client.dir/framebuffer/fonts.c.obj
 .comment       0x000000000000001e       0x1f CMakeFiles/tube-client.dir/framebuffer/framebuffer.c.obj
 .comment       0x000000000000001e       0x1f CMakeFiles/tube-client.dir/framebuffer/primitives.c.obj
 .comment       0x000000000000001e       0x1f CMakeFiles/tube-client.dir/framebuffer/screen_modes.c.obj
 .comment       0x000000000000001e       0x1f CMakeFiles/tube-client.dir/framebuffer/swi_impl.c.obj
 .comment       0x000000000000001e       0x1f CMakeFiles/tube-client.dir/framebuffer/teletext.c.obj
 .comment       0x000000000000001e       0x1f CMakeFiles/tube-client.dir/info.c.obj
 .comment       0x000000000000001e       0x1f CMakeFiles/tube-client.dir/logging.c.obj
 .comment       0x000000000000001e       0x1f CMakeFiles/tube-client.dir/performance.c.obj
 .comment       0x000000000000001e       0x1f CMakeFiles/tube-client.dir/programs.c.obj
 .comment       0x000000000000001e       0x1f CMakeFiles/tube-client.dir/rpi-aux.c.obj
 .comment       0x000000000000001e       0x1f CMakeFiles/tube-client.dir/rpi-gpio.c.obj
 .comment       0x000000000000001e       0x1f CMakeFiles/tube-client.dir/rpi-interrupts.c.obj
 .comment       0x000000000000001e       0x1f CMakeFiles/tube-client.dir/rpi-mailbox-interface.c.obj
 .comment       0x000000000000001e       0x1f CMakeFiles/tube-client.dir/rpi-mailbox.c.obj
 .comment       0x000000000000001e       0x1f CMakeFiles/tube-client.dir/rpi-systimer.c.obj
 .comment       0x000000000000001e       0x1f CMakeFiles/tube-client.dir/tube-client.c.obj
 .comment       0x000000000000001e       0x1f CMakeFiles/tube-client.dir/tube-exception.c.obj
 .comment       0x000000000000001e       0x1f CMakeFiles/tube-client.dir/tube-ula.c.obj
 .comment       0x000000000000001e       0x1f CMakeFiles/tube-client.dir/tubevc.c.obj
 .comment       0x000000000000001e       0x1f CMakeFiles/tube-client.dir/utils.c.obj
 .comment       0x000000000000001e       0x1f CMakeFiles/tube-client.dir/copro-65tube.c.obj
 .comment       0x000000000000001e       0x1f CMakeFiles/tube-client.dir/copro-65tubejit.c.obj
 .comment       0x000000000000001e       0x1f CMakeFiles/tube-client.dir/copro-lib6502.c.obj
 .comment       0x000000000000001e       0x1f CMakeFiles/tube-client.dir/lib6502.c.obj
 .comment       0x000000000000001e       0x1f CMakeFiles/tube-client.dir/tuberom_6502.c.obj
 .comment       0x000000000000001e       0x1f CMakeFiles/tube-client.dir/tuberom_6502_turbo.c.obj
 .comment       0x000000000000001e       0x1f CMakeFiles/tube-client.dir/copro-80186.c.obj
 .comment       0x000000000000001e       0x1f CMakeFiles/tube-client.dir/cpu80186/cpu80186.c.obj
 .comment       0x000000000000001e       0x1f CMakeFiles/tube-client.dir/cpu80186/iop80186.c.obj
 .comment       0x000000000000001e       0x1f CMakeFiles/tube-client.dir/cpu80186/mem80186.c.obj
 .comment       0x000000000000001e       0x1f CMakeFiles/tube-client.dir/copro-arm2.c.obj
 .comment       0x000000000000001e       0x1f CMakeFiles/tube-client.dir/mame/arm.c.obj
 .comment       0x000000000000001e       0x1f CMakeFiles/tube-client.dir/tuberom_arm.c.obj
 .comment       0x000000000000001e       0x1f CMakeFiles/tube-client.dir/NS32016/32016.c.obj
 .comment       0x000000000000001e       0x1f CMakeFiles/tube-client.dir/NS32016/Decode.c.obj
 .comment       0x000000000000001e       0x1f CMakeFiles/tube-client.dir/NS32016/Trap.c.obj
 .comment       0x000000000000001e       0x1f CMakeFiles/tube-client.dir/NS32016/mem32016.c.obj
 .comment       0x000000000000001e       0x1f CMakeFiles/tube-client.dir/copro-32016.c.obj
 .comment       0x000000000000001e       0x1f CMakeFiles/tube-client.dir/copro-z80.c.obj
 .comment       0x000000000000001e       0x1f CMakeFiles/tube-client.dir/yaze/simz80.c.obj
 .comment       0x000000000000001e       0x1f CMakeFiles/tube-client.dir/copro-mc6809nc.c.obj
 .comment       0x000000000000001e       0x1f CMakeFiles/tube-client.dir/mc6809nc/mc6809.c.obj
 .comment       0x000000000000001e       0x1f CMakeFiles/tube-client.dir/tuberom_6809.c.obj
 .comment       0x000000000000001e       0x1f CMakeFiles/tube-client.dir/copro-opc5ls.c.obj
 .comment       0x000000000000001e       0x1f CMakeFiles/tube-client.dir/opc5ls/opc5ls.c.obj
 .comment       0x000000000000001e       0x1f CMakeFiles/tube-client.dir/opc5ls/tuberom.c.obj
 .comment       0x000000000000001e       0x1f CMakeFiles/tube-client.dir/copro-opc6.c.obj
 .comment       0x000000000000001e       0x1f CMakeFiles/tube-client.dir/opc6/opc6.c.obj
 .comment       0x000000000000001e       0x1f CMakeFiles/tube-client.dir/opc6/tuberom.c.obj
 .comment       0x000000000000001e       0x1f CMakeFiles/tube-client.dir/copro-opc7.c.obj
 .comment       0x000000000000001e       0x1f CMakeFiles/tube-client.dir/opc7/opc7.c.obj
 .comment       0x000000000000001e       0x1f CMakeFiles/tube-client.dir/opc7/tuberom.c.obj
 .comment       0x000000000000001e       0x1f CMakeFiles/tube-client.dir/copro-f100.c.obj
 .comment       0x000000000000001e       0x1f CMakeFiles/tube-client.dir/f100/f100.c.obj
 .comment       0x000000000000001e       0x1f CMakeFiles/tube-client.dir/f100/tuberom.c.obj
 .comment       0x000000000000001e       0x1f CMakeFiles/tube-client.dir/65816/65816.c.obj
 .comment       0x000000000000001e       0x1f CMakeFiles/tube-client.dir/65816/tuberom_dominic65816.c.obj
 .comment       0x000000000000001e       0x1f CMakeFiles/tube-client.dir/65816/tuberom_reco65816.c.obj
 .comment       0x000000000000001e       0x1f CMakeFiles/tube-client.dir/copro-65816.c.obj
 .comment       0x000000000000001e       0x1f CMakeFiles/tube-client.dir/copro-pdp11.c.obj
 .comment       0x000000000000001e       0x1f CMakeFiles/tube-client.dir/pdp11/pdp11.c.obj
 .comment       0x000000000000001e       0x1f CMakeFiles/tube-client.dir/pdp11/tuberom.c.obj
 .comment       0x000000000000001e       0x1f CMakeFiles/tube-client.dir/copro-null.c.obj
 .comment       0x000000000000001e       0x1f CMakeFiles/tube-client.dir/armbasic.c.obj
 .comment       0x000000000000001e       0x1f CMakeFiles/tube-client.dir/copro-armnative.c.obj
 .comment       0x000000000000001e       0x1f CMakeFiles/tube-client.dir/darm/armv7-tbl.c.obj
 .comment       0x000000000000001e       0x1f CMakeFiles/tube-client.dir/darm/armv7.c.obj
 .comment       0x000000000000001e       0x1f CMakeFiles/tube-client.dir/darm/darm-tbl.c.obj
 .comment       0x000000000000001e       0x1f CMakeFiles/tube-client.dir/darm/darm.c.obj
 .comment       0x000000000000001e       0x1f CMakeFiles/tube-client.dir/rpi-armtimer.c.obj
 .comment       0x000000000000001e       0x1f CMakeFiles/tube-client.dir/swi.c.obj
 .comment       0x000000000000001e       0x1f CMakeFiles/tube-client.dir/tube-commands.c.obj
 .comment       0x000000000000001e       0x1f CMakeFiles/tube-client.dir/tube-isr.c.obj
 .comment       0x000000000000001e       0x1f CMakeFiles/tube-client.dir/tube-lib.c.obj
 .comment       0x000000000000001e       0x1f CMakeFiles/tube-client.dir/tube-swi.c.obj
 .comment       0x000000000000001e       0x1f /usr/lib/gcc/arm-none-eabi/11.2.0/thumb/v7+fp/hard/libgcc.a(_udivmoddi4.o)

.debug
 *(.debug)

.line
 *(.line)

.debug_srcinfo
 *(.debug_srcinfo)

.debug_sfnames
 *(.debug_sfnames)

.debug_aranges  0x0000000000000000       0xa0
 *(.debug_aranges)
 .debug_aranges
                0x0000000000000000       0x20 /usr/lib/gcc/arm-none-eabi/11.2.0/thumb/v7+fp/hard/libgcc.a(_aeabi_uldivmod.o)
 .debug_aranges
                0x0000000000000020       0x20 /usr/lib/gcc/arm-none-eabi/11.2.0/thumb/v7+fp/hard/libgcc.a(_udivmoddi4.o)
 .debug_aranges
                0x0000000000000040       0x20 /usr/lib/gcc/arm-none-eabi/11.2.0/thumb/v7+fp/hard/libgcc.a(_dvmd_tls.o)
 .debug_aranges
                0x0000000000000060       0x20 /usr/lib/gcc/arm-none-eabi/11.2.0/thumb/v7+fp/hard/libgcc.a(_udivsi3.o)
 .debug_aranges
                0x0000000000000080       0x20 /usr/lib/gcc/arm-none-eabi/11.2.0/thumb/v7+fp/hard/libgcc.a(_divsi3.o)

.debug_pubnames
 *(.debug_pubnames)

.debug_info     0x0000000000000000      0x412
 *(.debug_info .gnu.linkonce.wi.*)
 .debug_info    0x0000000000000000       0x24 /usr/lib/gcc/arm-none-eabi/11.2.0/thumb/v7+fp/hard/libgcc.a(_aeabi_uldivmod.o)
 .debug_info    0x0000000000000024      0x380 /usr/lib/gcc/arm-none-eabi/11.2.0/thumb/v7+fp/hard/libgcc.a(_udivmoddi4.o)
 .debug_info    0x00000000000003a4       0x24 /usr/lib/gcc/arm-none-eabi/11.2.0/thumb/v7+fp/hard/libgcc.a(_dvmd_tls.o)
 .debug_info    0x00000000000003c8       0x25 /usr/lib/gcc/arm-none-eabi/11.2.0/thumb/v7+fp/hard/libgcc.a(_udivsi3.o)
 .debug_info    0x00000000000003ed       0x25 /usr/lib/gcc/arm-none-eabi/11.2.0/thumb/v7+fp/hard/libgcc.a(_divsi3.o)

.debug_abbrev   0x0000000000000000      0x149
 *(.debug_abbrev)
 .debug_abbrev  0x0000000000000000       0x14 /usr/lib/gcc/arm-none-eabi/11.2.0/thumb/v7+fp/hard/libgcc.a(_aeabi_uldivmod.o)
 .debug_abbrev  0x0000000000000014       0xf9 /usr/lib/gcc/arm-none-eabi/11.2.0/thumb/v7+fp/hard/libgcc.a(_udivmoddi4.o)
 .debug_abbrev  0x000000000000010d       0x14 /usr/lib/gcc/arm-none-eabi/11.2.0/thumb/v7+fp/hard/libgcc.a(_dvmd_tls.o)
 .debug_abbrev  0x0000000000000121       0x14 /usr/lib/gcc/arm-none-eabi/11.2.0/thumb/v7+fp/hard/libgcc.a(_udivsi3.o)
 .debug_abbrev  0x0000000000000135       0x14 /usr/lib/gcc/arm-none-eabi/11.2.0/thumb/v7+fp/hard/libgcc.a(_divsi3.o)

.debug_line     0x0000000000000000      0x2ff
 *(.debug_line)
 .debug_line    0x0000000000000000       0x4e /usr/lib/gcc/arm-none-eabi/11.2.0/thumb/v7+fp/hard/libgcc.a(_aeabi_uldivmod.o)
 .debug_line    0x000000000000004e      0x186 /usr/lib/gcc/arm-none-eabi/11.2.0/thumb/v7+fp/hard/libgcc.a(_udivmoddi4.o)
 .debug_line    0x00000000000001d4       0x4a /usr/lib/gcc/arm-none-eabi/11.2.0/thumb/v7+fp/hard/libgcc.a(_dvmd_tls.o)
 .debug_line    0x000000000000021e       0x68 /usr/lib/gcc/arm-none-eabi/11.2.0/thumb/v7+fp/hard/libgcc.a(_udivsi3.o)
 .debug_line    0x0000000000000286       0x79 /usr/lib/gcc/arm-none-eabi/11.2.0/thumb/v7+fp/hard/libgcc.a(_divsi3.o)

.debug_frame    0x0000000000000000     0x1870
 *(.debug_frame)
 .debug_frame   0x0000000000000000       0x44 /usr/lib/gcc/arm-none-eabi/11.2.0/../../../../arm-none-eabi/lib/thumb/v7+fp/hard/libm.a(lib_a-wf_sqrt.o)
 .debug_frame   0x0000000000000044       0x50 /usr/lib/gcc/arm-none-eabi/11.2.0/../../../../arm-none-eabi/lib/thumb/v7+fp/hard/libm.a(lib_a-w_sqrt.o)
 .debug_frame   0x0000000000000094       0x20 /usr/lib/gcc/arm-none-eabi/11.2.0/../../../../arm-none-eabi/lib/thumb/v7+fp/hard/libm.a(lib_a-ef_sqrt.o)
 .debug_frame   0x00000000000000b4       0x20 /usr/lib/gcc/arm-none-eabi/11.2.0/../../../../arm-none-eabi/lib/thumb/v7+fp/hard/libm.a(lib_a-e_sqrt.o)
 .debug_frame   0x00000000000000d4       0x2c /usr/lib/gcc/arm-none-eabi/11.2.0/thumb/v7+fp/hard/libgcc.a(_aeabi_uldivmod.o)
 .debug_frame   0x0000000000000100       0x34 /usr/lib/gcc/arm-none-eabi/11.2.0/thumb/v7+fp/hard/libgcc.a(_udivmoddi4.o)
 .debug_frame   0x0000000000000134       0x30 /usr/lib/gcc/arm-none-eabi/11.2.0/../../../../arm-none-eabi/lib/thumb/v7+fp/hard/libc_nano.a(lib_a-atoi.o)
 .debug_frame   0x0000000000000164       0x20 /usr/lib/gcc/arm-none-eabi/11.2.0/../../../../arm-none-eabi/lib/thumb/v7+fp/hard/libc_nano.a(lib_a-calloc.o)
 .debug_frame   0x0000000000000184       0x20 /usr/lib/gcc/arm-none-eabi/11.2.0/../../../../arm-none-eabi/lib/thumb/v7+fp/hard/libc_nano.a(lib_a-errno.o)
 .debug_frame   0x00000000000001a4       0x5c /usr/lib/gcc/arm-none-eabi/11.2.0/../../../../arm-none-eabi/lib/thumb/v7+fp/hard/libc_nano.a(lib_a-fflush.o)
 .debug_frame   0x0000000000000200      0x14c /usr/lib/gcc/arm-none-eabi/11.2.0/../../../../arm-none-eabi/lib/thumb/v7+fp/hard/libc_nano.a(lib_a-findfp.o)
 .debug_frame   0x000000000000034c       0x54 /usr/lib/gcc/arm-none-eabi/11.2.0/../../../../arm-none-eabi/lib/thumb/v7+fp/hard/libc_nano.a(lib_a-fwalk.o)
 .debug_frame   0x00000000000003a0       0x4c /usr/lib/gcc/arm-none-eabi/11.2.0/../../../../arm-none-eabi/lib/thumb/v7+fp/hard/libc_nano.a(lib_a-fwrite.o)
 .debug_frame   0x00000000000003ec       0xb0 /usr/lib/gcc/arm-none-eabi/11.2.0/../../../../arm-none-eabi/lib/thumb/v7+fp/hard/libc_nano.a(lib_a-lock.o)
 .debug_frame   0x000000000000049c       0x30 /usr/lib/gcc/arm-none-eabi/11.2.0/../../../../arm-none-eabi/lib/thumb/v7+fp/hard/libc_nano.a(lib_a-malloc.o)
 .debug_frame   0x00000000000004cc       0x28 /usr/lib/gcc/arm-none-eabi/11.2.0/../../../../arm-none-eabi/lib/thumb/v7+fp/hard/libc_nano.a(lib_a-memcpy-stub.o)
 .debug_frame   0x00000000000004f4       0x28 /usr/lib/gcc/arm-none-eabi/11.2.0/../../../../arm-none-eabi/lib/thumb/v7+fp/hard/libc_nano.a(lib_a-memmove.o)
 .debug_frame   0x000000000000051c       0x20 /usr/lib/gcc/arm-none-eabi/11.2.0/../../../../arm-none-eabi/lib/thumb/v7+fp/hard/libc_nano.a(lib_a-memset.o)
 .debug_frame   0x000000000000053c       0x30 /usr/lib/gcc/arm-none-eabi/11.2.0/../../../../arm-none-eabi/lib/thumb/v7+fp/hard/libc_nano.a(lib_a-nano-callocr.o)
 .debug_frame   0x000000000000056c       0x38 /usr/lib/gcc/arm-none-eabi/11.2.0/../../../../arm-none-eabi/lib/thumb/v7+fp/hard/libc_nano.a(lib_a-nano-freer.o)
 .debug_frame   0x00000000000005a4       0x30 /usr/lib/gcc/arm-none-eabi/11.2.0/../../../../arm-none-eabi/lib/thumb/v7+fp/hard/libc_nano.a(lib_a-nano-mallocr.o)
 .debug_frame   0x00000000000005d4       0xa4 /usr/lib/gcc/arm-none-eabi/11.2.0/../../../../arm-none-eabi/lib/thumb/v7+fp/hard/libc_nano.a(lib_a-nano-vfprintf_float.o)
 .debug_frame   0x0000000000000678       0x64 /usr/lib/gcc/arm-none-eabi/11.2.0/../../../../arm-none-eabi/lib/thumb/v7+fp/hard/libc_nano.a(lib_a-nano-vfprintf_i.o)
 .debug_frame   0x00000000000006dc       0x74 /usr/lib/gcc/arm-none-eabi/11.2.0/../../../../arm-none-eabi/lib/thumb/v7+fp/hard/libc_nano.a(lib_a-printf.o)
 .debug_frame   0x0000000000000750       0x50 /usr/lib/gcc/arm-none-eabi/11.2.0/../../../../arm-none-eabi/lib/thumb/v7+fp/hard/libc_nano.a(lib_a-putchar.o)
 .debug_frame   0x00000000000007a0       0x3c /usr/lib/gcc/arm-none-eabi/11.2.0/../../../../arm-none-eabi/lib/thumb/v7+fp/hard/libc_nano.a(lib_a-putc.o)
 .debug_frame   0x00000000000007dc       0x3c /usr/lib/gcc/arm-none-eabi/11.2.0/../../../../arm-none-eabi/lib/thumb/v7+fp/hard/libc_nano.a(lib_a-puts.o)
 .debug_frame   0x0000000000000818       0x44 /usr/lib/gcc/arm-none-eabi/11.2.0/../../../../arm-none-eabi/lib/thumb/v7+fp/hard/libc_nano.a(lib_a-random.o)
 .debug_frame   0x000000000000085c       0x5c /usr/lib/gcc/arm-none-eabi/11.2.0/../../../../arm-none-eabi/lib/thumb/v7+fp/hard/libc_nano.a(lib_a-reent.o)
 .debug_frame   0x00000000000008b8       0x2c /usr/lib/gcc/arm-none-eabi/11.2.0/../../../../arm-none-eabi/lib/thumb/v7+fp/hard/libc_nano.a(lib_a-sbrkr.o)
 .debug_frame   0x00000000000008e4       0x7c /usr/lib/gcc/arm-none-eabi/11.2.0/../../../../arm-none-eabi/lib/thumb/v7+fp/hard/libc_nano.a(lib_a-snprintf.o)
 .debug_frame   0x0000000000000960       0x6c /usr/lib/gcc/arm-none-eabi/11.2.0/../../../../arm-none-eabi/lib/thumb/v7+fp/hard/libc_nano.a(lib_a-sprintf.o)
 .debug_frame   0x00000000000009cc       0x78 /usr/lib/gcc/arm-none-eabi/11.2.0/../../../../arm-none-eabi/lib/thumb/v7+fp/hard/libc_nano.a(lib_a-sscanf.o)
 .debug_frame   0x0000000000000a44       0x88 /usr/lib/gcc/arm-none-eabi/11.2.0/../../../../arm-none-eabi/lib/thumb/v7+fp/hard/libc_nano.a(lib_a-stdio.o)
 .debug_frame   0x0000000000000acc       0x2c /usr/lib/gcc/arm-none-eabi/11.2.0/../../../../arm-none-eabi/lib/thumb/v7+fp/hard/libc_nano.a(lib_a-strcasecmp.o)
 .debug_frame   0x0000000000000af8       0x20 /usr/lib/gcc/arm-none-eabi/11.2.0/../../../../arm-none-eabi/lib/thumb/v7+fp/hard/libc_nano.a(lib_a-strchr.o)
 .debug_frame   0x0000000000000b18       0x20 /usr/lib/gcc/arm-none-eabi/11.2.0/../../../../arm-none-eabi/lib/thumb/v7+fp/hard/libc_nano.a(lib_a-strcpy.o)
 .debug_frame   0x0000000000000b38       0x2c /usr/lib/gcc/arm-none-eabi/11.2.0/../../../../arm-none-eabi/lib/thumb/v7+fp/hard/libc_nano.a(lib_a-strncasecmp.o)
 .debug_frame   0x0000000000000b64       0x28 /usr/lib/gcc/arm-none-eabi/11.2.0/../../../../arm-none-eabi/lib/thumb/v7+fp/hard/libc_nano.a(lib_a-strncmp.o)
 .debug_frame   0x0000000000000b8c       0x28 /usr/lib/gcc/arm-none-eabi/11.2.0/../../../../arm-none-eabi/lib/thumb/v7+fp/hard/libc_nano.a(lib_a-strncpy.o)
 .debug_frame   0x0000000000000bb4       0x68 /usr/lib/gcc/arm-none-eabi/11.2.0/../../../../arm-none-eabi/lib/thumb/v7+fp/hard/libc_nano.a(lib_a-strtol.o)
 .debug_frame   0x0000000000000c1c       0x54 /usr/lib/gcc/arm-none-eabi/11.2.0/../../../../arm-none-eabi/lib/thumb/v7+fp/hard/libc_nano.a(lib_a-vprintf.o)
 .debug_frame   0x0000000000000c70       0x4c /usr/lib/gcc/arm-none-eabi/11.2.0/../../../../arm-none-eabi/lib/thumb/v7+fp/hard/libc_nano.a(lib_a-vsnprintf.o)
 .debug_frame   0x0000000000000cbc       0x40 /usr/lib/gcc/arm-none-eabi/11.2.0/../../../../arm-none-eabi/lib/thumb/v7+fp/hard/libc_nano.a(lib_a-wbuf.o)
 .debug_frame   0x0000000000000cfc       0x2c /usr/lib/gcc/arm-none-eabi/11.2.0/../../../../arm-none-eabi/lib/thumb/v7+fp/hard/libc_nano.a(lib_a-writer.o)
 .debug_frame   0x0000000000000d28       0x2c /usr/lib/gcc/arm-none-eabi/11.2.0/../../../../arm-none-eabi/lib/thumb/v7+fp/hard/libc_nano.a(lib_a-wsetup.o)
 .debug_frame   0x0000000000000d54       0x40 /usr/lib/gcc/arm-none-eabi/11.2.0/../../../../arm-none-eabi/lib/thumb/v7+fp/hard/libc_nano.a(lib_a-assert.o)
 .debug_frame   0x0000000000000d94       0x2c /usr/lib/gcc/arm-none-eabi/11.2.0/../../../../arm-none-eabi/lib/thumb/v7+fp/hard/libc_nano.a(lib_a-closer.o)
 .debug_frame   0x0000000000000dc0       0x80 /usr/lib/gcc/arm-none-eabi/11.2.0/../../../../arm-none-eabi/lib/thumb/v7+fp/hard/libc_nano.a(lib_a-dtoa.o)
 .debug_frame   0x0000000000000e40       0x64 /usr/lib/gcc/arm-none-eabi/11.2.0/../../../../arm-none-eabi/lib/thumb/v7+fp/hard/libc_nano.a(lib_a-fprintf.o)
 .debug_frame   0x0000000000000ea4       0x40 /usr/lib/gcc/arm-none-eabi/11.2.0/../../../../arm-none-eabi/lib/thumb/v7+fp/hard/libc_nano.a(lib_a-localeconv.o)
 .debug_frame   0x0000000000000ee4       0x48 /usr/lib/gcc/arm-none-eabi/11.2.0/../../../../arm-none-eabi/lib/thumb/v7+fp/hard/libc_nano.a(lib_a-locale.o)
 .debug_frame   0x0000000000000f2c       0x2c /usr/lib/gcc/arm-none-eabi/11.2.0/../../../../arm-none-eabi/lib/thumb/v7+fp/hard/libc_nano.a(lib_a-lseekr.o)
 .debug_frame   0x0000000000000f58       0x58 /usr/lib/gcc/arm-none-eabi/11.2.0/../../../../arm-none-eabi/lib/thumb/v7+fp/hard/libc_nano.a(lib_a-makebuf.o)
 .debug_frame   0x0000000000000fb0       0x48 /usr/lib/gcc/arm-none-eabi/11.2.0/../../../../arm-none-eabi/lib/thumb/v7+fp/hard/libc_nano.a(lib_a-mbtowc_r.o)
 .debug_frame   0x0000000000000ff8       0x28 /usr/lib/gcc/arm-none-eabi/11.2.0/../../../../arm-none-eabi/lib/thumb/v7+fp/hard/libc_nano.a(lib_a-memchr-stub.o)
 .debug_frame   0x0000000000001020       0x30 /usr/lib/gcc/arm-none-eabi/11.2.0/../../../../arm-none-eabi/lib/thumb/v7+fp/hard/libc_nano.a(lib_a-mlock.o)
 .debug_frame   0x0000000000001050      0x250 /usr/lib/gcc/arm-none-eabi/11.2.0/../../../../arm-none-eabi/lib/thumb/v7+fp/hard/libc_nano.a(lib_a-mprec.o)
 .debug_frame   0x00000000000012a0       0x90 /usr/lib/gcc/arm-none-eabi/11.2.0/../../../../arm-none-eabi/lib/thumb/v7+fp/hard/libc_nano.a(lib_a-nano-svfprintf.o)
 .debug_frame   0x0000000000001330       0x74 /usr/lib/gcc/arm-none-eabi/11.2.0/../../../../arm-none-eabi/lib/thumb/v7+fp/hard/libc_nano.a(lib_a-nano-svfscanf.o)
 .debug_frame   0x00000000000013a4       0xac /usr/lib/gcc/arm-none-eabi/11.2.0/../../../../arm-none-eabi/lib/thumb/v7+fp/hard/libc_nano.a(lib_a-nano-vfprintf.o)
 .debug_frame   0x0000000000001450       0x64 /usr/lib/gcc/arm-none-eabi/11.2.0/../../../../arm-none-eabi/lib/thumb/v7+fp/hard/libc_nano.a(lib_a-nano-vfscanf_i.o)
 .debug_frame   0x00000000000014b4       0x2c /usr/lib/gcc/arm-none-eabi/11.2.0/../../../../arm-none-eabi/lib/thumb/v7+fp/hard/libc_nano.a(lib_a-readr.o)
 .debug_frame   0x00000000000014e0       0x2c /usr/lib/gcc/arm-none-eabi/11.2.0/../../../../arm-none-eabi/lib/thumb/v7+fp/hard/libc_nano.a(lib_a-sccl.o)
 .debug_frame   0x000000000000150c       0x68 /usr/lib/gcc/arm-none-eabi/11.2.0/../../../../arm-none-eabi/lib/thumb/v7+fp/hard/libc_nano.a(lib_a-strtoul.o)
 .debug_frame   0x0000000000001574       0x5c /usr/lib/gcc/arm-none-eabi/11.2.0/../../../../arm-none-eabi/lib/thumb/v7+fp/hard/libc_nano.a(lib_a-ungetc.o)
 .debug_frame   0x00000000000015d0       0x3c /usr/lib/gcc/arm-none-eabi/11.2.0/../../../../arm-none-eabi/lib/thumb/v7+fp/hard/libc_nano.a(lib_a-wctomb_r.o)
 .debug_frame   0x000000000000160c       0x28 /usr/lib/gcc/arm-none-eabi/11.2.0/../../../../arm-none-eabi/lib/thumb/v7+fp/hard/libc_nano.a(lib_a-abort.o)
 .debug_frame   0x0000000000001634       0x2c /usr/lib/gcc/arm-none-eabi/11.2.0/../../../../arm-none-eabi/lib/thumb/v7+fp/hard/libc_nano.a(lib_a-fstatr.o)
 .debug_frame   0x0000000000001660       0x2c /usr/lib/gcc/arm-none-eabi/11.2.0/../../../../arm-none-eabi/lib/thumb/v7+fp/hard/libc_nano.a(lib_a-isattyr.o)
 .debug_frame   0x000000000000168c       0x3c /usr/lib/gcc/arm-none-eabi/11.2.0/../../../../arm-none-eabi/lib/thumb/v7+fp/hard/libc_nano.a(lib_a-nano-reallocr.o)
 .debug_frame   0x00000000000016c8       0xcc /usr/lib/gcc/arm-none-eabi/11.2.0/../../../../arm-none-eabi/lib/thumb/v7+fp/hard/libc_nano.a(lib_a-signal.o)
 .debug_frame   0x0000000000001794       0x3c /usr/lib/gcc/arm-none-eabi/11.2.0/../../../../arm-none-eabi/lib/thumb/v7+fp/hard/libc_nano.a(lib_a-signalr.o)
 .debug_frame   0x00000000000017d0       0x20 /usr/lib/gcc/arm-none-eabi/11.2.0/../../../../arm-none-eabi/lib/thumb/v7+fp/hard/libc_nano.a(lib_a-nano-msizer.o)
 .debug_frame   0x00000000000017f0       0x20 /usr/lib/gcc/arm-none-eabi/11.2.0/thumb/v7+fp/hard/libgcc.a(_udivsi3.o)
 .debug_frame   0x0000000000001810       0x20 /usr/lib/gcc/arm-none-eabi/11.2.0/thumb/v7+fp/hard/libgcc.a(_divsi3.o)
 .debug_frame   0x0000000000001830       0x20 /usr/lib/gcc/arm-none-eabi/11.2.0/../../../../arm-none-eabi/lib/thumb/v7+fp/hard/libnosys.a(getpid.o)
 .debug_frame   0x0000000000001850       0x20 /usr/lib/gcc/arm-none-eabi/11.2.0/../../../../arm-none-eabi/lib/thumb/v7+fp/hard/libnosys.a(kill.o)

.debug_str      0x0000000000000000      0x5fa
 *(.debug_str)
 .debug_str     0x0000000000000000       0x63 /usr/lib/gcc/arm-none-eabi/11.2.0/thumb/v7+fp/hard/libgcc.a(_aeabi_uldivmod.o)
 .debug_str     0x0000000000000063      0x58b /usr/lib/gcc/arm-none-eabi/11.2.0/thumb/v7+fp/hard/libgcc.a(_udivmoddi4.o)
                                        0x61e (size before relaxing)
 .debug_str     0x00000000000005ee        0xc /usr/lib/gcc/arm-none-eabi/11.2.0/thumb/v7+fp/hard/libgcc.a(_dvmd_tls.o)
                                         0x67 (size before relaxing)
 .debug_str     0x00000000000005fa       0x67 /usr/lib/gcc/arm-none-eabi/11.2.0/thumb/v7+fp/hard/libgcc.a(_udivsi3.o)
 .debug_str     0x00000000000005fa       0x67 /usr/lib/gcc/arm-none-eabi/11.2.0/thumb/v7+fp/hard/libgcc.a(_divsi3.o)

.debug_loc
 *(.debug_loc)

.debug_macinfo
 *(.debug_macinfo)

.debug_weaknames
 *(.debug_weaknames)

.debug_funcnames
 *(.debug_funcnames)

.debug_typenames
 *(.debug_typenames)

.debug_varnames
 *(.debug_varnames)

.debug_pubtypes
 *(.debug_pubtypes)

.debug_ranges
 *(.debug_ranges)

.stack          0x0000000000080000        0x0
                0x0000000000080000                _stack = .
 *(.stack)

.ARM.attributes
                0x0000000000000000       0x37
 *(.ARM.attributes)
 .ARM.attributes
                0x0000000000000000       0x39 CMakeFiles/tube-client.dir/armc-cstartup.c.obj
 .ARM.attributes
                0x0000000000000039       0x39 CMakeFiles/tube-client.dir/armc-cstubs.c.obj
 .ARM.attributes
                0x0000000000000072       0x25 CMakeFiles/tube-client.dir/armc-start.S.obj
 .ARM.attributes
                0x0000000000000097       0x39 CMakeFiles/tube-client.dir/cache.c.obj
 .ARM.attributes
                0x00000000000000d0       0x39 CMakeFiles/tube-client.dir/copro-defs.c.obj
 .ARM.attributes
                0x0000000000000109       0x39 CMakeFiles/tube-client.dir/framebuffer/fonts.c.obj
 .ARM.attributes
                0x0000000000000142       0x39 CMakeFiles/tube-client.dir/framebuffer/framebuffer.c.obj
 .ARM.attributes
                0x000000000000017b       0x39 CMakeFiles/tube-client.dir/framebuffer/primitives.c.obj
 .ARM.attributes
                0x00000000000001b4       0x39 CMakeFiles/tube-client.dir/framebuffer/screen_modes.c.obj
 .ARM.attributes
                0x00000000000001ed       0x39 CMakeFiles/tube-client.dir/framebuffer/swi_impl.c.obj
 .ARM.attributes
                0x0000000000000226       0x39 CMakeFiles/tube-client.dir/framebuffer/teletext.c.obj
 .ARM.attributes
                0x000000000000025f       0x39 CMakeFiles/tube-client.dir/framebuffer/v3d.c.obj
 .ARM.attributes
                0x0000000000000298       0x39 CMakeFiles/tube-client.dir/info.c.obj
 .ARM.attributes
                0x00000000000002d1       0x39 CMakeFiles/tube-client.dir/logging.c.obj
 .ARM.attributes
                0x000000000000030a       0x39 CMakeFiles/tube-client.dir/performance.c.obj
 .ARM.attributes
                0x0000000000000343       0x39 CMakeFiles/tube-client.dir/programs.c.obj
 .ARM.attributes
                0x000000000000037c       0x39 CMakeFiles/tube-client.dir/rpi-aux.c.obj
 .ARM.attributes
                0x00000000000003b5       0x39 CMakeFiles/tube-client.dir/rpi-gpio.c.obj
 .ARM.attributes
                0x00000000000003ee       0x39 CMakeFiles/tube-client.dir/rpi-interrupts.c.obj
 .ARM.attributes
                0x0000000000000427       0x39 CMakeFiles/tube-client.dir/rpi-mailbox-interface.c.obj
 .ARM.attributes
                0x0000000000000460       0x39 CMakeFiles/tube-client.dir/rpi-mailbox.c.obj
 .ARM.attributes
                0x0000000000000499       0x39 CMakeFiles/tube-client.dir/rpi-systimer.c.obj
 .ARM.attributes
                0x00000000000004d2       0x39 CMakeFiles/tube-client.dir/tube-client.c.obj
 .ARM.attributes
                0x000000000000050b       0x39 CMakeFiles/tube-client.dir/tube-exception.c.obj
 .ARM.attributes
                0x0000000000000544       0x39 CMakeFiles/tube-client.dir/tube-ula.c.obj
 .ARM.attributes
                0x000000000000057d       0x25 CMakeFiles/tube-client.dir/tube.S.obj
 .ARM.attributes
                0x00000000000005a2       0x39 CMakeFiles/tube-client.dir/tubevc.c.obj
 .ARM.attributes
                0x00000000000005db       0x39 CMakeFiles/tube-client.dir/utils.c.obj
 .ARM.attributes
                0x0000000000000614       0x39 CMakeFiles/tube-client.dir/copro-65tube.c.obj
 .ARM.attributes
                0x000000000000064d       0x25 CMakeFiles/tube-client.dir/copro-65tubeasm.S.obj
 .ARM.attributes
                0x0000000000000672       0x39 CMakeFiles/tube-client.dir/copro-65tubejit.c.obj
 .ARM.attributes
                0x00000000000006ab       0x25 CMakeFiles/tube-client.dir/jit.S.obj
 .ARM.attributes
                0x00000000000006d0       0x39 CMakeFiles/tube-client.dir/copro-lib6502.c.obj
 .ARM.attributes
                0x0000000000000709       0x39 CMakeFiles/tube-client.dir/lib6502.c.obj
 .ARM.attributes
                0x0000000000000742       0x39 CMakeFiles/tube-client.dir/tuberom_6502.c.obj
 .ARM.attributes
                0x000000000000077b       0x39 CMakeFiles/tube-client.dir/tuberom_6502_turbo.c.obj
 .ARM.attributes
                0x00000000000007b4       0x39 CMakeFiles/tube-client.dir/copro-80186.c.obj
 .ARM.attributes
                0x00000000000007ed       0x39 CMakeFiles/tube-client.dir/cpu80186/cpu80186.c.obj
 .ARM.attributes
                0x0000000000000826       0x39 CMakeFiles/tube-client.dir/cpu80186/i386dasm.c.obj
 .ARM.attributes
                0x000000000000085f       0x39 CMakeFiles/tube-client.dir/cpu80186/iop80186.c.obj
 .ARM.attributes
                0x0000000000000898       0x39 CMakeFiles/tube-client.dir/cpu80186/mem80186.c.obj
 .ARM.attributes
                0x00000000000008d1       0x39 CMakeFiles/tube-client.dir/copro-arm2.c.obj
 .ARM.attributes
                0x000000000000090a       0x39 CMakeFiles/tube-client.dir/mame/arm.c.obj
 .ARM.attributes
                0x0000000000000943       0x39 CMakeFiles/tube-client.dir/tuberom_arm.c.obj
 .ARM.attributes
                0x000000000000097c       0x39 CMakeFiles/tube-client.dir/NS32016/32016.c.obj
 .ARM.attributes
                0x00000000000009b5       0x39 CMakeFiles/tube-client.dir/NS32016/Decode.c.obj
 .ARM.attributes
                0x00000000000009ee       0x39 CMakeFiles/tube-client.dir/NS32016/NSDis.c.obj
 .ARM.attributes
                0x0000000000000a27       0x39 CMakeFiles/tube-client.dir/NS32016/Profile.c.obj
 .ARM.attributes
                0x0000000000000a60       0x39 CMakeFiles/tube-client.dir/NS32016/Trap.c.obj
 .ARM.attributes
                0x0000000000000a99       0x39 CMakeFiles/tube-client.dir/NS32016/mem32016.c.obj
 .ARM.attributes
                0x0000000000000ad2       0x39 CMakeFiles/tube-client.dir/copro-32016.c.obj
 .ARM.attributes
                0x0000000000000b0b       0x39 CMakeFiles/tube-client.dir/copro-z80.c.obj
 .ARM.attributes
                0x0000000000000b44       0x39 CMakeFiles/tube-client.dir/yaze/simz80.c.obj
 .ARM.attributes
                0x0000000000000b7d       0x39 CMakeFiles/tube-client.dir/copro-mc6809nc.c.obj
 .ARM.attributes
                0x0000000000000bb6       0x39 CMakeFiles/tube-client.dir/mc6809nc/mc6809.c.obj
 .ARM.attributes
                0x0000000000000bef       0x39 CMakeFiles/tube-client.dir/tuberom_6809.c.obj
 .ARM.attributes
                0x0000000000000c28       0x39 CMakeFiles/tube-client.dir/copro-opc5ls.c.obj
 .ARM.attributes
                0x0000000000000c61       0x39 CMakeFiles/tube-client.dir/opc5ls/opc5ls.c.obj
 .ARM.attributes
                0x0000000000000c9a       0x39 CMakeFiles/tube-client.dir/opc5ls/tuberom.c.obj
 .ARM.attributes
                0x0000000000000cd3       0x39 CMakeFiles/tube-client.dir/copro-opc6.c.obj
 .ARM.attributes
                0x0000000000000d0c       0x39 CMakeFiles/tube-client.dir/opc6/opc6.c.obj
 .ARM.attributes
                0x0000000000000d45       0x39 CMakeFiles/tube-client.dir/opc6/tuberom.c.obj
 .ARM.attributes
                0x0000000000000d7e       0x39 CMakeFiles/tube-client.dir/copro-opc7.c.obj
 .ARM.attributes
                0x0000000000000db7       0x39 CMakeFiles/tube-client.dir/opc7/opc7.c.obj
 .ARM.attributes
                0x0000000000000df0       0x39 CMakeFiles/tube-client.dir/opc7/tuberom.c.obj
 .ARM.attributes
                0x0000000000000e29       0x39 CMakeFiles/tube-client.dir/copro-f100.c.obj
 .ARM.attributes
                0x0000000000000e62       0x39 CMakeFiles/tube-client.dir/f100/f100.c.obj
 .ARM.attributes
                0x0000000000000e9b       0x39 CMakeFiles/tube-client.dir/f100/tuberom.c.obj
 .ARM.attributes
                0x0000000000000ed4       0x39 CMakeFiles/tube-client.dir/65816/65816.c.obj
 .ARM.attributes
                0x0000000000000f0d       0x39 CMakeFiles/tube-client.dir/65816/tuberom_dominic65816.c.obj
 .ARM.attributes
                0x0000000000000f46       0x39 CMakeFiles/tube-client.dir/65816/tuberom_reco65816.c.obj
 .ARM.attributes
                0x0000000000000f7f       0x39 CMakeFiles/tube-client.dir/copro-65816.c.obj
 .ARM.attributes
                0x0000000000000fb8       0x39 CMakeFiles/tube-client.dir/copro-pdp11.c.obj
 .ARM.attributes
                0x0000000000000ff1       0x39 CMakeFiles/tube-client.dir/pdp11/pdp11.c.obj
 .ARM.attributes
                0x000000000000102a       0x39 CMakeFiles/tube-client.dir/pdp11/tuberom.c.obj
 .ARM.attributes
                0x0000000000001063       0x39 CMakeFiles/tube-client.dir/copro-null.c.obj
 .ARM.attributes
                0x000000000000109c       0x39 CMakeFiles/tube-client.dir/armbasic.c.obj
 .ARM.attributes
                0x00000000000010d5       0x39 CMakeFiles/tube-client.dir/copro-armnative.c.obj
 .ARM.attributes
                0x000000000000110e       0x25 CMakeFiles/tube-client.dir/copro-armnativeasm.S.obj
 .ARM.attributes
                0x0000000000001133       0x39 CMakeFiles/tube-client.dir/darm/armv7-tbl.c.obj
 .ARM.attributes
                0x000000000000116c       0x39 CMakeFiles/tube-client.dir/darm/armv7.c.obj
 .ARM.attributes
                0x00000000000011a5       0x39 CMakeFiles/tube-client.dir/darm/darm-tbl.c.obj
 .ARM.attributes
                0x00000000000011de       0x39 CMakeFiles/tube-client.dir/darm/darm.c.obj
 .ARM.attributes
                0x0000000000001217       0x39 CMakeFiles/tube-client.dir/darm/thumb-tbl.c.obj
 .ARM.attributes
                0x0000000000001250       0x39 CMakeFiles/tube-client.dir/darm/thumb.c.obj
 .ARM.attributes
                0x0000000000001289       0x39 CMakeFiles/tube-client.dir/darm/thumb2-decoder.c.obj
 .ARM.attributes
                0x00000000000012c2       0x39 CMakeFiles/tube-client.dir/darm/thumb2-tbl.c.obj
 .ARM.attributes
                0x00000000000012fb       0x39 CMakeFiles/tube-client.dir/darm/thumb2.c.obj
 .ARM.attributes
                0x0000000000001334       0x39 CMakeFiles/tube-client.dir/rpi-armtimer.c.obj
 .ARM.attributes
                0x000000000000136d       0x39 CMakeFiles/tube-client.dir/swi.c.obj
 .ARM.attributes
                0x00000000000013a6       0x39 CMakeFiles/tube-client.dir/tube-commands.c.obj
 .ARM.attributes
                0x00000000000013df       0x39 CMakeFiles/tube-client.dir/tube-isr.c.obj
 .ARM.attributes
                0x0000000000001418       0x39 CMakeFiles/tube-client.dir/tube-lib.c.obj
 .ARM.attributes
                0x0000000000001451       0x39 CMakeFiles/tube-client.dir/tube-swi.c.obj
 .ARM.attributes
                0x000000000000148a       0x2d /usr/lib/gcc/arm-none-eabi/11.2.0/../../../../arm-none-eabi/lib/thumb/v7+fp/hard/libm.a(lib_a-wf_sqrt.o)
 .ARM.attributes
                0x00000000000014b7       0x2d /usr/lib/gcc/arm-none-eabi/11.2.0/../../../../arm-none-eabi/lib/thumb/v7+fp/hard/libm.a(lib_a-w_sqrt.o)
 .ARM.attributes
                0x00000000000014e4       0x2d /usr/lib/gcc/arm-none-eabi/11.2.0/../../../../arm-none-eabi/lib/thumb/v7+fp/hard/libm.a(lib_a-ef_sqrt.o)
 .ARM.attributes
                0x0000000000001511       0x2d /usr/lib/gcc/arm-none-eabi/11.2.0/../../../../arm-none-eabi/lib/thumb/v7+fp/hard/libm.a(lib_a-e_sqrt.o)
 .ARM.attributes
                0x000000000000153e       0x19 /usr/lib/gcc/arm-none-eabi/11.2.0/thumb/v7+fp/hard/libgcc.a(_aeabi_uldivmod.o)
 .ARM.attributes
                0x0000000000001557       0x2d /usr/lib/gcc/arm-none-eabi/11.2.0/thumb/v7+fp/hard/libgcc.a(_udivmoddi4.o)
 .ARM.attributes
                0x0000000000001584       0x19 /usr/lib/gcc/arm-none-eabi/11.2.0/thumb/v7+fp/hard/libgcc.a(_dvmd_tls.o)
 .ARM.attributes
                0x000000000000159d       0x2d /usr/lib/gcc/arm-none-eabi/11.2.0/../../../../arm-none-eabi/lib/thumb/v7+fp/hard/libc_nano.a(lib_a-atoi.o)
 .ARM.attributes
                0x00000000000015ca       0x2d /usr/lib/gcc/arm-none-eabi/11.2.0/../../../../arm-none-eabi/lib/thumb/v7+fp/hard/libc_nano.a(lib_a-calloc.o)
 .ARM.attributes
                0x00000000000015f7       0x2b /usr/lib/gcc/arm-none-eabi/11.2.0/../../../../arm-none-eabi/lib/thumb/v7+fp/hard/libc_nano.a(lib_a-ctype_.o)
 .ARM.attributes
                0x0000000000001622       0x2d /usr/lib/gcc/arm-none-eabi/11.2.0/../../../../arm-none-eabi/lib/thumb/v7+fp/hard/libc_nano.a(lib_a-errno.o)
 .ARM.attributes
                0x000000000000164f       0x2d /usr/lib/gcc/arm-none-eabi/11.2.0/../../../../arm-none-eabi/lib/thumb/v7+fp/hard/libc_nano.a(lib_a-fflush.o)
 .ARM.attributes
                0x000000000000167c       0x2d /usr/lib/gcc/arm-none-eabi/11.2.0/../../../../arm-none-eabi/lib/thumb/v7+fp/hard/libc_nano.a(lib_a-findfp.o)
 .ARM.attributes
                0x00000000000016a9       0x2d /usr/lib/gcc/arm-none-eabi/11.2.0/../../../../arm-none-eabi/lib/thumb/v7+fp/hard/libc_nano.a(lib_a-fwalk.o)
 .ARM.attributes
                0x00000000000016d6       0x2d /usr/lib/gcc/arm-none-eabi/11.2.0/../../../../arm-none-eabi/lib/thumb/v7+fp/hard/libc_nano.a(lib_a-fwrite.o)
 .ARM.attributes
                0x0000000000001703       0x2b /usr/lib/gcc/arm-none-eabi/11.2.0/../../../../arm-none-eabi/lib/thumb/v7+fp/hard/libc_nano.a(lib_a-impure.o)
 .ARM.attributes
                0x000000000000172e       0x2d /usr/lib/gcc/arm-none-eabi/11.2.0/../../../../arm-none-eabi/lib/thumb/v7+fp/hard/libc_nano.a(lib_a-lock.o)
 .ARM.attributes
                0x000000000000175b       0x2d /usr/lib/gcc/arm-none-eabi/11.2.0/../../../../arm-none-eabi/lib/thumb/v7+fp/hard/libc_nano.a(lib_a-malloc.o)
 .ARM.attributes
                0x0000000000001788       0x2d /usr/lib/gcc/arm-none-eabi/11.2.0/../../../../arm-none-eabi/lib/thumb/v7+fp/hard/libc_nano.a(lib_a-memcpy-stub.o)
 .ARM.attributes
                0x00000000000017b5       0x2d /usr/lib/gcc/arm-none-eabi/11.2.0/../../../../arm-none-eabi/lib/thumb/v7+fp/hard/libc_nano.a(lib_a-memmove.o)
 .ARM.attributes
                0x00000000000017e2       0x2d /usr/lib/gcc/arm-none-eabi/11.2.0/../../../../arm-none-eabi/lib/thumb/v7+fp/hard/libc_nano.a(lib_a-memset.o)
 .ARM.attributes
                0x000000000000180f       0x2d /usr/lib/gcc/arm-none-eabi/11.2.0/../../../../arm-none-eabi/lib/thumb/v7+fp/hard/libc_nano.a(lib_a-nano-callocr.o)
 .ARM.attributes
                0x000000000000183c       0x2d /usr/lib/gcc/arm-none-eabi/11.2.0/../../../../arm-none-eabi/lib/thumb/v7+fp/hard/libc_nano.a(lib_a-nano-freer.o)
 .ARM.attributes
                0x0000000000001869       0x2d /usr/lib/gcc/arm-none-eabi/11.2.0/../../../../arm-none-eabi/lib/thumb/v7+fp/hard/libc_nano.a(lib_a-nano-mallocr.o)
 .ARM.attributes
                0x0000000000001896       0x2d /usr/lib/gcc/arm-none-eabi/11.2.0/../../../../arm-none-eabi/lib/thumb/v7+fp/hard/libc_nano.a(lib_a-nano-vfprintf_float.o)
 .ARM.attributes
                0x00000000000018c3       0x2d /usr/lib/gcc/arm-none-eabi/11.2.0/../../../../arm-none-eabi/lib/thumb/v7+fp/hard/libc_nano.a(lib_a-nano-vfprintf_i.o)
 .ARM.attributes
                0x00000000000018f0       0x2d /usr/lib/gcc/arm-none-eabi/11.2.0/../../../../arm-none-eabi/lib/thumb/v7+fp/hard/libc_nano.a(lib_a-printf.o)
 .ARM.attributes
                0x000000000000191d       0x2d /usr/lib/gcc/arm-none-eabi/11.2.0/../../../../arm-none-eabi/lib/thumb/v7+fp/hard/libc_nano.a(lib_a-putchar.o)
 .ARM.attributes
                0x000000000000194a       0x2d /usr/lib/gcc/arm-none-eabi/11.2.0/../../../../arm-none-eabi/lib/thumb/v7+fp/hard/libc_nano.a(lib_a-putc.o)
 .ARM.attributes
                0x0000000000001977       0x2d /usr/lib/gcc/arm-none-eabi/11.2.0/../../../../arm-none-eabi/lib/thumb/v7+fp/hard/libc_nano.a(lib_a-puts.o)
 .ARM.attributes
                0x00000000000019a4       0x2d /usr/lib/gcc/arm-none-eabi/11.2.0/../../../../arm-none-eabi/lib/thumb/v7+fp/hard/libc_nano.a(lib_a-random.o)
 .ARM.attributes
                0x00000000000019d1       0x2d /usr/lib/gcc/arm-none-eabi/11.2.0/../../../../arm-none-eabi/lib/thumb/v7+fp/hard/libc_nano.a(lib_a-reent.o)
 .ARM.attributes
                0x00000000000019fe       0x2d /usr/lib/gcc/arm-none-eabi/11.2.0/../../../../arm-none-eabi/lib/thumb/v7+fp/hard/libc_nano.a(lib_a-sbrkr.o)
 .ARM.attributes
                0x0000000000001a2b       0x17 /usr/lib/gcc/arm-none-eabi/11.2.0/../../../../arm-none-eabi/lib/thumb/v7+fp/hard/libc_nano.a(lib_a-setjmp.o)
 .ARM.attributes
                0x0000000000001a42       0x2d /usr/lib/gcc/arm-none-eabi/11.2.0/../../../../arm-none-eabi/lib/thumb/v7+fp/hard/libc_nano.a(lib_a-snprintf.o)
 .ARM.attributes
                0x0000000000001a6f       0x2d /usr/lib/gcc/arm-none-eabi/11.2.0/../../../../arm-none-eabi/lib/thumb/v7+fp/hard/libc_nano.a(lib_a-sprintf.o)
 .ARM.attributes
                0x0000000000001a9c       0x2d /usr/lib/gcc/arm-none-eabi/11.2.0/../../../../arm-none-eabi/lib/thumb/v7+fp/hard/libc_nano.a(lib_a-sscanf.o)
 .ARM.attributes
                0x0000000000001ac9       0x2d /usr/lib/gcc/arm-none-eabi/11.2.0/../../../../arm-none-eabi/lib/thumb/v7+fp/hard/libc_nano.a(lib_a-stdio.o)
 .ARM.attributes
                0x0000000000001af6       0x2d /usr/lib/gcc/arm-none-eabi/11.2.0/../../../../arm-none-eabi/lib/thumb/v7+fp/hard/libc_nano.a(lib_a-strcasecmp.o)
 .ARM.attributes
                0x0000000000001b23       0x2d /usr/lib/gcc/arm-none-eabi/11.2.0/../../../../arm-none-eabi/lib/thumb/v7+fp/hard/libc_nano.a(lib_a-strchr.o)
 .ARM.attributes
                0x0000000000001b50       0x17 /usr/lib/gcc/arm-none-eabi/11.2.0/../../../../arm-none-eabi/lib/thumb/v7+fp/hard/libc_nano.a(lib_a-strcmp.o)
 .ARM.attributes
                0x0000000000001b67       0x2d /usr/lib/gcc/arm-none-eabi/11.2.0/../../../../arm-none-eabi/lib/thumb/v7+fp/hard/libc_nano.a(lib_a-strcpy.o)
 .ARM.attributes
                0x0000000000001b94       0x17 /usr/lib/gcc/arm-none-eabi/11.2.0/../../../../arm-none-eabi/lib/thumb/v7+fp/hard/libc_nano.a(lib_a-strlen.o)
 .ARM.attributes
                0x0000000000001bab       0x2d /usr/lib/gcc/arm-none-eabi/11.2.0/../../../../arm-none-eabi/lib/thumb/v7+fp/hard/libc_nano.a(lib_a-strncasecmp.o)
 .ARM.attributes
                0x0000000000001bd8       0x2d /usr/lib/gcc/arm-none-eabi/11.2.0/../../../../arm-none-eabi/lib/thumb/v7+fp/hard/libc_nano.a(lib_a-strncmp.o)
 .ARM.attributes
                0x0000000000001c05       0x2d /usr/lib/gcc/arm-none-eabi/11.2.0/../../../../arm-none-eabi/lib/thumb/v7+fp/hard/libc_nano.a(lib_a-strncpy.o)
 .ARM.attributes
                0x0000000000001c32       0x2d /usr/lib/gcc/arm-none-eabi/11.2.0/../../../../arm-none-eabi/lib/thumb/v7+fp/hard/libc_nano.a(lib_a-strtol.o)
 .ARM.attributes
                0x0000000000001c5f       0x2d /usr/lib/gcc/arm-none-eabi/11.2.0/../../../../arm-none-eabi/lib/thumb/v7+fp/hard/libc_nano.a(lib_a-vprintf.o)
 .ARM.attributes
                0x0000000000001c8c       0x2d /usr/lib/gcc/arm-none-eabi/11.2.0/../../../../arm-none-eabi/lib/thumb/v7+fp/hard/libc_nano.a(lib_a-vsnprintf.o)
 .ARM.attributes
                0x0000000000001cb9       0x2d /usr/lib/gcc/arm-none-eabi/11.2.0/../../../../arm-none-eabi/lib/thumb/v7+fp/hard/libc_nano.a(lib_a-wbuf.o)
 .ARM.attributes
                0x0000000000001ce6       0x2d /usr/lib/gcc/arm-none-eabi/11.2.0/../../../../arm-none-eabi/lib/thumb/v7+fp/hard/libc_nano.a(lib_a-writer.o)
 .ARM.attributes
                0x0000000000001d13       0x2d /usr/lib/gcc/arm-none-eabi/11.2.0/../../../../arm-none-eabi/lib/thumb/v7+fp/hard/libc_nano.a(lib_a-wsetup.o)
 .ARM.attributes
                0x0000000000001d40       0x2d /usr/lib/gcc/arm-none-eabi/11.2.0/../../../../arm-none-eabi/lib/thumb/v7+fp/hard/libc_nano.a(lib_a-assert.o)
 .ARM.attributes
                0x0000000000001d6d       0x2d /usr/lib/gcc/arm-none-eabi/11.2.0/../../../../arm-none-eabi/lib/thumb/v7+fp/hard/libc_nano.a(lib_a-closer.o)
 .ARM.attributes
                0x0000000000001d9a       0x2d /usr/lib/gcc/arm-none-eabi/11.2.0/../../../../arm-none-eabi/lib/thumb/v7+fp/hard/libc_nano.a(lib_a-dtoa.o)
 .ARM.attributes
                0x0000000000001dc7       0x2d /usr/lib/gcc/arm-none-eabi/11.2.0/../../../../arm-none-eabi/lib/thumb/v7+fp/hard/libc_nano.a(lib_a-fprintf.o)
 .ARM.attributes
                0x0000000000001df4       0x2d /usr/lib/gcc/arm-none-eabi/11.2.0/../../../../arm-none-eabi/lib/thumb/v7+fp/hard/libc_nano.a(lib_a-localeconv.o)
 .ARM.attributes
                0x0000000000001e21       0x2d /usr/lib/gcc/arm-none-eabi/11.2.0/../../../../arm-none-eabi/lib/thumb/v7+fp/hard/libc_nano.a(lib_a-locale.o)
 .ARM.attributes
                0x0000000000001e4e       0x2d /usr/lib/gcc/arm-none-eabi/11.2.0/../../../../arm-none-eabi/lib/thumb/v7+fp/hard/libc_nano.a(lib_a-lseekr.o)
 .ARM.attributes
                0x0000000000001e7b       0x2d /usr/lib/gcc/arm-none-eabi/11.2.0/../../../../arm-none-eabi/lib/thumb/v7+fp/hard/libc_nano.a(lib_a-makebuf.o)
 .ARM.attributes
                0x0000000000001ea8       0x2d /usr/lib/gcc/arm-none-eabi/11.2.0/../../../../arm-none-eabi/lib/thumb/v7+fp/hard/libc_nano.a(lib_a-mbtowc_r.o)
 .ARM.attributes
                0x0000000000001ed5       0x2d /usr/lib/gcc/arm-none-eabi/11.2.0/../../../../arm-none-eabi/lib/thumb/v7+fp/hard/libc_nano.a(lib_a-memchr-stub.o)
 .ARM.attributes
                0x0000000000001f02       0x2d /usr/lib/gcc/arm-none-eabi/11.2.0/../../../../arm-none-eabi/lib/thumb/v7+fp/hard/libc_nano.a(lib_a-mlock.o)
 .ARM.attributes
                0x0000000000001f2f       0x2d /usr/lib/gcc/arm-none-eabi/11.2.0/../../../../arm-none-eabi/lib/thumb/v7+fp/hard/libc_nano.a(lib_a-mprec.o)
 .ARM.attributes
                0x0000000000001f5c       0x2d /usr/lib/gcc/arm-none-eabi/11.2.0/../../../../arm-none-eabi/lib/thumb/v7+fp/hard/libc_nano.a(lib_a-nano-svfprintf.o)
 .ARM.attributes
                0x0000000000001f89       0x2d /usr/lib/gcc/arm-none-eabi/11.2.0/../../../../arm-none-eabi/lib/thumb/v7+fp/hard/libc_nano.a(lib_a-nano-svfscanf.o)
 .ARM.attributes
                0x0000000000001fb6       0x2d /usr/lib/gcc/arm-none-eabi/11.2.0/../../../../arm-none-eabi/lib/thumb/v7+fp/hard/libc_nano.a(lib_a-nano-vfprintf.o)
 .ARM.attributes
                0x0000000000001fe3       0x2d /usr/lib/gcc/arm-none-eabi/11.2.0/../../../../arm-none-eabi/lib/thumb/v7+fp/hard/libc_nano.a(lib_a-nano-vfscanf_i.o)
 .ARM.attributes
                0x0000000000002010       0x2d /usr/lib/gcc/arm-none-eabi/11.2.0/../../../../arm-none-eabi/lib/thumb/v7+fp/hard/libc_nano.a(lib_a-readr.o)
 .ARM.attributes
                0x000000000000203d       0x2d /usr/lib/gcc/arm-none-eabi/11.2.0/../../../../arm-none-eabi/lib/thumb/v7+fp/hard/libc_nano.a(lib_a-sccl.o)
 .ARM.attributes
                0x000000000000206a       0x2d /usr/lib/gcc/arm-none-eabi/11.2.0/../../../../arm-none-eabi/lib/thumb/v7+fp/hard/libc_nano.a(lib_a-strtoul.o)
 .ARM.attributes
                0x0000000000002097       0x2d /usr/lib/gcc/arm-none-eabi/11.2.0/../../../../arm-none-eabi/lib/thumb/v7+fp/hard/libc_nano.a(lib_a-ungetc.o)
 .ARM.attributes
                0x00000000000020c4       0x2d /usr/lib/gcc/arm-none-eabi/11.2.0/../../../../arm-none-eabi/lib/thumb/v7+fp/hard/libc_nano.a(lib_a-wctomb_r.o)
 .ARM.attributes
                0x00000000000020f1       0x2d /usr/lib/gcc/arm-none-eabi/11.2.0/../../../../arm-none-eabi/lib/thumb/v7+fp/hard/libc_nano.a(lib_a-abort.o)
 .ARM.attributes
                0x000000000000211e       0x2d /usr/lib/gcc/arm-none-eabi/11.2.0/../../../../arm-none-eabi/lib/thumb/v7+fp/hard/libc_nano.a(lib_a-fstatr.o)
 .ARM.attributes
                0x000000000000214b       0x2d /usr/lib/gcc/arm-none-eabi/11.2.0/../../../../arm-none-eabi/lib/thumb/v7+fp/hard/libc_nano.a(lib_a-fvwrite.o)
 .ARM.attributes
                0x0000000000002178       0x2d /usr/lib/gcc/arm-none-eabi/11.2.0/../../../../arm-none-eabi/lib/thumb/v7+fp/hard/libc_nano.a(lib_a-isattyr.o)
 .ARM.attributes
                0x00000000000021a5       0x2d /usr/lib/gcc/arm-none-eabi/11.2.0/../../../../arm-none-eabi/lib/thumb/v7+fp/hard/libc_nano.a(lib_a-nano-reallocr.o)
 .ARM.attributes
                0x00000000000021d2       0x2d /usr/lib/gcc/arm-none-eabi/11.2.0/../../../../arm-none-eabi/lib/thumb/v7+fp/hard/libc_nano.a(lib_a-signal.o)
 .ARM.attributes
                0x00000000000021ff       0x2d /usr/lib/gcc/arm-none-eabi/11.2.0/../../../../arm-none-eabi/lib/thumb/v7+fp/hard/libc_nano.a(lib_a-signalr.o)
 .ARM.attributes
                0x000000000000222c       0x2d /usr/lib/gcc/arm-none-eabi/11.2.0/../../../../arm-none-eabi/lib/thumb/v7+fp/hard/libc_nano.a(lib_a-nano-msizer.o)
 .ARM.attributes
                0x0000000000002259       0x19 /usr/lib/gcc/arm-none-eabi/11.2.0/thumb/v7+fp/hard/libgcc.a(_udivsi3.o)
 .ARM.attributes
                0x0000000000002272       0x19 /usr/lib/gcc/arm-none-eabi/11.2.0/thumb/v7+fp/hard/libgcc.a(_divsi3.o)
 .ARM.attributes
                0x000000000000228b       0x2d /usr/lib/gcc/arm-none-eabi/11.2.0/../../../../arm-none-eabi/lib/thumb/v7+fp/hard/libnosys.a(getpid.o)
 .ARM.attributes
                0x00000000000022b8       0x2d /usr/lib/gcc/arm-none-eabi/11.2.0/../../../../arm-none-eabi/lib/thumb/v7+fp/hard/libnosys.a(kill.o)
 *(.gnu.attributes)

.note.gnu.arm.ident
 *(.note.gnu.arm.ident)

/DISCARD/
 *(.note.GNU-stack)
 *(.gnu_debuglink)
 *(.gnu.lto_*)
LOAD CMakeFiles/tube-client.dir/armc-cstartup.c.obj
LOAD CMakeFiles/tube-client.dir/armc-cstubs.c.obj
LOAD CMakeFiles/tube-client.dir/armc-start.S.obj
LOAD CMakeFiles/tube-client.dir/cache.c.obj
LOAD CMakeFiles/tube-client.dir/copro-defs.c.obj
LOAD CMakeFiles/tube-client.dir/framebuffer/fonts.c.obj
LOAD CMakeFiles/tube-client.dir/framebuffer/framebuffer.c.obj
LOAD CMakeFiles/tube-client.dir/framebuffer/primitives.c.obj
LOAD CMakeFiles/tube-client.dir/framebuffer/screen_modes.c.obj
LOAD CMakeFiles/tube-client.dir/framebuffer/swi_impl.c.obj
LOAD CMakeFiles/tube-client.dir/framebuffer/teletext.c.obj
LOAD CMakeFiles/tube-client.dir/framebuffer/v3d.c.obj
LOAD CMakeFiles/tube-client.dir/info.c.obj
LOAD CMakeFiles/tube-client.dir/logging.c.obj
LOAD CMakeFiles/tube-client.dir/performance.c.obj
LOAD CMakeFiles/tube-client.dir/programs.c.obj
LOAD CMakeFiles/tube-client.dir/rpi-aux.c.obj
LOAD CMakeFiles/tube-client.dir/rpi-gpio.c.obj
LOAD CMakeFiles/tube-client.dir/rpi-interrupts.c.obj
LOAD CMakeFiles/tube-client.dir/rpi-mailbox-interface.c.obj
LOAD CMakeFiles/tube-client.dir/rpi-mailbox.c.obj
LOAD CMakeFiles/tube-client.dir/rpi-systimer.c.obj
LOAD CMakeFiles/tube-client.dir/tube-client.c.obj
LOAD CMakeFiles/tube-client.dir/tube-exception.c.obj
LOAD CMakeFiles/tube-client.dir/tube-ula.c.obj
LOAD CMakeFiles/tube-client.dir/tube.S.obj
LOAD CMakeFiles/tube-client.dir/tubevc.c.obj
LOAD CMakeFiles/tube-client.dir/utils.c.obj
LOAD CMakeFiles/tube-client.dir/copro-65tube.c.obj
LOAD CMakeFiles/tube-client.dir/copro-65tubeasm.S.obj
LOAD CMakeFiles/tube-client.dir/copro-65tubejit.c.obj
LOAD CMakeFiles/tube-client.dir/jit.S.obj
LOAD CMakeFiles/tube-client.dir/copro-lib6502.c.obj
LOAD CMakeFiles/tube-client.dir/lib6502.c.obj
LOAD CMakeFiles/tube-client.dir/tuberom_6502.c.obj
LOAD CMakeFiles/tube-client.dir/tuberom_6502_turbo.c.obj
LOAD CMakeFiles/tube-client.dir/copro-80186.c.obj
LOAD CMakeFiles/tube-client.dir/cpu80186/cpu80186.c.obj
LOAD CMakeFiles/tube-client.dir/cpu80186/i386dasm.c.obj
LOAD CMakeFiles/tube-client.dir/cpu80186/iop80186.c.obj
LOAD CMakeFiles/tube-client.dir/cpu80186/mem80186.c.obj
LOAD CMakeFiles/tube-client.dir/copro-arm2.c.obj
LOAD CMakeFiles/tube-client.dir/mame/arm.c.obj
LOAD CMakeFiles/tube-client.dir/tuberom_arm.c.obj
LOAD CMakeFiles/tube-client.dir/NS32016/32016.c.obj
LOAD CMakeFiles/tube-client.dir/NS32016/Decode.c.obj
LOAD CMakeFiles/tube-client.dir/NS32016/NSDis.c.obj
LOAD CMakeFiles/tube-client.dir/NS32016/Profile.c.obj
LOAD CMakeFiles/tube-client.dir/NS32016/Trap.c.obj
LOAD CMakeFiles/tube-client.dir/NS32016/mem32016.c.obj
LOAD CMakeFiles/tube-client.dir/copro-32016.c.obj
LOAD CMakeFiles/tube-client.dir/copro-z80.c.obj
LOAD CMakeFiles/tube-client.dir/yaze/simz80.c.obj
LOAD CMakeFiles/tube-client.dir/copro-mc6809nc.c.obj
LOAD CMakeFiles/tube-client.dir/mc6809nc/mc6809.c.obj
LOAD CMakeFiles/tube-client.dir/tuberom_6809.c.obj
LOAD CMakeFiles/tube-client.dir/copro-opc5ls.c.obj
LOAD CMakeFiles/tube-client.dir/opc5ls/opc5ls.c.obj
LOAD CMakeFiles/tube-client.dir/opc5ls/tuberom.c.obj
LOAD CMakeFiles/tube-client.dir/copro-opc6.c.obj
LOAD CMakeFiles/tube-client.dir/opc6/opc6.c.obj
LOAD CMakeFiles/tube-client.dir/opc6/tuberom.c.obj
LOAD CMakeFiles/tube-client.dir/copro-opc7.c.obj
LOAD CMakeFiles/tube-client.dir/opc7/opc7.c.obj
LOAD CMakeFiles/tube-client.dir/opc7/tuberom.c.obj
LOAD CMakeFiles/tube-client.dir/copro-f100.c.obj
LOAD CMakeFiles/tube-client.dir/f100/f100.c.obj
LOAD CMakeFiles/tube-client.dir/f100/tuberom.c.obj
LOAD CMakeFiles/tube-client.dir/65816/65816.c.obj
LOAD CMakeFiles/tube-client.dir/65816/tuberom_dominic65816.c.obj
LOAD CMakeFiles/tube-client.dir/65816/tuberom_reco65816.c.obj
LOAD CMakeFiles/tube-client.dir/copro-65816.c.obj
LOAD CMakeFiles/tube-client.dir/copro-pdp11.c.obj
LOAD CMakeFiles/tube-client.dir/pdp11/pdp11.c.obj
LOAD CMakeFiles/tube-client.dir/pdp11/tuberom.c.obj
LOAD CMakeFiles/tube-client.dir/copro-null.c.obj
LOAD CMakeFiles/tube-client.dir/armbasic.c.obj
LOAD CMakeFiles/tube-client.dir/copro-armnative.c.obj
LOAD CMakeFiles/tube-client.dir/copro-armnativeasm.S.obj
LOAD CMakeFiles/tube-client.dir/darm/armv7-tbl.c.obj
LOAD CMakeFiles/tube-client.dir/darm/armv7.c.obj
LOAD CMakeFiles/tube-client.dir/darm/darm-tbl.c.obj
LOAD CMakeFiles/tube-client.dir/darm/darm.c.obj
LOAD CMakeFiles/tube-client.dir/darm/thumb-tbl.c.obj
LOAD CMakeFiles/tube-client.dir/darm/thumb.c.obj
LOAD CMakeFiles/tube-client.dir/darm/thumb2-decoder.c.obj
LOAD CMakeFiles/tube-client.dir/darm/thumb2-tbl.c.obj
LOAD CMakeFiles/tube-client.dir/darm/thumb2.c.obj
LOAD CMakeFiles/tube-client.dir/rpi-armtimer.c.obj
LOAD CMakeFiles/tube-client.dir/swi.c.obj
LOAD CMakeFiles/tube-client.dir/tube-commands.c.obj
LOAD CMakeFiles/tube-client.dir/tube-isr.c.obj
LOAD CMakeFiles/tube-client.dir/tube-lib.c.obj
LOAD CMakeFiles/tube-client.dir/tube-swi.c.obj
LOAD /usr/lib/gcc/arm-none-eabi/11.2.0/../../../../arm-none-eabi/lib/thumb/v7+fp/hard/libm.a
START GROUP
LOAD /usr/lib/gcc/arm-none-eabi/11.2.0/thumb/v7+fp/hard/libgcc.a
LOAD /usr/lib/gcc/arm-none-eabi/11.2.0/../../../../arm-none-eabi/lib/thumb/v7+fp/hard/libc_nano.a
END GROUP
START GROUP
LOAD /usr/lib/gcc/arm-none-eabi/11.2.0/thumb/v7+fp/hard/libgcc.a
LOAD /usr/lib/gcc/arm-none-eabi/11.2.0/../../../../arm-none-eabi/lib/thumb/v7+fp/hard/libc_nano.a
LOAD /usr/lib/gcc/arm-none-eabi/11.2.0/../../../../arm-none-eabi/lib/thumb/v7+fp/hard/libnosys.a
END GROUP
START GROUP
LOAD /usr/lib/gcc/arm-none-eabi/11.2.0/thumb/v7+fp/hard/libgcc.a
LOAD /usr/lib/gcc/arm-none-eabi/11.2.0/../../../../arm-none-eabi/lib/thumb/v7+fp/hard/libc_nano.a
LOAD /usr/lib/gcc/arm-none-eabi/11.2.0/../../../../arm-none-eabi/lib/thumb/v7+fp/hard/libnosys.a
END GROUP
OUTPUT(tube-client elf32-littlearm)
LOAD linker stubs

.debug_line_str
                0x0000000000000000       0x4e
 .debug_line_str
                0x0000000000000000       0x42 /usr/lib/gcc/arm-none-eabi/11.2.0/thumb/v7+fp/hard/libgcc.a(_aeabi_uldivmod.o)
                                         0x84 (size before relaxing)
 .debug_line_str
                0x0000000000000042        0xc /usr/lib/gcc/arm-none-eabi/11.2.0/thumb/v7+fp/hard/libgcc.a(_dvmd_tls.o)
                                         0x8c (size before relaxing)
 .debug_line_str
                0x000000000000004e       0x8c /usr/lib/gcc/arm-none-eabi/11.2.0/thumb/v7+fp/hard/libgcc.a(_udivsi3.o)
 .debug_line_str
                0x000000000000004e       0x8c /usr/lib/gcc/arm-none-eabi/11.2.0/thumb/v7+fp/hard/libgcc.a(_divsi3.o)

.debug_loclists
                0x0000000000000000      0x263
 .debug_loclists
                0x0000000000000000      0x263 /usr/lib/gcc/arm-none-eabi/11.2.0/thumb/v7+fp/hard/libgcc.a(_udivmoddi4.o)

.debug_rnglists
                0x0000000000000000       0x14
 .debug_rnglists
                0x0000000000000000       0x14 /usr/lib/gcc/arm-none-eabi/11.2.0/thumb/v7+fp/hard/libgcc.a(_udivmoddi4.o)

Cross Reference Table

Symbol                                            File
BreakPoint                                        CMakeFiles/tube-client.dir/NS32016/Decode.c.obj
                                                  CMakeFiles/tube-client.dir/NS32016/32016.c.obj
C_SWI_Handler                                     CMakeFiles/tube-client.dir/tube-swi.c.obj
                                                  CMakeFiles/tube-client.dir/copro-armnativeasm.S.obj
CleanDataCache                                    CMakeFiles/tube-client.dir/cache.c.obj
                                                  CMakeFiles/tube-client.dir/copro-armnativeasm.S.obj
Cleari80186Ram                                    CMakeFiles/tube-client.dir/cpu80186/mem80186.c.obj
                                                  CMakeFiles/tube-client.dir/copro-80186.c.obj
Client86_v1_01                                    CMakeFiles/tube-client.dir/cpu80186/mem80186.c.obj
                                                  CMakeFiles/tube-client.dir/copro-80186.c.obj
FETCH                                             CMakeFiles/tube-client.dir/copro-65tubeasm.S.obj
FormatSizes                                       CMakeFiles/tube-client.dir/NS32016/Decode.c.obj
                                                  CMakeFiles/tube-client.dir/NS32016/NSDis.c.obj
                                                  CMakeFiles/tube-client.dir/NS32016/32016.c.obj
FunctionLookup                                    CMakeFiles/tube-client.dir/NS32016/Decode.c.obj
                                                  CMakeFiles/tube-client.dir/NS32016/NSDis.c.obj
                                                  CMakeFiles/tube-client.dir/NS32016/32016.c.obj
GetDisplacement                                   CMakeFiles/tube-client.dir/NS32016/32016.c.obj
                                                  CMakeFiles/tube-client.dir/NS32016/NSDis.c.obj
HandleTrap                                        CMakeFiles/tube-client.dir/NS32016/Trap.c.obj
                                                  CMakeFiles/tube-client.dir/NS32016/32016.c.obj
InvalidateDataCache                               CMakeFiles/tube-client.dir/cache.c.obj
M6502_delete                                      CMakeFiles/tube-client.dir/lib6502.c.obj
                                                  CMakeFiles/tube-client.dir/copro-lib6502.c.obj
M6502_disassemble                                 CMakeFiles/tube-client.dir/lib6502.c.obj
                                                  CMakeFiles/tube-client.dir/copro-65tubejit.c.obj
M6502_irq                                         CMakeFiles/tube-client.dir/lib6502.c.obj
                                                  CMakeFiles/tube-client.dir/copro-lib6502.c.obj
M6502_new                                         CMakeFiles/tube-client.dir/lib6502.c.obj
                                                  CMakeFiles/tube-client.dir/copro-lib6502.c.obj
M6502_nmi                                         CMakeFiles/tube-client.dir/lib6502.c.obj
                                                  CMakeFiles/tube-client.dir/copro-lib6502.c.obj
M6502_reset                                       CMakeFiles/tube-client.dir/lib6502.c.obj
                                                  CMakeFiles/tube-client.dir/copro-lib6502.c.obj
M6502_run                                         CMakeFiles/tube-client.dir/lib6502.c.obj
                                                  CMakeFiles/tube-client.dir/copro-lib6502.c.obj
M6502_trace                                       CMakeFiles/tube-client.dir/lib6502.c.obj
NOBSUB                                            CMakeFiles/tube-client.dir/copro-65tubeasm.S.obj
NOFETCH                                           CMakeFiles/tube-client.dir/copro-65tubeasm.S.obj
NOSIGN                                            CMakeFiles/tube-client.dir/copro-65tubeasm.S.obj
OS_Byte                                           CMakeFiles/tube-client.dir/swi.c.obj
                                                  CMakeFiles/tube-client.dir/tube-commands.c.obj
                                                  CMakeFiles/tube-client.dir/copro-armnative.c.obj
OS_CLI                                            CMakeFiles/tube-client.dir/swi.c.obj
                                                  CMakeFiles/tube-client.dir/copro-armnative.c.obj
OS_Exit                                           CMakeFiles/tube-client.dir/swi.c.obj
                                                  CMakeFiles/tube-client.dir/copro-armnative.c.obj
OS_GenerateError                                  CMakeFiles/tube-client.dir/swi.c.obj
OS_ReadC                                          CMakeFiles/tube-client.dir/swi.c.obj
                                                  CMakeFiles/tube-client.dir/tube-commands.c.obj
OS_ReadLine                                       CMakeFiles/tube-client.dir/swi.c.obj
                                                  CMakeFiles/tube-client.dir/copro-armnative.c.obj
OS_ReadModeVariable                               CMakeFiles/tube-client.dir/swi.c.obj
                                                  CMakeFiles/tube-client.dir/tube-commands.c.obj
OS_Word                                           CMakeFiles/tube-client.dir/swi.c.obj
                                                  CMakeFiles/tube-client.dir/tube-commands.c.obj
OS_Write0                                         CMakeFiles/tube-client.dir/swi.c.obj
                                                  CMakeFiles/tube-client.dir/tube-commands.c.obj
                                                  CMakeFiles/tube-client.dir/copro-armnative.c.obj
OS_WriteC                                         CMakeFiles/tube-client.dir/swi.c.obj
                                                  CMakeFiles/tube-client.dir/tube-commands.c.obj
                                                  CMakeFiles/tube-client.dir/copro-armnative.c.obj
OpSizeLookup                                      CMakeFiles/tube-client.dir/NS32016/32016.c.obj
                                                  CMakeFiles/tube-client.dir/NS32016/NSDis.c.obj
PR                                                CMakeFiles/tube-client.dir/NS32016/32016.c.obj
RAM                                               CMakeFiles/tube-client.dir/cpu80186/mem80186.c.obj
                                                  CMakeFiles/tube-client.dir/cpu80186/i386dasm.c.obj
RPI_ArmTimerInit                                  CMakeFiles/tube-client.dir/rpi-armtimer.c.obj
                                                  CMakeFiles/tube-client.dir/framebuffer/framebuffer.c.obj
RPI_AuxMiniUartIRQHandler                         CMakeFiles/tube-client.dir/rpi-aux.c.obj
                                                  CMakeFiles/tube-client.dir/armc-start.S.obj
RPI_AuxMiniUartInit                               CMakeFiles/tube-client.dir/rpi-aux.c.obj
                                                  CMakeFiles/tube-client.dir/tube-client.c.obj
RPI_AuxMiniUartWrite                              CMakeFiles/tube-client.dir/rpi-aux.c.obj
                                                  CMakeFiles/tube-client.dir/tube-exception.c.obj
                                                  CMakeFiles/tube-client.dir/armc-cstubs.c.obj
RPI_EnableUart                                    CMakeFiles/tube-client.dir/rpi-aux.c.obj
RPI_GetArmTimer                                   CMakeFiles/tube-client.dir/rpi-armtimer.c.obj
                                                  CMakeFiles/tube-client.dir/framebuffer/framebuffer.c.obj
RPI_GetGpioValue                                  CMakeFiles/tube-client.dir/rpi-gpio.c.obj
RPI_GetIrqController                              CMakeFiles/tube-client.dir/rpi-interrupts.c.obj
                                                  CMakeFiles/tube-client.dir/tube-client.c.obj
                                                  CMakeFiles/tube-client.dir/rpi-aux.c.obj
                                                  CMakeFiles/tube-client.dir/framebuffer/framebuffer.c.obj
RPI_GetSystemTimer                                CMakeFiles/tube-client.dir/rpi-systimer.c.obj
RPI_GpioBase                                      CMakeFiles/tube-client.dir/rpi-gpio.c.obj
                                                  CMakeFiles/tube-client.dir/tube-ula.c.obj
                                                  CMakeFiles/tube-client.dir/tube-client.c.obj
                                                  CMakeFiles/tube-client.dir/rpi-aux.c.obj
RPI_Mailbox0Read                                  CMakeFiles/tube-client.dir/rpi-mailbox.c.obj
                                                  CMakeFiles/tube-client.dir/rpi-mailbox-interface.c.obj
RPI_Mailbox0Write                                 CMakeFiles/tube-client.dir/rpi-mailbox.c.obj
                                                  CMakeFiles/tube-client.dir/rpi-mailbox-interface.c.obj
                                                  CMakeFiles/tube-client.dir/framebuffer/screen_modes.c.obj
RPI_PropertyAddTag                                CMakeFiles/tube-client.dir/rpi-mailbox-interface.c.obj
                                                  CMakeFiles/tube-client.dir/tube-ula.c.obj
                                                  CMakeFiles/tube-client.dir/info.c.obj
                                                  CMakeFiles/tube-client.dir/framebuffer/v3d.c.obj
                                                  CMakeFiles/tube-client.dir/framebuffer/screen_modes.c.obj
                                                  CMakeFiles/tube-client.dir/framebuffer/framebuffer.c.obj
RPI_PropertyGet                                   CMakeFiles/tube-client.dir/rpi-mailbox-interface.c.obj
                                                  CMakeFiles/tube-client.dir/tube-ula.c.obj
                                                  CMakeFiles/tube-client.dir/info.c.obj
                                                  CMakeFiles/tube-client.dir/framebuffer/v3d.c.obj
                                                  CMakeFiles/tube-client.dir/framebuffer/screen_modes.c.obj
RPI_PropertyInit                                  CMakeFiles/tube-client.dir/rpi-mailbox-interface.c.obj
                                                  CMakeFiles/tube-client.dir/tube-ula.c.obj
                                                  CMakeFiles/tube-client.dir/info.c.obj
                                                  CMakeFiles/tube-client.dir/framebuffer/v3d.c.obj
                                                  CMakeFiles/tube-client.dir/framebuffer/screen_modes.c.obj
                                                  CMakeFiles/tube-client.dir/framebuffer/framebuffer.c.obj
RPI_PropertyProcess                               CMakeFiles/tube-client.dir/rpi-mailbox-interface.c.obj
                                                  CMakeFiles/tube-client.dir/tube-ula.c.obj
                                                  CMakeFiles/tube-client.dir/info.c.obj
                                                  CMakeFiles/tube-client.dir/framebuffer/v3d.c.obj
                                                  CMakeFiles/tube-client.dir/framebuffer/screen_modes.c.obj
                                                  CMakeFiles/tube-client.dir/framebuffer/framebuffer.c.obj
RPI_PropertyProcessDebug                          CMakeFiles/tube-client.dir/rpi-mailbox-interface.c.obj
RPI_PropertyProcessNoCheck                        CMakeFiles/tube-client.dir/rpi-mailbox-interface.c.obj
RPI_PropertyProcessNoCheckDebug                   CMakeFiles/tube-client.dir/rpi-mailbox-interface.c.obj
RPI_SetGpioHi                                     CMakeFiles/tube-client.dir/rpi-gpio.c.obj
                                                  CMakeFiles/tube-client.dir/rpi-aux.c.obj
RPI_SetGpioInput                                  CMakeFiles/tube-client.dir/rpi-gpio.c.obj
RPI_SetGpioLo                                     CMakeFiles/tube-client.dir/rpi-gpio.c.obj
                                                  CMakeFiles/tube-client.dir/rpi-aux.c.obj
RPI_SetGpioOutput                                 CMakeFiles/tube-client.dir/rpi-gpio.c.obj
RPI_SetGpioPinFunction                            CMakeFiles/tube-client.dir/rpi-gpio.c.obj
                                                  CMakeFiles/tube-client.dir/tube-ula.c.obj
                                                  CMakeFiles/tube-client.dir/rpi-aux.c.obj
RPI_SetGpioValue                                  CMakeFiles/tube-client.dir/rpi-gpio.c.obj
RPI_ToggleGpio                                    CMakeFiles/tube-client.dir/rpi-gpio.c.obj
RPI_WaitMicroSeconds                              CMakeFiles/tube-client.dir/rpi-systimer.c.obj
                                                  CMakeFiles/tube-client.dir/rpi-aux.c.obj
Regs                                              CMakeFiles/tube-client.dir/NS32016/32016.c.obj
                                                  CMakeFiles/tube-client.dir/NS32016/NSDis.c.obj
RomCopy                                           CMakeFiles/tube-client.dir/cpu80186/mem80186.c.obj
                                                  CMakeFiles/tube-client.dir/copro-80186.c.obj
SIGN                                              CMakeFiles/tube-client.dir/copro-65tubeasm.S.obj
SUBPC                                             CMakeFiles/tube-client.dir/copro-65tubeasm.S.obj
SWIHandler_Table                                  CMakeFiles/tube-client.dir/tube-swi.c.obj
                                                  CMakeFiles/tube-client.dir/framebuffer/swi_impl.c.obj
ShowRegisterWrite                                 CMakeFiles/tube-client.dir/NS32016/NSDis.c.obj
TrapFlags                                         CMakeFiles/tube-client.dir/NS32016/Trap.c.obj
                                                  CMakeFiles/tube-client.dir/NS32016/32016.c.obj
_Balloc                                           /usr/lib/gcc/arm-none-eabi/11.2.0/../../../../arm-none-eabi/lib/thumb/v7+fp/hard/libc_nano.a(lib_a-mprec.o)
                                                  /usr/lib/gcc/arm-none-eabi/11.2.0/../../../../arm-none-eabi/lib/thumb/v7+fp/hard/libc_nano.a(lib_a-dtoa.o)
_Bfree                                            /usr/lib/gcc/arm-none-eabi/11.2.0/../../../../arm-none-eabi/lib/thumb/v7+fp/hard/libc_nano.a(lib_a-mprec.o)
                                                  /usr/lib/gcc/arm-none-eabi/11.2.0/../../../../arm-none-eabi/lib/thumb/v7+fp/hard/libc_nano.a(lib_a-dtoa.o)
_PathLocale                                       /usr/lib/gcc/arm-none-eabi/11.2.0/../../../../arm-none-eabi/lib/thumb/v7+fp/hard/libc_nano.a(lib_a-locale.o)
__aeabi_idiv                                      /usr/lib/gcc/arm-none-eabi/11.2.0/thumb/v7+fp/hard/libgcc.a(_divsi3.o)
                                                  /usr/lib/gcc/arm-none-eabi/11.2.0/../../../../arm-none-eabi/lib/thumb/v7+fp/hard/libc_nano.a(lib_a-fvwrite.o)
__aeabi_idiv0                                     /usr/lib/gcc/arm-none-eabi/11.2.0/thumb/v7+fp/hard/libgcc.a(_dvmd_tls.o)
                                                  /usr/lib/gcc/arm-none-eabi/11.2.0/thumb/v7+fp/hard/libgcc.a(_divsi3.o)
                                                  /usr/lib/gcc/arm-none-eabi/11.2.0/thumb/v7+fp/hard/libgcc.a(_udivsi3.o)
__aeabi_idivmod                                   /usr/lib/gcc/arm-none-eabi/11.2.0/thumb/v7+fp/hard/libgcc.a(_divsi3.o)
                                                  /usr/lib/gcc/arm-none-eabi/11.2.0/../../../../arm-none-eabi/lib/thumb/v7+fp/hard/libc_nano.a(lib_a-nano-vfprintf_float.o)
__aeabi_ldiv0                                     /usr/lib/gcc/arm-none-eabi/11.2.0/thumb/v7+fp/hard/libgcc.a(_dvmd_tls.o)
                                                  /usr/lib/gcc/arm-none-eabi/11.2.0/thumb/v7+fp/hard/libgcc.a(_aeabi_uldivmod.o)
__aeabi_uidiv                                     /usr/lib/gcc/arm-none-eabi/11.2.0/thumb/v7+fp/hard/libgcc.a(_udivsi3.o)
                                                  /usr/lib/gcc/arm-none-eabi/11.2.0/../../../../arm-none-eabi/lib/thumb/v7+fp/hard/libc_nano.a(lib_a-strtoul.o)
                                                  /usr/lib/gcc/arm-none-eabi/11.2.0/../../../../arm-none-eabi/lib/thumb/v7+fp/hard/libc_nano.a(lib_a-dtoa.o)
                                                  /usr/lib/gcc/arm-none-eabi/11.2.0/../../../../arm-none-eabi/lib/thumb/v7+fp/hard/libc_nano.a(lib_a-fwrite.o)
__aeabi_uidivmod                                  /usr/lib/gcc/arm-none-eabi/11.2.0/thumb/v7+fp/hard/libgcc.a(_udivsi3.o)
                                                  /usr/lib/gcc/arm-none-eabi/11.2.0/../../../../arm-none-eabi/lib/thumb/v7+fp/hard/libc_nano.a(lib_a-strtoul.o)
                                                  /usr/lib/gcc/arm-none-eabi/11.2.0/../../../../arm-none-eabi/lib/thumb/v7+fp/hard/libc_nano.a(lib_a-strtol.o)
                                                  /usr/lib/gcc/arm-none-eabi/11.2.0/../../../../arm-none-eabi/lib/thumb/v7+fp/hard/libc_nano.a(lib_a-nano-vfprintf_i.o)
__aeabi_uldivmod                                  /usr/lib/gcc/arm-none-eabi/11.2.0/thumb/v7+fp/hard/libgcc.a(_aeabi_uldivmod.o)
                                                  CMakeFiles/tube-client.dir/NS32016/32016.c.obj
__any_on                                          /usr/lib/gcc/arm-none-eabi/11.2.0/../../../../arm-none-eabi/lib/thumb/v7+fp/hard/libc_nano.a(lib_a-mprec.o)
__ascii_mbtowc                                    /usr/lib/gcc/arm-none-eabi/11.2.0/../../../../arm-none-eabi/lib/thumb/v7+fp/hard/libc_nano.a(lib_a-mbtowc_r.o)
                                                  /usr/lib/gcc/arm-none-eabi/11.2.0/../../../../arm-none-eabi/lib/thumb/v7+fp/hard/libc_nano.a(lib_a-locale.o)
__ascii_wctomb                                    /usr/lib/gcc/arm-none-eabi/11.2.0/../../../../arm-none-eabi/lib/thumb/v7+fp/hard/libc_nano.a(lib_a-wctomb_r.o)
                                                  /usr/lib/gcc/arm-none-eabi/11.2.0/../../../../arm-none-eabi/lib/thumb/v7+fp/hard/libc_nano.a(lib_a-locale.o)
__assert                                          /usr/lib/gcc/arm-none-eabi/11.2.0/../../../../arm-none-eabi/lib/thumb/v7+fp/hard/libc_nano.a(lib_a-assert.o)
__assert_func                                     /usr/lib/gcc/arm-none-eabi/11.2.0/../../../../arm-none-eabi/lib/thumb/v7+fp/hard/libc_nano.a(lib_a-assert.o)
                                                  /usr/lib/gcc/arm-none-eabi/11.2.0/../../../../arm-none-eabi/lib/thumb/v7+fp/hard/libc_nano.a(lib_a-mprec.o)
                                                  /usr/lib/gcc/arm-none-eabi/11.2.0/../../../../arm-none-eabi/lib/thumb/v7+fp/hard/libc_nano.a(lib_a-dtoa.o)
                                                  /usr/lib/gcc/arm-none-eabi/11.2.0/../../../../arm-none-eabi/lib/thumb/v7+fp/hard/libc_nano.a(lib_a-random.o)
__b2d                                             /usr/lib/gcc/arm-none-eabi/11.2.0/../../../../arm-none-eabi/lib/thumb/v7+fp/hard/libc_nano.a(lib_a-mprec.o)
__bss_end__                                       CMakeFiles/tube-client.dir/armc-cstartup.c.obj
__bss_start__                                     CMakeFiles/tube-client.dir/armc-cstartup.c.obj
__copybits                                        /usr/lib/gcc/arm-none-eabi/11.2.0/../../../../arm-none-eabi/lib/thumb/v7+fp/hard/libc_nano.a(lib_a-mprec.o)
__cvt                                             /usr/lib/gcc/arm-none-eabi/11.2.0/../../../../arm-none-eabi/lib/thumb/v7+fp/hard/libc_nano.a(lib_a-nano-vfprintf_float.o)
__d2b                                             /usr/lib/gcc/arm-none-eabi/11.2.0/../../../../arm-none-eabi/lib/thumb/v7+fp/hard/libc_nano.a(lib_a-mprec.o)
                                                  /usr/lib/gcc/arm-none-eabi/11.2.0/../../../../arm-none-eabi/lib/thumb/v7+fp/hard/libc_nano.a(lib_a-dtoa.o)
__divsi3                                          /usr/lib/gcc/arm-none-eabi/11.2.0/thumb/v7+fp/hard/libgcc.a(_divsi3.o)
__env                                             CMakeFiles/tube-client.dir/armc-cstubs.c.obj
__errno                                           /usr/lib/gcc/arm-none-eabi/11.2.0/../../../../arm-none-eabi/lib/thumb/v7+fp/hard/libc_nano.a(lib_a-errno.o)
                                                  /usr/lib/gcc/arm-none-eabi/11.2.0/../../../../arm-none-eabi/lib/thumb/v7+fp/hard/libc_nano.a(lib_a-strtol.o)
                                                  /usr/lib/gcc/arm-none-eabi/11.2.0/../../../../arm-none-eabi/lib/thumb/v7+fp/hard/libm.a(lib_a-w_sqrt.o)
                                                  /usr/lib/gcc/arm-none-eabi/11.2.0/../../../../arm-none-eabi/lib/thumb/v7+fp/hard/libm.a(lib_a-wf_sqrt.o)
__exponent                                        /usr/lib/gcc/arm-none-eabi/11.2.0/../../../../arm-none-eabi/lib/thumb/v7+fp/hard/libc_nano.a(lib_a-nano-vfprintf_float.o)
__fp_lock_all                                     /usr/lib/gcc/arm-none-eabi/11.2.0/../../../../arm-none-eabi/lib/thumb/v7+fp/hard/libc_nano.a(lib_a-findfp.o)
__fp_unlock_all                                   /usr/lib/gcc/arm-none-eabi/11.2.0/../../../../arm-none-eabi/lib/thumb/v7+fp/hard/libc_nano.a(lib_a-findfp.o)
__global_locale                                   /usr/lib/gcc/arm-none-eabi/11.2.0/../../../../arm-none-eabi/lib/thumb/v7+fp/hard/libc_nano.a(lib_a-locale.o)
                                                  /usr/lib/gcc/arm-none-eabi/11.2.0/../../../../arm-none-eabi/lib/thumb/v7+fp/hard/libc_nano.a(lib_a-wctomb_r.o)
                                                  /usr/lib/gcc/arm-none-eabi/11.2.0/../../../../arm-none-eabi/lib/thumb/v7+fp/hard/libc_nano.a(lib_a-mbtowc_r.o)
                                                  /usr/lib/gcc/arm-none-eabi/11.2.0/../../../../arm-none-eabi/lib/thumb/v7+fp/hard/libc_nano.a(lib_a-localeconv.o)
__hi0bits                                         /usr/lib/gcc/arm-none-eabi/11.2.0/../../../../arm-none-eabi/lib/thumb/v7+fp/hard/libc_nano.a(lib_a-mprec.o)
                                                  /usr/lib/gcc/arm-none-eabi/11.2.0/../../../../arm-none-eabi/lib/thumb/v7+fp/hard/libc_nano.a(lib_a-dtoa.o)
__i2b                                             /usr/lib/gcc/arm-none-eabi/11.2.0/../../../../arm-none-eabi/lib/thumb/v7+fp/hard/libc_nano.a(lib_a-mprec.o)
                                                  /usr/lib/gcc/arm-none-eabi/11.2.0/../../../../arm-none-eabi/lib/thumb/v7+fp/hard/libc_nano.a(lib_a-dtoa.o)
__ieee754_sqrt                                    /usr/lib/gcc/arm-none-eabi/11.2.0/../../../../arm-none-eabi/lib/thumb/v7+fp/hard/libm.a(lib_a-e_sqrt.o)
                                                  /usr/lib/gcc/arm-none-eabi/11.2.0/../../../../arm-none-eabi/lib/thumb/v7+fp/hard/libm.a(lib_a-w_sqrt.o)
__ieee754_sqrtf                                   /usr/lib/gcc/arm-none-eabi/11.2.0/../../../../arm-none-eabi/lib/thumb/v7+fp/hard/libm.a(lib_a-ef_sqrt.o)
                                                  /usr/lib/gcc/arm-none-eabi/11.2.0/../../../../arm-none-eabi/lib/thumb/v7+fp/hard/libm.a(lib_a-wf_sqrt.o)
__lo0bits                                         /usr/lib/gcc/arm-none-eabi/11.2.0/../../../../arm-none-eabi/lib/thumb/v7+fp/hard/libc_nano.a(lib_a-mprec.o)
__locale_mb_cur_max                               /usr/lib/gcc/arm-none-eabi/11.2.0/../../../../arm-none-eabi/lib/thumb/v7+fp/hard/libc_nano.a(lib_a-locale.o)
__localeconv_l                                    /usr/lib/gcc/arm-none-eabi/11.2.0/../../../../arm-none-eabi/lib/thumb/v7+fp/hard/libc_nano.a(lib_a-localeconv.o)
__lock___arc4random_mutex                         /usr/lib/gcc/arm-none-eabi/11.2.0/../../../../arm-none-eabi/lib/thumb/v7+fp/hard/libc_nano.a(lib_a-lock.o)
__lock___at_quick_exit_mutex                      /usr/lib/gcc/arm-none-eabi/11.2.0/../../../../arm-none-eabi/lib/thumb/v7+fp/hard/libc_nano.a(lib_a-lock.o)
__lock___atexit_recursive_mutex                   /usr/lib/gcc/arm-none-eabi/11.2.0/../../../../arm-none-eabi/lib/thumb/v7+fp/hard/libc_nano.a(lib_a-lock.o)
__lock___dd_hash_mutex                            /usr/lib/gcc/arm-none-eabi/11.2.0/../../../../arm-none-eabi/lib/thumb/v7+fp/hard/libc_nano.a(lib_a-lock.o)
__lock___env_recursive_mutex                      /usr/lib/gcc/arm-none-eabi/11.2.0/../../../../arm-none-eabi/lib/thumb/v7+fp/hard/libc_nano.a(lib_a-lock.o)
__lock___malloc_recursive_mutex                   /usr/lib/gcc/arm-none-eabi/11.2.0/../../../../arm-none-eabi/lib/thumb/v7+fp/hard/libc_nano.a(lib_a-lock.o)
                                                  /usr/lib/gcc/arm-none-eabi/11.2.0/../../../../arm-none-eabi/lib/thumb/v7+fp/hard/libc_nano.a(lib_a-mlock.o)
__lock___sfp_recursive_mutex                      /usr/lib/gcc/arm-none-eabi/11.2.0/../../../../arm-none-eabi/lib/thumb/v7+fp/hard/libc_nano.a(lib_a-lock.o)
                                                  /usr/lib/gcc/arm-none-eabi/11.2.0/../../../../arm-none-eabi/lib/thumb/v7+fp/hard/libc_nano.a(lib_a-findfp.o)
__lock___sinit_recursive_mutex                    /usr/lib/gcc/arm-none-eabi/11.2.0/../../../../arm-none-eabi/lib/thumb/v7+fp/hard/libc_nano.a(lib_a-lock.o)
                                                  /usr/lib/gcc/arm-none-eabi/11.2.0/../../../../arm-none-eabi/lib/thumb/v7+fp/hard/libc_nano.a(lib_a-findfp.o)
__lock___tz_mutex                                 /usr/lib/gcc/arm-none-eabi/11.2.0/../../../../arm-none-eabi/lib/thumb/v7+fp/hard/libc_nano.a(lib_a-lock.o)
__lshift                                          /usr/lib/gcc/arm-none-eabi/11.2.0/../../../../arm-none-eabi/lib/thumb/v7+fp/hard/libc_nano.a(lib_a-mprec.o)
                                                  /usr/lib/gcc/arm-none-eabi/11.2.0/../../../../arm-none-eabi/lib/thumb/v7+fp/hard/libc_nano.a(lib_a-dtoa.o)
__malloc_free_list                                /usr/lib/gcc/arm-none-eabi/11.2.0/../../../../arm-none-eabi/lib/thumb/v7+fp/hard/libc_nano.a(lib_a-nano-mallocr.o)
                                                  /usr/lib/gcc/arm-none-eabi/11.2.0/../../../../arm-none-eabi/lib/thumb/v7+fp/hard/libc_nano.a(lib_a-nano-freer.o)
__malloc_lock                                     /usr/lib/gcc/arm-none-eabi/11.2.0/../../../../arm-none-eabi/lib/thumb/v7+fp/hard/libc_nano.a(lib_a-mlock.o)
                                                  /usr/lib/gcc/arm-none-eabi/11.2.0/../../../../arm-none-eabi/lib/thumb/v7+fp/hard/libc_nano.a(lib_a-nano-mallocr.o)
                                                  /usr/lib/gcc/arm-none-eabi/11.2.0/../../../../arm-none-eabi/lib/thumb/v7+fp/hard/libc_nano.a(lib_a-nano-freer.o)
__malloc_sbrk_start                               /usr/lib/gcc/arm-none-eabi/11.2.0/../../../../arm-none-eabi/lib/thumb/v7+fp/hard/libc_nano.a(lib_a-nano-mallocr.o)
__malloc_unlock                                   /usr/lib/gcc/arm-none-eabi/11.2.0/../../../../arm-none-eabi/lib/thumb/v7+fp/hard/libc_nano.a(lib_a-mlock.o)
                                                  /usr/lib/gcc/arm-none-eabi/11.2.0/../../../../arm-none-eabi/lib/thumb/v7+fp/hard/libc_nano.a(lib_a-nano-mallocr.o)
                                                  /usr/lib/gcc/arm-none-eabi/11.2.0/../../../../arm-none-eabi/lib/thumb/v7+fp/hard/libc_nano.a(lib_a-nano-freer.o)
__mcmp                                            /usr/lib/gcc/arm-none-eabi/11.2.0/../../../../arm-none-eabi/lib/thumb/v7+fp/hard/libc_nano.a(lib_a-mprec.o)
                                                  /usr/lib/gcc/arm-none-eabi/11.2.0/../../../../arm-none-eabi/lib/thumb/v7+fp/hard/libc_nano.a(lib_a-dtoa.o)
__mdiff                                           /usr/lib/gcc/arm-none-eabi/11.2.0/../../../../arm-none-eabi/lib/thumb/v7+fp/hard/libc_nano.a(lib_a-mprec.o)
                                                  /usr/lib/gcc/arm-none-eabi/11.2.0/../../../../arm-none-eabi/lib/thumb/v7+fp/hard/libc_nano.a(lib_a-dtoa.o)
__mprec_bigtens                                   /usr/lib/gcc/arm-none-eabi/11.2.0/../../../../arm-none-eabi/lib/thumb/v7+fp/hard/libc_nano.a(lib_a-mprec.o)
                                                  /usr/lib/gcc/arm-none-eabi/11.2.0/../../../../arm-none-eabi/lib/thumb/v7+fp/hard/libc_nano.a(lib_a-dtoa.o)
__mprec_tens                                      /usr/lib/gcc/arm-none-eabi/11.2.0/../../../../arm-none-eabi/lib/thumb/v7+fp/hard/libc_nano.a(lib_a-mprec.o)
                                                  /usr/lib/gcc/arm-none-eabi/11.2.0/../../../../arm-none-eabi/lib/thumb/v7+fp/hard/libc_nano.a(lib_a-dtoa.o)
__mprec_tinytens                                  /usr/lib/gcc/arm-none-eabi/11.2.0/../../../../arm-none-eabi/lib/thumb/v7+fp/hard/libc_nano.a(lib_a-mprec.o)
__multadd                                         /usr/lib/gcc/arm-none-eabi/11.2.0/../../../../arm-none-eabi/lib/thumb/v7+fp/hard/libc_nano.a(lib_a-mprec.o)
                                                  /usr/lib/gcc/arm-none-eabi/11.2.0/../../../../arm-none-eabi/lib/thumb/v7+fp/hard/libc_nano.a(lib_a-dtoa.o)
__multiply                                        /usr/lib/gcc/arm-none-eabi/11.2.0/../../../../arm-none-eabi/lib/thumb/v7+fp/hard/libc_nano.a(lib_a-mprec.o)
                                                  /usr/lib/gcc/arm-none-eabi/11.2.0/../../../../arm-none-eabi/lib/thumb/v7+fp/hard/libc_nano.a(lib_a-dtoa.o)
__pow5mult                                        /usr/lib/gcc/arm-none-eabi/11.2.0/../../../../arm-none-eabi/lib/thumb/v7+fp/hard/libc_nano.a(lib_a-mprec.o)
                                                  /usr/lib/gcc/arm-none-eabi/11.2.0/../../../../arm-none-eabi/lib/thumb/v7+fp/hard/libc_nano.a(lib_a-dtoa.o)
__ratio                                           /usr/lib/gcc/arm-none-eabi/11.2.0/../../../../arm-none-eabi/lib/thumb/v7+fp/hard/libc_nano.a(lib_a-mprec.o)
__retarget_lock_acquire                           /usr/lib/gcc/arm-none-eabi/11.2.0/../../../../arm-none-eabi/lib/thumb/v7+fp/hard/libc_nano.a(lib_a-lock.o)
__retarget_lock_acquire_recursive                 /usr/lib/gcc/arm-none-eabi/11.2.0/../../../../arm-none-eabi/lib/thumb/v7+fp/hard/libc_nano.a(lib_a-lock.o)
                                                  /usr/lib/gcc/arm-none-eabi/11.2.0/../../../../arm-none-eabi/lib/thumb/v7+fp/hard/libc_nano.a(lib_a-ungetc.o)
                                                  /usr/lib/gcc/arm-none-eabi/11.2.0/../../../../arm-none-eabi/lib/thumb/v7+fp/hard/libc_nano.a(lib_a-nano-vfprintf.o)
                                                  /usr/lib/gcc/arm-none-eabi/11.2.0/../../../../arm-none-eabi/lib/thumb/v7+fp/hard/libc_nano.a(lib_a-mlock.o)
                                                  /usr/lib/gcc/arm-none-eabi/11.2.0/../../../../arm-none-eabi/lib/thumb/v7+fp/hard/libc_nano.a(lib_a-puts.o)
                                                  /usr/lib/gcc/arm-none-eabi/11.2.0/../../../../arm-none-eabi/lib/thumb/v7+fp/hard/libc_nano.a(lib_a-putc.o)
                                                  /usr/lib/gcc/arm-none-eabi/11.2.0/../../../../arm-none-eabi/lib/thumb/v7+fp/hard/libc_nano.a(lib_a-fwrite.o)
                                                  /usr/lib/gcc/arm-none-eabi/11.2.0/../../../../arm-none-eabi/lib/thumb/v7+fp/hard/libc_nano.a(lib_a-findfp.o)
                                                  /usr/lib/gcc/arm-none-eabi/11.2.0/../../../../arm-none-eabi/lib/thumb/v7+fp/hard/libc_nano.a(lib_a-fflush.o)
__retarget_lock_close                             /usr/lib/gcc/arm-none-eabi/11.2.0/../../../../arm-none-eabi/lib/thumb/v7+fp/hard/libc_nano.a(lib_a-lock.o)
__retarget_lock_close_recursive                   /usr/lib/gcc/arm-none-eabi/11.2.0/../../../../arm-none-eabi/lib/thumb/v7+fp/hard/libc_nano.a(lib_a-lock.o)
__retarget_lock_init                              /usr/lib/gcc/arm-none-eabi/11.2.0/../../../../arm-none-eabi/lib/thumb/v7+fp/hard/libc_nano.a(lib_a-lock.o)
__retarget_lock_init_recursive                    /usr/lib/gcc/arm-none-eabi/11.2.0/../../../../arm-none-eabi/lib/thumb/v7+fp/hard/libc_nano.a(lib_a-lock.o)
                                                  /usr/lib/gcc/arm-none-eabi/11.2.0/../../../../arm-none-eabi/lib/thumb/v7+fp/hard/libc_nano.a(lib_a-findfp.o)
__retarget_lock_release                           /usr/lib/gcc/arm-none-eabi/11.2.0/../../../../arm-none-eabi/lib/thumb/v7+fp/hard/libc_nano.a(lib_a-lock.o)
__retarget_lock_release_recursive                 /usr/lib/gcc/arm-none-eabi/11.2.0/../../../../arm-none-eabi/lib/thumb/v7+fp/hard/libc_nano.a(lib_a-lock.o)
                                                  /usr/lib/gcc/arm-none-eabi/11.2.0/../../../../arm-none-eabi/lib/thumb/v7+fp/hard/libc_nano.a(lib_a-ungetc.o)
                                                  /usr/lib/gcc/arm-none-eabi/11.2.0/../../../../arm-none-eabi/lib/thumb/v7+fp/hard/libc_nano.a(lib_a-nano-vfprintf.o)
                                                  /usr/lib/gcc/arm-none-eabi/11.2.0/../../../../arm-none-eabi/lib/thumb/v7+fp/hard/libc_nano.a(lib_a-mlock.o)
                                                  /usr/lib/gcc/arm-none-eabi/11.2.0/../../../../arm-none-eabi/lib/thumb/v7+fp/hard/libc_nano.a(lib_a-puts.o)
                                                  /usr/lib/gcc/arm-none-eabi/11.2.0/../../../../arm-none-eabi/lib/thumb/v7+fp/hard/libc_nano.a(lib_a-putc.o)
                                                  /usr/lib/gcc/arm-none-eabi/11.2.0/../../../../arm-none-eabi/lib/thumb/v7+fp/hard/libc_nano.a(lib_a-fwrite.o)
                                                  /usr/lib/gcc/arm-none-eabi/11.2.0/../../../../arm-none-eabi/lib/thumb/v7+fp/hard/libc_nano.a(lib_a-findfp.o)
                                                  /usr/lib/gcc/arm-none-eabi/11.2.0/../../../../arm-none-eabi/lib/thumb/v7+fp/hard/libc_nano.a(lib_a-fflush.o)
__retarget_lock_try_acquire                       /usr/lib/gcc/arm-none-eabi/11.2.0/../../../../arm-none-eabi/lib/thumb/v7+fp/hard/libc_nano.a(lib_a-lock.o)
__retarget_lock_try_acquire_recursive             /usr/lib/gcc/arm-none-eabi/11.2.0/../../../../arm-none-eabi/lib/thumb/v7+fp/hard/libc_nano.a(lib_a-lock.o)
__s2b                                             /usr/lib/gcc/arm-none-eabi/11.2.0/../../../../arm-none-eabi/lib/thumb/v7+fp/hard/libc_nano.a(lib_a-mprec.o)
__sccl                                            /usr/lib/gcc/arm-none-eabi/11.2.0/../../../../arm-none-eabi/lib/thumb/v7+fp/hard/libc_nano.a(lib_a-sccl.o)
                                                  /usr/lib/gcc/arm-none-eabi/11.2.0/../../../../arm-none-eabi/lib/thumb/v7+fp/hard/libc_nano.a(lib_a-nano-vfscanf_i.o)
                                                  /usr/lib/gcc/arm-none-eabi/11.2.0/../../../../arm-none-eabi/lib/thumb/v7+fp/hard/libc_nano.a(lib_a-nano-svfscanf.o)
__sclose                                          /usr/lib/gcc/arm-none-eabi/11.2.0/../../../../arm-none-eabi/lib/thumb/v7+fp/hard/libc_nano.a(lib_a-stdio.o)
                                                  /usr/lib/gcc/arm-none-eabi/11.2.0/../../../../arm-none-eabi/lib/thumb/v7+fp/hard/libc_nano.a(lib_a-findfp.o)
__seofread                                        /usr/lib/gcc/arm-none-eabi/11.2.0/../../../../arm-none-eabi/lib/thumb/v7+fp/hard/libc_nano.a(lib_a-stdio.o)
                                                  /usr/lib/gcc/arm-none-eabi/11.2.0/../../../../arm-none-eabi/lib/thumb/v7+fp/hard/libc_nano.a(lib_a-sscanf.o)
__sf_fake_stderr                                  /usr/lib/gcc/arm-none-eabi/11.2.0/../../../../arm-none-eabi/lib/thumb/v7+fp/hard/libc_nano.a(lib_a-findfp.o)
                                                  /usr/lib/gcc/arm-none-eabi/11.2.0/../../../../arm-none-eabi/lib/thumb/v7+fp/hard/libc_nano.a(lib_a-ungetc.o)
                                                  /usr/lib/gcc/arm-none-eabi/11.2.0/../../../../arm-none-eabi/lib/thumb/v7+fp/hard/libc_nano.a(lib_a-nano-vfprintf.o)
                                                  /usr/lib/gcc/arm-none-eabi/11.2.0/../../../../arm-none-eabi/lib/thumb/v7+fp/hard/libc_nano.a(lib_a-wsetup.o)
                                                  /usr/lib/gcc/arm-none-eabi/11.2.0/../../../../arm-none-eabi/lib/thumb/v7+fp/hard/libc_nano.a(lib_a-wbuf.o)
                                                  /usr/lib/gcc/arm-none-eabi/11.2.0/../../../../arm-none-eabi/lib/thumb/v7+fp/hard/libc_nano.a(lib_a-puts.o)
                                                  /usr/lib/gcc/arm-none-eabi/11.2.0/../../../../arm-none-eabi/lib/thumb/v7+fp/hard/libc_nano.a(lib_a-putc.o)
                                                  /usr/lib/gcc/arm-none-eabi/11.2.0/../../../../arm-none-eabi/lib/thumb/v7+fp/hard/libc_nano.a(lib_a-impure.o)
                                                  /usr/lib/gcc/arm-none-eabi/11.2.0/../../../../arm-none-eabi/lib/thumb/v7+fp/hard/libc_nano.a(lib_a-fwrite.o)
                                                  /usr/lib/gcc/arm-none-eabi/11.2.0/../../../../arm-none-eabi/lib/thumb/v7+fp/hard/libc_nano.a(lib_a-fflush.o)
__sf_fake_stdin                                   /usr/lib/gcc/arm-none-eabi/11.2.0/../../../../arm-none-eabi/lib/thumb/v7+fp/hard/libc_nano.a(lib_a-findfp.o)
                                                  /usr/lib/gcc/arm-none-eabi/11.2.0/../../../../arm-none-eabi/lib/thumb/v7+fp/hard/libc_nano.a(lib_a-ungetc.o)
                                                  /usr/lib/gcc/arm-none-eabi/11.2.0/../../../../arm-none-eabi/lib/thumb/v7+fp/hard/libc_nano.a(lib_a-nano-vfprintf.o)
                                                  /usr/lib/gcc/arm-none-eabi/11.2.0/../../../../arm-none-eabi/lib/thumb/v7+fp/hard/libc_nano.a(lib_a-wsetup.o)
                                                  /usr/lib/gcc/arm-none-eabi/11.2.0/../../../../arm-none-eabi/lib/thumb/v7+fp/hard/libc_nano.a(lib_a-wbuf.o)
                                                  /usr/lib/gcc/arm-none-eabi/11.2.0/../../../../arm-none-eabi/lib/thumb/v7+fp/hard/libc_nano.a(lib_a-puts.o)
                                                  /usr/lib/gcc/arm-none-eabi/11.2.0/../../../../arm-none-eabi/lib/thumb/v7+fp/hard/libc_nano.a(lib_a-putc.o)
                                                  /usr/lib/gcc/arm-none-eabi/11.2.0/../../../../arm-none-eabi/lib/thumb/v7+fp/hard/libc_nano.a(lib_a-impure.o)
                                                  /usr/lib/gcc/arm-none-eabi/11.2.0/../../../../arm-none-eabi/lib/thumb/v7+fp/hard/libc_nano.a(lib_a-fwrite.o)
                                                  /usr/lib/gcc/arm-none-eabi/11.2.0/../../../../arm-none-eabi/lib/thumb/v7+fp/hard/libc_nano.a(lib_a-fflush.o)
__sf_fake_stdout                                  /usr/lib/gcc/arm-none-eabi/11.2.0/../../../../arm-none-eabi/lib/thumb/v7+fp/hard/libc_nano.a(lib_a-findfp.o)
                                                  /usr/lib/gcc/arm-none-eabi/11.2.0/../../../../arm-none-eabi/lib/thumb/v7+fp/hard/libc_nano.a(lib_a-ungetc.o)
                                                  /usr/lib/gcc/arm-none-eabi/11.2.0/../../../../arm-none-eabi/lib/thumb/v7+fp/hard/libc_nano.a(lib_a-nano-vfprintf.o)
                                                  /usr/lib/gcc/arm-none-eabi/11.2.0/../../../../arm-none-eabi/lib/thumb/v7+fp/hard/libc_nano.a(lib_a-wsetup.o)
                                                  /usr/lib/gcc/arm-none-eabi/11.2.0/../../../../arm-none-eabi/lib/thumb/v7+fp/hard/libc_nano.a(lib_a-wbuf.o)
                                                  /usr/lib/gcc/arm-none-eabi/11.2.0/../../../../arm-none-eabi/lib/thumb/v7+fp/hard/libc_nano.a(lib_a-puts.o)
                                                  /usr/lib/gcc/arm-none-eabi/11.2.0/../../../../arm-none-eabi/lib/thumb/v7+fp/hard/libc_nano.a(lib_a-putc.o)
                                                  /usr/lib/gcc/arm-none-eabi/11.2.0/../../../../arm-none-eabi/lib/thumb/v7+fp/hard/libc_nano.a(lib_a-impure.o)
                                                  /usr/lib/gcc/arm-none-eabi/11.2.0/../../../../arm-none-eabi/lib/thumb/v7+fp/hard/libc_nano.a(lib_a-fwrite.o)
                                                  /usr/lib/gcc/arm-none-eabi/11.2.0/../../../../arm-none-eabi/lib/thumb/v7+fp/hard/libc_nano.a(lib_a-fflush.o)
__sflush_r                                        /usr/lib/gcc/arm-none-eabi/11.2.0/../../../../arm-none-eabi/lib/thumb/v7+fp/hard/libc_nano.a(lib_a-fflush.o)
__sfmoreglue                                      /usr/lib/gcc/arm-none-eabi/11.2.0/../../../../arm-none-eabi/lib/thumb/v7+fp/hard/libc_nano.a(lib_a-findfp.o)
__sfp                                             /usr/lib/gcc/arm-none-eabi/11.2.0/../../../../arm-none-eabi/lib/thumb/v7+fp/hard/libc_nano.a(lib_a-findfp.o)
__sfp_lock_acquire                                /usr/lib/gcc/arm-none-eabi/11.2.0/../../../../arm-none-eabi/lib/thumb/v7+fp/hard/libc_nano.a(lib_a-findfp.o)
__sfp_lock_release                                /usr/lib/gcc/arm-none-eabi/11.2.0/../../../../arm-none-eabi/lib/thumb/v7+fp/hard/libc_nano.a(lib_a-findfp.o)
__sfputs_r                                        /usr/lib/gcc/arm-none-eabi/11.2.0/../../../../arm-none-eabi/lib/thumb/v7+fp/hard/libc_nano.a(lib_a-nano-vfprintf.o)
__sfvwrite_r                                      /usr/lib/gcc/arm-none-eabi/11.2.0/../../../../arm-none-eabi/lib/thumb/v7+fp/hard/libc_nano.a(lib_a-fvwrite.o)
                                                  /usr/lib/gcc/arm-none-eabi/11.2.0/../../../../arm-none-eabi/lib/thumb/v7+fp/hard/libc_nano.a(lib_a-nano-vfprintf.o)
__sigtramp                                        /usr/lib/gcc/arm-none-eabi/11.2.0/../../../../arm-none-eabi/lib/thumb/v7+fp/hard/libc_nano.a(lib_a-signal.o)
__sigtramp_r                                      /usr/lib/gcc/arm-none-eabi/11.2.0/../../../../arm-none-eabi/lib/thumb/v7+fp/hard/libc_nano.a(lib_a-signal.o)
__sinit                                           /usr/lib/gcc/arm-none-eabi/11.2.0/../../../../arm-none-eabi/lib/thumb/v7+fp/hard/libc_nano.a(lib_a-findfp.o)
                                                  /usr/lib/gcc/arm-none-eabi/11.2.0/../../../../arm-none-eabi/lib/thumb/v7+fp/hard/libc_nano.a(lib_a-ungetc.o)
                                                  /usr/lib/gcc/arm-none-eabi/11.2.0/../../../../arm-none-eabi/lib/thumb/v7+fp/hard/libc_nano.a(lib_a-nano-vfprintf.o)
                                                  /usr/lib/gcc/arm-none-eabi/11.2.0/../../../../arm-none-eabi/lib/thumb/v7+fp/hard/libc_nano.a(lib_a-wsetup.o)
                                                  /usr/lib/gcc/arm-none-eabi/11.2.0/../../../../arm-none-eabi/lib/thumb/v7+fp/hard/libc_nano.a(lib_a-wbuf.o)
                                                  /usr/lib/gcc/arm-none-eabi/11.2.0/../../../../arm-none-eabi/lib/thumb/v7+fp/hard/libc_nano.a(lib_a-vprintf.o)
                                                  /usr/lib/gcc/arm-none-eabi/11.2.0/../../../../arm-none-eabi/lib/thumb/v7+fp/hard/libc_nano.a(lib_a-puts.o)
                                                  /usr/lib/gcc/arm-none-eabi/11.2.0/../../../../arm-none-eabi/lib/thumb/v7+fp/hard/libc_nano.a(lib_a-putc.o)
                                                  /usr/lib/gcc/arm-none-eabi/11.2.0/../../../../arm-none-eabi/lib/thumb/v7+fp/hard/libc_nano.a(lib_a-putchar.o)
                                                  /usr/lib/gcc/arm-none-eabi/11.2.0/../../../../arm-none-eabi/lib/thumb/v7+fp/hard/libc_nano.a(lib_a-printf.o)
                                                  /usr/lib/gcc/arm-none-eabi/11.2.0/../../../../arm-none-eabi/lib/thumb/v7+fp/hard/libc_nano.a(lib_a-fwrite.o)
                                                  /usr/lib/gcc/arm-none-eabi/11.2.0/../../../../arm-none-eabi/lib/thumb/v7+fp/hard/libc_nano.a(lib_a-fflush.o)
__sinit_lock_acquire                              /usr/lib/gcc/arm-none-eabi/11.2.0/../../../../arm-none-eabi/lib/thumb/v7+fp/hard/libc_nano.a(lib_a-findfp.o)
__sinit_lock_release                              /usr/lib/gcc/arm-none-eabi/11.2.0/../../../../arm-none-eabi/lib/thumb/v7+fp/hard/libc_nano.a(lib_a-findfp.o)
__smakebuf_r                                      /usr/lib/gcc/arm-none-eabi/11.2.0/../../../../arm-none-eabi/lib/thumb/v7+fp/hard/libc_nano.a(lib_a-makebuf.o)
                                                  /usr/lib/gcc/arm-none-eabi/11.2.0/../../../../arm-none-eabi/lib/thumb/v7+fp/hard/libc_nano.a(lib_a-wsetup.o)
__sprint_r                                        /usr/lib/gcc/arm-none-eabi/11.2.0/../../../../arm-none-eabi/lib/thumb/v7+fp/hard/libc_nano.a(lib_a-nano-vfprintf.o)
__sread                                           /usr/lib/gcc/arm-none-eabi/11.2.0/../../../../arm-none-eabi/lib/thumb/v7+fp/hard/libc_nano.a(lib_a-stdio.o)
                                                  /usr/lib/gcc/arm-none-eabi/11.2.0/../../../../arm-none-eabi/lib/thumb/v7+fp/hard/libc_nano.a(lib_a-findfp.o)
__sseek                                           /usr/lib/gcc/arm-none-eabi/11.2.0/../../../../arm-none-eabi/lib/thumb/v7+fp/hard/libc_nano.a(lib_a-stdio.o)
                                                  /usr/lib/gcc/arm-none-eabi/11.2.0/../../../../arm-none-eabi/lib/thumb/v7+fp/hard/libc_nano.a(lib_a-findfp.o)
__ssprint_r                                       /usr/lib/gcc/arm-none-eabi/11.2.0/../../../../arm-none-eabi/lib/thumb/v7+fp/hard/libc_nano.a(lib_a-nano-svfprintf.o)
__ssputs_r                                        /usr/lib/gcc/arm-none-eabi/11.2.0/../../../../arm-none-eabi/lib/thumb/v7+fp/hard/libc_nano.a(lib_a-nano-svfprintf.o)
__ssrefill_r                                      /usr/lib/gcc/arm-none-eabi/11.2.0/../../../../arm-none-eabi/lib/thumb/v7+fp/hard/libc_nano.a(lib_a-nano-svfscanf.o)
__ssvfiscanf_r                                    /usr/lib/gcc/arm-none-eabi/11.2.0/../../../../arm-none-eabi/lib/thumb/v7+fp/hard/libc_nano.a(lib_a-nano-svfscanf.o)
__ssvfscanf_r                                     /usr/lib/gcc/arm-none-eabi/11.2.0/../../../../arm-none-eabi/lib/thumb/v7+fp/hard/libc_nano.a(lib_a-nano-svfscanf.o)
                                                  /usr/lib/gcc/arm-none-eabi/11.2.0/../../../../arm-none-eabi/lib/thumb/v7+fp/hard/libc_nano.a(lib_a-sscanf.o)
__submore                                         /usr/lib/gcc/arm-none-eabi/11.2.0/../../../../arm-none-eabi/lib/thumb/v7+fp/hard/libc_nano.a(lib_a-ungetc.o)
                                                  /usr/lib/gcc/arm-none-eabi/11.2.0/../../../../arm-none-eabi/lib/thumb/v7+fp/hard/libc_nano.a(lib_a-nano-svfscanf.o)
__swbuf                                           /usr/lib/gcc/arm-none-eabi/11.2.0/../../../../arm-none-eabi/lib/thumb/v7+fp/hard/libc_nano.a(lib_a-wbuf.o)
__swbuf_r                                         /usr/lib/gcc/arm-none-eabi/11.2.0/../../../../arm-none-eabi/lib/thumb/v7+fp/hard/libc_nano.a(lib_a-wbuf.o)
                                                  /usr/lib/gcc/arm-none-eabi/11.2.0/../../../../arm-none-eabi/lib/thumb/v7+fp/hard/libc_nano.a(lib_a-nano-vfprintf.o)
                                                  /usr/lib/gcc/arm-none-eabi/11.2.0/../../../../arm-none-eabi/lib/thumb/v7+fp/hard/libc_nano.a(lib_a-puts.o)
                                                  /usr/lib/gcc/arm-none-eabi/11.2.0/../../../../arm-none-eabi/lib/thumb/v7+fp/hard/libc_nano.a(lib_a-putc.o)
                                                  /usr/lib/gcc/arm-none-eabi/11.2.0/../../../../arm-none-eabi/lib/thumb/v7+fp/hard/libc_nano.a(lib_a-fwrite.o)
__swhatbuf_r                                      /usr/lib/gcc/arm-none-eabi/11.2.0/../../../../arm-none-eabi/lib/thumb/v7+fp/hard/libc_nano.a(lib_a-makebuf.o)
__swrite                                          /usr/lib/gcc/arm-none-eabi/11.2.0/../../../../arm-none-eabi/lib/thumb/v7+fp/hard/libc_nano.a(lib_a-stdio.o)
                                                  /usr/lib/gcc/arm-none-eabi/11.2.0/../../../../arm-none-eabi/lib/thumb/v7+fp/hard/libc_nano.a(lib_a-findfp.o)
__swsetup_r                                       /usr/lib/gcc/arm-none-eabi/11.2.0/../../../../arm-none-eabi/lib/thumb/v7+fp/hard/libc_nano.a(lib_a-wsetup.o)
                                                  /usr/lib/gcc/arm-none-eabi/11.2.0/../../../../arm-none-eabi/lib/thumb/v7+fp/hard/libc_nano.a(lib_a-fvwrite.o)
                                                  /usr/lib/gcc/arm-none-eabi/11.2.0/../../../../arm-none-eabi/lib/thumb/v7+fp/hard/libc_nano.a(lib_a-nano-vfprintf.o)
                                                  /usr/lib/gcc/arm-none-eabi/11.2.0/../../../../arm-none-eabi/lib/thumb/v7+fp/hard/libc_nano.a(lib_a-wbuf.o)
                                                  /usr/lib/gcc/arm-none-eabi/11.2.0/../../../../arm-none-eabi/lib/thumb/v7+fp/hard/libc_nano.a(lib_a-puts.o)
                                                  /usr/lib/gcc/arm-none-eabi/11.2.0/../../../../arm-none-eabi/lib/thumb/v7+fp/hard/libc_nano.a(lib_a-fwrite.o)
__udivmoddi4                                      /usr/lib/gcc/arm-none-eabi/11.2.0/thumb/v7+fp/hard/libgcc.a(_udivmoddi4.o)
                                                  /usr/lib/gcc/arm-none-eabi/11.2.0/thumb/v7+fp/hard/libgcc.a(_aeabi_uldivmod.o)
__udivsi3                                         /usr/lib/gcc/arm-none-eabi/11.2.0/thumb/v7+fp/hard/libgcc.a(_udivsi3.o)
__ulp                                             /usr/lib/gcc/arm-none-eabi/11.2.0/../../../../arm-none-eabi/lib/thumb/v7+fp/hard/libc_nano.a(lib_a-mprec.o)
_atoi_r                                           /usr/lib/gcc/arm-none-eabi/11.2.0/../../../../arm-none-eabi/lib/thumb/v7+fp/hard/libc_nano.a(lib_a-atoi.o)
_calloc_r                                         /usr/lib/gcc/arm-none-eabi/11.2.0/../../../../arm-none-eabi/lib/thumb/v7+fp/hard/libc_nano.a(lib_a-nano-callocr.o)
                                                  /usr/lib/gcc/arm-none-eabi/11.2.0/../../../../arm-none-eabi/lib/thumb/v7+fp/hard/libc_nano.a(lib_a-mprec.o)
                                                  /usr/lib/gcc/arm-none-eabi/11.2.0/../../../../arm-none-eabi/lib/thumb/v7+fp/hard/libc_nano.a(lib_a-calloc.o)
_clean_cache_area                                 CMakeFiles/tube-client.dir/cache.c.obj
                                                  CMakeFiles/tube-client.dir/rpi-mailbox.c.obj
_clean_invalidate_dcache                          CMakeFiles/tube-client.dir/armc-start.S.obj
_clean_invalidate_dcache_mva                      CMakeFiles/tube-client.dir/armc-start.S.obj
_cleanup                                          /usr/lib/gcc/arm-none-eabi/11.2.0/../../../../arm-none-eabi/lib/thumb/v7+fp/hard/libc_nano.a(lib_a-findfp.o)
_cleanup_r                                        /usr/lib/gcc/arm-none-eabi/11.2.0/../../../../arm-none-eabi/lib/thumb/v7+fp/hard/libc_nano.a(lib_a-findfp.o)
                                                  /usr/lib/gcc/arm-none-eabi/11.2.0/../../../../arm-none-eabi/lib/thumb/v7+fp/hard/libc_nano.a(lib_a-makebuf.o)
_close                                            CMakeFiles/tube-client.dir/armc-cstubs.c.obj
                                                  /usr/lib/gcc/arm-none-eabi/11.2.0/../../../../arm-none-eabi/lib/thumb/v7+fp/hard/libc_nano.a(lib_a-closer.o)
_close_r                                          /usr/lib/gcc/arm-none-eabi/11.2.0/../../../../arm-none-eabi/lib/thumb/v7+fp/hard/libc_nano.a(lib_a-closer.o)
                                                  /usr/lib/gcc/arm-none-eabi/11.2.0/../../../../arm-none-eabi/lib/thumb/v7+fp/hard/libc_nano.a(lib_a-stdio.o)
_cstartup                                         CMakeFiles/tube-client.dir/armc-cstartup.c.obj
                                                  CMakeFiles/tube-client.dir/armc-start.S.obj
_ctype_                                           /usr/lib/gcc/arm-none-eabi/11.2.0/../../../../arm-none-eabi/lib/thumb/v7+fp/hard/libc_nano.a(lib_a-ctype_.o)
                                                  /usr/lib/gcc/arm-none-eabi/11.2.0/../../../../arm-none-eabi/lib/thumb/v7+fp/hard/libc_nano.a(lib_a-strtoul.o)
                                                  /usr/lib/gcc/arm-none-eabi/11.2.0/../../../../arm-none-eabi/lib/thumb/v7+fp/hard/libc_nano.a(lib_a-nano-vfscanf_i.o)
                                                  /usr/lib/gcc/arm-none-eabi/11.2.0/../../../../arm-none-eabi/lib/thumb/v7+fp/hard/libc_nano.a(lib_a-nano-svfscanf.o)
                                                  /usr/lib/gcc/arm-none-eabi/11.2.0/../../../../arm-none-eabi/lib/thumb/v7+fp/hard/libc_nano.a(lib_a-locale.o)
                                                  /usr/lib/gcc/arm-none-eabi/11.2.0/../../../../arm-none-eabi/lib/thumb/v7+fp/hard/libc_nano.a(lib_a-strtol.o)
                                                  /usr/lib/gcc/arm-none-eabi/11.2.0/../../../../arm-none-eabi/lib/thumb/v7+fp/hard/libc_nano.a(lib_a-strncasecmp.o)
                                                  /usr/lib/gcc/arm-none-eabi/11.2.0/../../../../arm-none-eabi/lib/thumb/v7+fp/hard/libc_nano.a(lib_a-strcasecmp.o)
                                                  CMakeFiles/tube-client.dir/tube-commands.c.obj
                                                  CMakeFiles/tube-client.dir/darm/darm.c.obj
_data_memory_barrier                              CMakeFiles/tube-client.dir/armc-start.S.obj
                                                  CMakeFiles/tube-client.dir/rpi-armtimer.c.obj
                                                  CMakeFiles/tube-client.dir/tube-client.c.obj
                                                  CMakeFiles/tube-client.dir/rpi-aux.c.obj
                                                  CMakeFiles/tube-client.dir/framebuffer/framebuffer.c.obj
_disable_interrupts                               CMakeFiles/tube-client.dir/armc-start.S.obj
                                                  CMakeFiles/tube-client.dir/tube-swi.c.obj
                                                  CMakeFiles/tube-client.dir/tube-lib.c.obj
                                                  CMakeFiles/tube-client.dir/copro-armnative.c.obj
                                                  CMakeFiles/tube-client.dir/tube-ula.c.obj
                                                  CMakeFiles/tube-client.dir/tube-client.c.obj
_dtoa_r                                           /usr/lib/gcc/arm-none-eabi/11.2.0/../../../../arm-none-eabi/lib/thumb/v7+fp/hard/libc_nano.a(lib_a-dtoa.o)
                                                  /usr/lib/gcc/arm-none-eabi/11.2.0/../../../../arm-none-eabi/lib/thumb/v7+fp/hard/libc_nano.a(lib_a-nano-vfprintf_float.o)
_enable_interrupts                                CMakeFiles/tube-client.dir/armc-start.S.obj
                                                  CMakeFiles/tube-client.dir/tube-swi.c.obj
                                                  CMakeFiles/tube-client.dir/tube-lib.c.obj
                                                  CMakeFiles/tube-client.dir/copro-armnative.c.obj
                                                  CMakeFiles/tube-client.dir/tube-ula.c.obj
                                                  CMakeFiles/tube-client.dir/tube-client.c.obj
                                                  CMakeFiles/tube-client.dir/framebuffer/swi_impl.c.obj
_enable_l1_cache                                  CMakeFiles/tube-client.dir/armc-start.S.obj
_enable_unaligned_access                          CMakeFiles/tube-client.dir/armc-start.S.obj
                                                  CMakeFiles/tube-client.dir/tube-client.c.obj
_end                                              CMakeFiles/tube-client.dir/armc-cstubs.c.obj
_error_handler_wrapper                            CMakeFiles/tube-client.dir/copro-armnativeasm.S.obj
                                                  CMakeFiles/tube-client.dir/tube-swi.c.obj
_escape_handler_wrapper                           CMakeFiles/tube-client.dir/copro-armnativeasm.S.obj
                                                  CMakeFiles/tube-client.dir/tube-isr.c.obj
_exception_table                                  CMakeFiles/tube-client.dir/armc-start.S.obj
_exit                                             CMakeFiles/tube-client.dir/armc-cstubs.c.obj
                                                  /usr/lib/gcc/arm-none-eabi/11.2.0/../../../../arm-none-eabi/lib/thumb/v7+fp/hard/libc_nano.a(lib_a-abort.o)
_exit_handler_wrapper                             CMakeFiles/tube-client.dir/copro-armnativeasm.S.obj
                                                  CMakeFiles/tube-client.dir/tube-swi.c.obj
_fast_clear                                       CMakeFiles/tube-client.dir/armc-start.S.obj
                                                  CMakeFiles/tube-client.dir/framebuffer/screen_modes.c.obj
_fast_interrupt_vector_h                          CMakeFiles/tube-client.dir/armc-start.S.obj
                                                  CMakeFiles/tube-client.dir/jit.S.obj
                                                  CMakeFiles/tube-client.dir/tube-client.c.obj
_fast_scroll                                      CMakeFiles/tube-client.dir/armc-start.S.obj
                                                  CMakeFiles/tube-client.dir/framebuffer/screen_modes.c.obj
_fflush_r                                         /usr/lib/gcc/arm-none-eabi/11.2.0/../../../../arm-none-eabi/lib/thumb/v7+fp/hard/libc_nano.a(lib_a-fflush.o)
                                                  /usr/lib/gcc/arm-none-eabi/11.2.0/../../../../arm-none-eabi/lib/thumb/v7+fp/hard/libc_nano.a(lib_a-fvwrite.o)
                                                  /usr/lib/gcc/arm-none-eabi/11.2.0/../../../../arm-none-eabi/lib/thumb/v7+fp/hard/libc_nano.a(lib_a-ungetc.o)
                                                  /usr/lib/gcc/arm-none-eabi/11.2.0/../../../../arm-none-eabi/lib/thumb/v7+fp/hard/libc_nano.a(lib_a-wbuf.o)
                                                  /usr/lib/gcc/arm-none-eabi/11.2.0/../../../../arm-none-eabi/lib/thumb/v7+fp/hard/libc_nano.a(lib_a-findfp.o)
_fiprintf_r                                       /usr/lib/gcc/arm-none-eabi/11.2.0/../../../../arm-none-eabi/lib/thumb/v7+fp/hard/libc_nano.a(lib_a-fprintf.o)
_fprintf_r                                        /usr/lib/gcc/arm-none-eabi/11.2.0/../../../../arm-none-eabi/lib/thumb/v7+fp/hard/libc_nano.a(lib_a-fprintf.o)
_free_r                                           /usr/lib/gcc/arm-none-eabi/11.2.0/../../../../arm-none-eabi/lib/thumb/v7+fp/hard/libc_nano.a(lib_a-nano-freer.o)
                                                  /usr/lib/gcc/arm-none-eabi/11.2.0/../../../../arm-none-eabi/lib/thumb/v7+fp/hard/libc_nano.a(lib_a-nano-reallocr.o)
                                                  /usr/lib/gcc/arm-none-eabi/11.2.0/../../../../arm-none-eabi/lib/thumb/v7+fp/hard/libc_nano.a(lib_a-fvwrite.o)
                                                  /usr/lib/gcc/arm-none-eabi/11.2.0/../../../../arm-none-eabi/lib/thumb/v7+fp/hard/libc_nano.a(lib_a-nano-svfscanf.o)
                                                  /usr/lib/gcc/arm-none-eabi/11.2.0/../../../../arm-none-eabi/lib/thumb/v7+fp/hard/libc_nano.a(lib_a-nano-svfprintf.o)
                                                  /usr/lib/gcc/arm-none-eabi/11.2.0/../../../../arm-none-eabi/lib/thumb/v7+fp/hard/libc_nano.a(lib_a-wsetup.o)
                                                  /usr/lib/gcc/arm-none-eabi/11.2.0/../../../../arm-none-eabi/lib/thumb/v7+fp/hard/libc_nano.a(lib_a-reent.o)
                                                  /usr/lib/gcc/arm-none-eabi/11.2.0/../../../../arm-none-eabi/lib/thumb/v7+fp/hard/libc_nano.a(lib_a-malloc.o)
                                                  /usr/lib/gcc/arm-none-eabi/11.2.0/../../../../arm-none-eabi/lib/thumb/v7+fp/hard/libc_nano.a(lib_a-fflush.o)
_fstat                                            CMakeFiles/tube-client.dir/armc-cstubs.c.obj
                                                  /usr/lib/gcc/arm-none-eabi/11.2.0/../../../../arm-none-eabi/lib/thumb/v7+fp/hard/libc_nano.a(lib_a-fstatr.o)
_fstat_r                                          /usr/lib/gcc/arm-none-eabi/11.2.0/../../../../arm-none-eabi/lib/thumb/v7+fp/hard/libc_nano.a(lib_a-fstatr.o)
                                                  /usr/lib/gcc/arm-none-eabi/11.2.0/../../../../arm-none-eabi/lib/thumb/v7+fp/hard/libc_nano.a(lib_a-makebuf.o)
_fwalk                                            /usr/lib/gcc/arm-none-eabi/11.2.0/../../../../arm-none-eabi/lib/thumb/v7+fp/hard/libc_nano.a(lib_a-fwalk.o)
                                                  /usr/lib/gcc/arm-none-eabi/11.2.0/../../../../arm-none-eabi/lib/thumb/v7+fp/hard/libc_nano.a(lib_a-findfp.o)
_fwalk_reent                                      /usr/lib/gcc/arm-none-eabi/11.2.0/../../../../arm-none-eabi/lib/thumb/v7+fp/hard/libc_nano.a(lib_a-fwalk.o)
                                                  /usr/lib/gcc/arm-none-eabi/11.2.0/../../../../arm-none-eabi/lib/thumb/v7+fp/hard/libc_nano.a(lib_a-findfp.o)
                                                  /usr/lib/gcc/arm-none-eabi/11.2.0/../../../../arm-none-eabi/lib/thumb/v7+fp/hard/libc_nano.a(lib_a-fflush.o)
_fwrite_r                                         /usr/lib/gcc/arm-none-eabi/11.2.0/../../../../arm-none-eabi/lib/thumb/v7+fp/hard/libc_nano.a(lib_a-fwrite.o)
_get_core                                         CMakeFiles/tube-client.dir/armc-start.S.obj
                                                  CMakeFiles/tube-client.dir/tube-exception.c.obj
_get_cpsr                                         CMakeFiles/tube-client.dir/armc-start.S.obj
                                                  CMakeFiles/tube-client.dir/rpi-aux.c.obj
_get_stack_pointer                                CMakeFiles/tube-client.dir/armc-start.S.obj
_getpid                                           /usr/lib/gcc/arm-none-eabi/11.2.0/../../../../arm-none-eabi/lib/thumb/v7+fp/hard/libnosys.a(getpid.o)
                                                  /usr/lib/gcc/arm-none-eabi/11.2.0/../../../../arm-none-eabi/lib/thumb/v7+fp/hard/libc_nano.a(lib_a-signalr.o)
_getpid_r                                         /usr/lib/gcc/arm-none-eabi/11.2.0/../../../../arm-none-eabi/lib/thumb/v7+fp/hard/libc_nano.a(lib_a-signalr.o)
                                                  /usr/lib/gcc/arm-none-eabi/11.2.0/../../../../arm-none-eabi/lib/thumb/v7+fp/hard/libc_nano.a(lib_a-signal.o)
_global_impure_ptr                                /usr/lib/gcc/arm-none-eabi/11.2.0/../../../../arm-none-eabi/lib/thumb/v7+fp/hard/libc_nano.a(lib_a-impure.o)
                                                  /usr/lib/gcc/arm-none-eabi/11.2.0/../../../../arm-none-eabi/lib/thumb/v7+fp/hard/libc_nano.a(lib_a-findfp.o)
                                                  /usr/lib/gcc/arm-none-eabi/11.2.0/../../../../arm-none-eabi/lib/thumb/v7+fp/hard/libc_nano.a(lib_a-fflush.o)
_impure_ptr                                       /usr/lib/gcc/arm-none-eabi/11.2.0/../../../../arm-none-eabi/lib/thumb/v7+fp/hard/libc_nano.a(lib_a-impure.o)
                                                  /usr/lib/gcc/arm-none-eabi/11.2.0/../../../../arm-none-eabi/lib/thumb/v7+fp/hard/libc_nano.a(lib_a-signal.o)
                                                  /usr/lib/gcc/arm-none-eabi/11.2.0/../../../../arm-none-eabi/lib/thumb/v7+fp/hard/libc_nano.a(lib_a-ungetc.o)
                                                  /usr/lib/gcc/arm-none-eabi/11.2.0/../../../../arm-none-eabi/lib/thumb/v7+fp/hard/libc_nano.a(lib_a-strtoul.o)
                                                  /usr/lib/gcc/arm-none-eabi/11.2.0/../../../../arm-none-eabi/lib/thumb/v7+fp/hard/libc_nano.a(lib_a-nano-vfprintf.o)
                                                  /usr/lib/gcc/arm-none-eabi/11.2.0/../../../../arm-none-eabi/lib/thumb/v7+fp/hard/libc_nano.a(lib_a-locale.o)
                                                  /usr/lib/gcc/arm-none-eabi/11.2.0/../../../../arm-none-eabi/lib/thumb/v7+fp/hard/libc_nano.a(lib_a-fprintf.o)
                                                  /usr/lib/gcc/arm-none-eabi/11.2.0/../../../../arm-none-eabi/lib/thumb/v7+fp/hard/libc_nano.a(lib_a-assert.o)
                                                  /usr/lib/gcc/arm-none-eabi/11.2.0/../../../../arm-none-eabi/lib/thumb/v7+fp/hard/libc_nano.a(lib_a-wsetup.o)
                                                  /usr/lib/gcc/arm-none-eabi/11.2.0/../../../../arm-none-eabi/lib/thumb/v7+fp/hard/libc_nano.a(lib_a-wbuf.o)
                                                  /usr/lib/gcc/arm-none-eabi/11.2.0/../../../../arm-none-eabi/lib/thumb/v7+fp/hard/libc_nano.a(lib_a-vsnprintf.o)
                                                  /usr/lib/gcc/arm-none-eabi/11.2.0/../../../../arm-none-eabi/lib/thumb/v7+fp/hard/libc_nano.a(lib_a-vprintf.o)
                                                  /usr/lib/gcc/arm-none-eabi/11.2.0/../../../../arm-none-eabi/lib/thumb/v7+fp/hard/libc_nano.a(lib_a-strtol.o)
                                                  /usr/lib/gcc/arm-none-eabi/11.2.0/../../../../arm-none-eabi/lib/thumb/v7+fp/hard/libc_nano.a(lib_a-sscanf.o)
                                                  /usr/lib/gcc/arm-none-eabi/11.2.0/../../../../arm-none-eabi/lib/thumb/v7+fp/hard/libc_nano.a(lib_a-sprintf.o)
                                                  /usr/lib/gcc/arm-none-eabi/11.2.0/../../../../arm-none-eabi/lib/thumb/v7+fp/hard/libc_nano.a(lib_a-snprintf.o)
                                                  /usr/lib/gcc/arm-none-eabi/11.2.0/../../../../arm-none-eabi/lib/thumb/v7+fp/hard/libc_nano.a(lib_a-reent.o)
                                                  /usr/lib/gcc/arm-none-eabi/11.2.0/../../../../arm-none-eabi/lib/thumb/v7+fp/hard/libc_nano.a(lib_a-random.o)
                                                  /usr/lib/gcc/arm-none-eabi/11.2.0/../../../../arm-none-eabi/lib/thumb/v7+fp/hard/libc_nano.a(lib_a-puts.o)
                                                  /usr/lib/gcc/arm-none-eabi/11.2.0/../../../../arm-none-eabi/lib/thumb/v7+fp/hard/libc_nano.a(lib_a-putc.o)
                                                  /usr/lib/gcc/arm-none-eabi/11.2.0/../../../../arm-none-eabi/lib/thumb/v7+fp/hard/libc_nano.a(lib_a-putchar.o)
                                                  /usr/lib/gcc/arm-none-eabi/11.2.0/../../../../arm-none-eabi/lib/thumb/v7+fp/hard/libc_nano.a(lib_a-printf.o)
                                                  /usr/lib/gcc/arm-none-eabi/11.2.0/../../../../arm-none-eabi/lib/thumb/v7+fp/hard/libc_nano.a(lib_a-malloc.o)
                                                  /usr/lib/gcc/arm-none-eabi/11.2.0/../../../../arm-none-eabi/lib/thumb/v7+fp/hard/libc_nano.a(lib_a-fwrite.o)
                                                  /usr/lib/gcc/arm-none-eabi/11.2.0/../../../../arm-none-eabi/lib/thumb/v7+fp/hard/libc_nano.a(lib_a-findfp.o)
                                                  /usr/lib/gcc/arm-none-eabi/11.2.0/../../../../arm-none-eabi/lib/thumb/v7+fp/hard/libc_nano.a(lib_a-fflush.o)
                                                  /usr/lib/gcc/arm-none-eabi/11.2.0/../../../../arm-none-eabi/lib/thumb/v7+fp/hard/libc_nano.a(lib_a-errno.o)
                                                  /usr/lib/gcc/arm-none-eabi/11.2.0/../../../../arm-none-eabi/lib/thumb/v7+fp/hard/libc_nano.a(lib_a-calloc.o)
                                                  CMakeFiles/tube-client.dir/lib6502.c.obj
_init_core                                        CMakeFiles/tube-client.dir/armc-start.S.obj
_init_signal                                      /usr/lib/gcc/arm-none-eabi/11.2.0/../../../../arm-none-eabi/lib/thumb/v7+fp/hard/libc_nano.a(lib_a-signal.o)
_init_signal_r                                    /usr/lib/gcc/arm-none-eabi/11.2.0/../../../../arm-none-eabi/lib/thumb/v7+fp/hard/libc_nano.a(lib_a-signal.o)
_interrupt_vector_h                               CMakeFiles/tube-client.dir/armc-start.S.obj
                                                  CMakeFiles/tube-client.dir/rpi-aux.c.obj
_invalidate_dcache                                CMakeFiles/tube-client.dir/armc-start.S.obj
_invalidate_dcache_mva                            CMakeFiles/tube-client.dir/armc-start.S.obj
_invalidate_dtlb                                  CMakeFiles/tube-client.dir/armc-start.S.obj
_invalidate_dtlb_mva                              CMakeFiles/tube-client.dir/armc-start.S.obj
                                                  CMakeFiles/tube-client.dir/cache.c.obj
_invalidate_icache                                CMakeFiles/tube-client.dir/armc-start.S.obj
                                                  CMakeFiles/tube-client.dir/tube-swi.c.obj
_iprintf_r                                        /usr/lib/gcc/arm-none-eabi/11.2.0/../../../../arm-none-eabi/lib/thumb/v7+fp/hard/libc_nano.a(lib_a-printf.o)
_isatty                                           CMakeFiles/tube-client.dir/armc-cstubs.c.obj
                                                  /usr/lib/gcc/arm-none-eabi/11.2.0/../../../../arm-none-eabi/lib/thumb/v7+fp/hard/libc_nano.a(lib_a-isattyr.o)
_isatty_r                                         /usr/lib/gcc/arm-none-eabi/11.2.0/../../../../arm-none-eabi/lib/thumb/v7+fp/hard/libc_nano.a(lib_a-isattyr.o)
                                                  /usr/lib/gcc/arm-none-eabi/11.2.0/../../../../arm-none-eabi/lib/thumb/v7+fp/hard/libc_nano.a(lib_a-makebuf.o)
_kill                                             /usr/lib/gcc/arm-none-eabi/11.2.0/../../../../arm-none-eabi/lib/thumb/v7+fp/hard/libnosys.a(kill.o)
                                                  /usr/lib/gcc/arm-none-eabi/11.2.0/../../../../arm-none-eabi/lib/thumb/v7+fp/hard/libc_nano.a(lib_a-signalr.o)
_kill_r                                           /usr/lib/gcc/arm-none-eabi/11.2.0/../../../../arm-none-eabi/lib/thumb/v7+fp/hard/libc_nano.a(lib_a-signalr.o)
                                                  /usr/lib/gcc/arm-none-eabi/11.2.0/../../../../arm-none-eabi/lib/thumb/v7+fp/hard/libc_nano.a(lib_a-signal.o)
_localeconv_r                                     /usr/lib/gcc/arm-none-eabi/11.2.0/../../../../arm-none-eabi/lib/thumb/v7+fp/hard/libc_nano.a(lib_a-localeconv.o)
                                                  /usr/lib/gcc/arm-none-eabi/11.2.0/../../../../arm-none-eabi/lib/thumb/v7+fp/hard/libc_nano.a(lib_a-nano-vfprintf_float.o)
_lseek                                            CMakeFiles/tube-client.dir/armc-cstubs.c.obj
                                                  /usr/lib/gcc/arm-none-eabi/11.2.0/../../../../arm-none-eabi/lib/thumb/v7+fp/hard/libc_nano.a(lib_a-lseekr.o)
_lseek_r                                          /usr/lib/gcc/arm-none-eabi/11.2.0/../../../../arm-none-eabi/lib/thumb/v7+fp/hard/libc_nano.a(lib_a-lseekr.o)
                                                  /usr/lib/gcc/arm-none-eabi/11.2.0/../../../../arm-none-eabi/lib/thumb/v7+fp/hard/libc_nano.a(lib_a-stdio.o)
_main_irq_handler                                 CMakeFiles/tube-client.dir/armc-start.S.obj
                                                  CMakeFiles/tube-client.dir/rpi-aux.c.obj
_malloc_r                                         /usr/lib/gcc/arm-none-eabi/11.2.0/../../../../arm-none-eabi/lib/thumb/v7+fp/hard/libc_nano.a(lib_a-nano-mallocr.o)
                                                  /usr/lib/gcc/arm-none-eabi/11.2.0/../../../../arm-none-eabi/lib/thumb/v7+fp/hard/libc_nano.a(lib_a-signal.o)
                                                  /usr/lib/gcc/arm-none-eabi/11.2.0/../../../../arm-none-eabi/lib/thumb/v7+fp/hard/libc_nano.a(lib_a-nano-reallocr.o)
                                                  /usr/lib/gcc/arm-none-eabi/11.2.0/../../../../arm-none-eabi/lib/thumb/v7+fp/hard/libc_nano.a(lib_a-fvwrite.o)
                                                  /usr/lib/gcc/arm-none-eabi/11.2.0/../../../../arm-none-eabi/lib/thumb/v7+fp/hard/libc_nano.a(lib_a-ungetc.o)
                                                  /usr/lib/gcc/arm-none-eabi/11.2.0/../../../../arm-none-eabi/lib/thumb/v7+fp/hard/libc_nano.a(lib_a-nano-svfprintf.o)
                                                  /usr/lib/gcc/arm-none-eabi/11.2.0/../../../../arm-none-eabi/lib/thumb/v7+fp/hard/libc_nano.a(lib_a-makebuf.o)
                                                  /usr/lib/gcc/arm-none-eabi/11.2.0/../../../../arm-none-eabi/lib/thumb/v7+fp/hard/libc_nano.a(lib_a-nano-callocr.o)
                                                  /usr/lib/gcc/arm-none-eabi/11.2.0/../../../../arm-none-eabi/lib/thumb/v7+fp/hard/libc_nano.a(lib_a-malloc.o)
                                                  /usr/lib/gcc/arm-none-eabi/11.2.0/../../../../arm-none-eabi/lib/thumb/v7+fp/hard/libc_nano.a(lib_a-findfp.o)
_malloc_usable_size_r                             /usr/lib/gcc/arm-none-eabi/11.2.0/../../../../arm-none-eabi/lib/thumb/v7+fp/hard/libc_nano.a(lib_a-nano-msizer.o)
                                                  /usr/lib/gcc/arm-none-eabi/11.2.0/../../../../arm-none-eabi/lib/thumb/v7+fp/hard/libc_nano.a(lib_a-nano-reallocr.o)
_mbtowc_r                                         /usr/lib/gcc/arm-none-eabi/11.2.0/../../../../arm-none-eabi/lib/thumb/v7+fp/hard/libc_nano.a(lib_a-mbtowc_r.o)
_mprec_log10                                      /usr/lib/gcc/arm-none-eabi/11.2.0/../../../../arm-none-eabi/lib/thumb/v7+fp/hard/libc_nano.a(lib_a-mprec.o)
_printf_common                                    /usr/lib/gcc/arm-none-eabi/11.2.0/../../../../arm-none-eabi/lib/thumb/v7+fp/hard/libc_nano.a(lib_a-nano-vfprintf_i.o)
                                                  /usr/lib/gcc/arm-none-eabi/11.2.0/../../../../arm-none-eabi/lib/thumb/v7+fp/hard/libc_nano.a(lib_a-nano-vfprintf_float.o)
_printf_float                                     /usr/lib/gcc/arm-none-eabi/11.2.0/../../../../arm-none-eabi/lib/thumb/v7+fp/hard/libc_nano.a(lib_a-nano-vfprintf_float.o)
                                                  /usr/lib/gcc/arm-none-eabi/11.2.0/../../../../arm-none-eabi/lib/thumb/v7+fp/hard/libc_nano.a(lib_a-nano-vfprintf.o)
                                                  /usr/lib/gcc/arm-none-eabi/11.2.0/../../../../arm-none-eabi/lib/thumb/v7+fp/hard/libc_nano.a(lib_a-nano-svfprintf.o)
_printf_i                                         /usr/lib/gcc/arm-none-eabi/11.2.0/../../../../arm-none-eabi/lib/thumb/v7+fp/hard/libc_nano.a(lib_a-nano-vfprintf_i.o)
                                                  /usr/lib/gcc/arm-none-eabi/11.2.0/../../../../arm-none-eabi/lib/thumb/v7+fp/hard/libc_nano.a(lib_a-nano-vfprintf.o)
                                                  /usr/lib/gcc/arm-none-eabi/11.2.0/../../../../arm-none-eabi/lib/thumb/v7+fp/hard/libc_nano.a(lib_a-nano-svfprintf.o)
_printf_r                                         /usr/lib/gcc/arm-none-eabi/11.2.0/../../../../arm-none-eabi/lib/thumb/v7+fp/hard/libc_nano.a(lib_a-printf.o)
_putc_r                                           /usr/lib/gcc/arm-none-eabi/11.2.0/../../../../arm-none-eabi/lib/thumb/v7+fp/hard/libc_nano.a(lib_a-putc.o)
                                                  /usr/lib/gcc/arm-none-eabi/11.2.0/../../../../arm-none-eabi/lib/thumb/v7+fp/hard/libc_nano.a(lib_a-putchar.o)
_putchar_r                                        /usr/lib/gcc/arm-none-eabi/11.2.0/../../../../arm-none-eabi/lib/thumb/v7+fp/hard/libc_nano.a(lib_a-putchar.o)
_puts_r                                           /usr/lib/gcc/arm-none-eabi/11.2.0/../../../../arm-none-eabi/lib/thumb/v7+fp/hard/libc_nano.a(lib_a-puts.o)
_raise_r                                          /usr/lib/gcc/arm-none-eabi/11.2.0/../../../../arm-none-eabi/lib/thumb/v7+fp/hard/libc_nano.a(lib_a-signal.o)
_read                                             CMakeFiles/tube-client.dir/armc-cstubs.c.obj
                                                  /usr/lib/gcc/arm-none-eabi/11.2.0/../../../../arm-none-eabi/lib/thumb/v7+fp/hard/libc_nano.a(lib_a-readr.o)
_read_r                                           /usr/lib/gcc/arm-none-eabi/11.2.0/../../../../arm-none-eabi/lib/thumb/v7+fp/hard/libc_nano.a(lib_a-readr.o)
                                                  /usr/lib/gcc/arm-none-eabi/11.2.0/../../../../arm-none-eabi/lib/thumb/v7+fp/hard/libc_nano.a(lib_a-stdio.o)
_realloc_r                                        /usr/lib/gcc/arm-none-eabi/11.2.0/../../../../arm-none-eabi/lib/thumb/v7+fp/hard/libc_nano.a(lib_a-nano-reallocr.o)
                                                  /usr/lib/gcc/arm-none-eabi/11.2.0/../../../../arm-none-eabi/lib/thumb/v7+fp/hard/libc_nano.a(lib_a-fvwrite.o)
                                                  /usr/lib/gcc/arm-none-eabi/11.2.0/../../../../arm-none-eabi/lib/thumb/v7+fp/hard/libc_nano.a(lib_a-ungetc.o)
                                                  /usr/lib/gcc/arm-none-eabi/11.2.0/../../../../arm-none-eabi/lib/thumb/v7+fp/hard/libc_nano.a(lib_a-nano-svfprintf.o)
_reclaim_reent                                    /usr/lib/gcc/arm-none-eabi/11.2.0/../../../../arm-none-eabi/lib/thumb/v7+fp/hard/libc_nano.a(lib_a-reent.o)
_sbrk                                             CMakeFiles/tube-client.dir/armc-cstubs.c.obj
                                                  /usr/lib/gcc/arm-none-eabi/11.2.0/../../../../arm-none-eabi/lib/thumb/v7+fp/hard/libc_nano.a(lib_a-sbrkr.o)
_sbrk_r                                           /usr/lib/gcc/arm-none-eabi/11.2.0/../../../../arm-none-eabi/lib/thumb/v7+fp/hard/libc_nano.a(lib_a-sbrkr.o)
                                                  /usr/lib/gcc/arm-none-eabi/11.2.0/../../../../arm-none-eabi/lib/thumb/v7+fp/hard/libc_nano.a(lib_a-nano-mallocr.o)
_scanf_chars                                      /usr/lib/gcc/arm-none-eabi/11.2.0/../../../../arm-none-eabi/lib/thumb/v7+fp/hard/libc_nano.a(lib_a-nano-vfscanf_i.o)
                                                  /usr/lib/gcc/arm-none-eabi/11.2.0/../../../../arm-none-eabi/lib/thumb/v7+fp/hard/libc_nano.a(lib_a-nano-svfscanf.o)
_scanf_float                                      /usr/lib/gcc/arm-none-eabi/11.2.0/../../../../arm-none-eabi/lib/thumb/v7+fp/hard/libc_nano.a(lib_a-nano-svfscanf.o)
_scanf_i                                          /usr/lib/gcc/arm-none-eabi/11.2.0/../../../../arm-none-eabi/lib/thumb/v7+fp/hard/libc_nano.a(lib_a-nano-vfscanf_i.o)
                                                  /usr/lib/gcc/arm-none-eabi/11.2.0/../../../../arm-none-eabi/lib/thumb/v7+fp/hard/libc_nano.a(lib_a-nano-svfscanf.o)
_set_interrupts                                   CMakeFiles/tube-client.dir/armc-start.S.obj
                                                  CMakeFiles/tube-client.dir/tube-ula.c.obj
_setlocale_r                                      /usr/lib/gcc/arm-none-eabi/11.2.0/../../../../arm-none-eabi/lib/thumb/v7+fp/hard/libc_nano.a(lib_a-locale.o)
_signal_r                                         /usr/lib/gcc/arm-none-eabi/11.2.0/../../../../arm-none-eabi/lib/thumb/v7+fp/hard/libc_nano.a(lib_a-signal.o)
_siprintf_r                                       /usr/lib/gcc/arm-none-eabi/11.2.0/../../../../arm-none-eabi/lib/thumb/v7+fp/hard/libc_nano.a(lib_a-sprintf.o)
_siscanf_r                                        /usr/lib/gcc/arm-none-eabi/11.2.0/../../../../arm-none-eabi/lib/thumb/v7+fp/hard/libc_nano.a(lib_a-sscanf.o)
_sniprintf_r                                      /usr/lib/gcc/arm-none-eabi/11.2.0/../../../../arm-none-eabi/lib/thumb/v7+fp/hard/libc_nano.a(lib_a-snprintf.o)
_snprintf_r                                       /usr/lib/gcc/arm-none-eabi/11.2.0/../../../../arm-none-eabi/lib/thumb/v7+fp/hard/libc_nano.a(lib_a-snprintf.o)
_software_interrupt_vector_h                      CMakeFiles/tube-client.dir/armc-start.S.obj
                                                  CMakeFiles/tube-client.dir/tube-client.c.obj
_spin_core                                        CMakeFiles/tube-client.dir/armc-start.S.obj
                                                  CMakeFiles/tube-client.dir/tube-client.c.obj
_sprintf_r                                        /usr/lib/gcc/arm-none-eabi/11.2.0/../../../../arm-none-eabi/lib/thumb/v7+fp/hard/libc_nano.a(lib_a-sprintf.o)
_sscanf_r                                         /usr/lib/gcc/arm-none-eabi/11.2.0/../../../../arm-none-eabi/lib/thumb/v7+fp/hard/libc_nano.a(lib_a-sscanf.o)
_start                                            CMakeFiles/tube-client.dir/armc-start.S.obj
_strtol_r                                         /usr/lib/gcc/arm-none-eabi/11.2.0/../../../../arm-none-eabi/lib/thumb/v7+fp/hard/libc_nano.a(lib_a-strtol.o)
                                                  /usr/lib/gcc/arm-none-eabi/11.2.0/../../../../arm-none-eabi/lib/thumb/v7+fp/hard/libc_nano.a(lib_a-nano-vfscanf_i.o)
                                                  /usr/lib/gcc/arm-none-eabi/11.2.0/../../../../arm-none-eabi/lib/thumb/v7+fp/hard/libc_nano.a(lib_a-atoi.o)
_strtoul_r                                        /usr/lib/gcc/arm-none-eabi/11.2.0/../../../../arm-none-eabi/lib/thumb/v7+fp/hard/libc_nano.a(lib_a-strtoul.o)
                                                  /usr/lib/gcc/arm-none-eabi/11.2.0/../../../../arm-none-eabi/lib/thumb/v7+fp/hard/libc_nano.a(lib_a-nano-vfscanf_i.o)
_sungetc_r                                        /usr/lib/gcc/arm-none-eabi/11.2.0/../../../../arm-none-eabi/lib/thumb/v7+fp/hard/libc_nano.a(lib_a-nano-svfscanf.o)
_svfiprintf_r                                     /usr/lib/gcc/arm-none-eabi/11.2.0/../../../../arm-none-eabi/lib/thumb/v7+fp/hard/libc_nano.a(lib_a-nano-svfprintf.o)
_svfprintf_r                                      /usr/lib/gcc/arm-none-eabi/11.2.0/../../../../arm-none-eabi/lib/thumb/v7+fp/hard/libc_nano.a(lib_a-nano-svfprintf.o)
                                                  /usr/lib/gcc/arm-none-eabi/11.2.0/../../../../arm-none-eabi/lib/thumb/v7+fp/hard/libc_nano.a(lib_a-vsnprintf.o)
                                                  /usr/lib/gcc/arm-none-eabi/11.2.0/../../../../arm-none-eabi/lib/thumb/v7+fp/hard/libc_nano.a(lib_a-sprintf.o)
                                                  /usr/lib/gcc/arm-none-eabi/11.2.0/../../../../arm-none-eabi/lib/thumb/v7+fp/hard/libc_nano.a(lib_a-snprintf.o)
_ungetc_r                                         /usr/lib/gcc/arm-none-eabi/11.2.0/../../../../arm-none-eabi/lib/thumb/v7+fp/hard/libc_nano.a(lib_a-ungetc.o)
_user_exec                                        CMakeFiles/tube-client.dir/copro-armnativeasm.S.obj
                                                  CMakeFiles/tube-client.dir/tube-swi.c.obj
_vfiprintf_r                                      /usr/lib/gcc/arm-none-eabi/11.2.0/../../../../arm-none-eabi/lib/thumb/v7+fp/hard/libc_nano.a(lib_a-nano-vfprintf.o)
_vfprintf_r                                       /usr/lib/gcc/arm-none-eabi/11.2.0/../../../../arm-none-eabi/lib/thumb/v7+fp/hard/libc_nano.a(lib_a-nano-vfprintf.o)
                                                  /usr/lib/gcc/arm-none-eabi/11.2.0/../../../../arm-none-eabi/lib/thumb/v7+fp/hard/libc_nano.a(lib_a-fprintf.o)
                                                  /usr/lib/gcc/arm-none-eabi/11.2.0/../../../../arm-none-eabi/lib/thumb/v7+fp/hard/libc_nano.a(lib_a-vprintf.o)
                                                  /usr/lib/gcc/arm-none-eabi/11.2.0/../../../../arm-none-eabi/lib/thumb/v7+fp/hard/libc_nano.a(lib_a-printf.o)
_viprintf_r                                       /usr/lib/gcc/arm-none-eabi/11.2.0/../../../../arm-none-eabi/lib/thumb/v7+fp/hard/libc_nano.a(lib_a-vprintf.o)
_vprintf_r                                        /usr/lib/gcc/arm-none-eabi/11.2.0/../../../../arm-none-eabi/lib/thumb/v7+fp/hard/libc_nano.a(lib_a-vprintf.o)
_vsniprintf_r                                     /usr/lib/gcc/arm-none-eabi/11.2.0/../../../../arm-none-eabi/lib/thumb/v7+fp/hard/libc_nano.a(lib_a-vsnprintf.o)
_vsnprintf_r                                      /usr/lib/gcc/arm-none-eabi/11.2.0/../../../../arm-none-eabi/lib/thumb/v7+fp/hard/libc_nano.a(lib_a-vsnprintf.o)
_wctomb_r                                         /usr/lib/gcc/arm-none-eabi/11.2.0/../../../../arm-none-eabi/lib/thumb/v7+fp/hard/libc_nano.a(lib_a-wctomb_r.o)
_write                                            CMakeFiles/tube-client.dir/armc-cstubs.c.obj
                                                  /usr/lib/gcc/arm-none-eabi/11.2.0/../../../../arm-none-eabi/lib/thumb/v7+fp/hard/libc_nano.a(lib_a-writer.o)
_write_r                                          /usr/lib/gcc/arm-none-eabi/11.2.0/../../../../arm-none-eabi/lib/thumb/v7+fp/hard/libc_nano.a(lib_a-writer.o)
                                                  /usr/lib/gcc/arm-none-eabi/11.2.0/../../../../arm-none-eabi/lib/thumb/v7+fp/hard/libc_nano.a(lib_a-stdio.o)
abort                                             /usr/lib/gcc/arm-none-eabi/11.2.0/../../../../arm-none-eabi/lib/thumb/v7+fp/hard/libc_nano.a(lib_a-abort.o)
                                                  /usr/lib/gcc/arm-none-eabi/11.2.0/../../../../arm-none-eabi/lib/thumb/v7+fp/hard/libc_nano.a(lib_a-assert.o)
arm2_device_reset                                 CMakeFiles/tube-client.dir/mame/arm.c.obj
                                                  CMakeFiles/tube-client.dir/copro-arm2.c.obj
arm2_execute_run                                  CMakeFiles/tube-client.dir/mame/arm.c.obj
                                                  CMakeFiles/tube-client.dir/copro-arm2.c.obj
arm2_execute_set_input                            CMakeFiles/tube-client.dir/mame/arm.c.obj
                                                  CMakeFiles/tube-client.dir/copro-arm2.c.obj
arm2_getR15                                       CMakeFiles/tube-client.dir/mame/arm.c.obj
                                                  CMakeFiles/tube-client.dir/copro-arm2.c.obj
arm_fiq_handler                                   CMakeFiles/tube-client.dir/tube.S.obj
                                                  CMakeFiles/tube-client.dir/armc-start.S.obj
arm_fiq_handler_flag1                             CMakeFiles/tube-client.dir/tube.S.obj
                                                  CMakeFiles/tube-client.dir/tube-client.c.obj
arm_irq_handler                                   CMakeFiles/tube-client.dir/tube.S.obj
                                                  CMakeFiles/tube-client.dir/armc-start.S.obj
arm_speed                                         CMakeFiles/tube-client.dir/tube-client.c.obj
                                                  CMakeFiles/tube-client.dir/tube-ula.c.obj
armbasic                                          CMakeFiles/tube-client.dir/armbasic.c.obj
                                                  CMakeFiles/tube-client.dir/tube-commands.c.obj
                                                  CMakeFiles/tube-client.dir/copro-armnative.c.obj
armv7_format_strings                              CMakeFiles/tube-client.dir/darm/armv7-tbl.c.obj
                                                  CMakeFiles/tube-client.dir/darm/darm.c.obj
armv7_instr_labels                                CMakeFiles/tube-client.dir/darm/armv7-tbl.c.obj
                                                  CMakeFiles/tube-client.dir/darm/armv7.c.obj
armv7_instr_types                                 CMakeFiles/tube-client.dir/darm/armv7-tbl.c.obj
                                                  CMakeFiles/tube-client.dir/darm/armv7.c.obj
atoi                                              /usr/lib/gcc/arm-none-eabi/11.2.0/../../../../arm-none-eabi/lib/thumb/v7+fp/hard/libc_nano.a(lib_a-atoi.o)
                                                  CMakeFiles/tube-client.dir/tube-commands.c.obj
                                                  CMakeFiles/tube-client.dir/utils.c.obj
                                                  CMakeFiles/tube-client.dir/tube-ula.c.obj
                                                  CMakeFiles/tube-client.dir/tube-client.c.obj
calloc                                            /usr/lib/gcc/arm-none-eabi/11.2.0/../../../../arm-none-eabi/lib/thumb/v7+fp/hard/libc_nano.a(lib_a-calloc.o)
                                                  CMakeFiles/tube-client.dir/tube-commands.c.obj
                                                  CMakeFiles/tube-client.dir/lib6502.c.obj
                                                  CMakeFiles/tube-client.dir/framebuffer/fonts.c.obj
carry                                             CMakeFiles/tube-client.dir/copro-65tubeasm.S.obj
check_elk_mode_and_patch                          CMakeFiles/tube-client.dir/utils.c.obj
                                                  CMakeFiles/tube-client.dir/copro-z80.c.obj
                                                  CMakeFiles/tube-client.dir/copro-80186.c.obj
cleanup_glue                                      /usr/lib/gcc/arm-none-eabi/11.2.0/../../../../arm-none-eabi/lib/thumb/v7+fp/hard/libc_nano.a(lib_a-reent.o)
copro                                             CMakeFiles/tube-client.dir/tube-client.c.obj
                                                  CMakeFiles/tube-client.dir/copro-armnative.c.obj
                                                  CMakeFiles/tube-client.dir/copro-null.c.obj
                                                  CMakeFiles/tube-client.dir/copro-pdp11.c.obj
                                                  CMakeFiles/tube-client.dir/copro-65816.c.obj
                                                  CMakeFiles/tube-client.dir/copro-f100.c.obj
                                                  CMakeFiles/tube-client.dir/copro-opc7.c.obj
                                                  CMakeFiles/tube-client.dir/copro-opc6.c.obj
                                                  CMakeFiles/tube-client.dir/copro-opc5ls.c.obj
                                                  CMakeFiles/tube-client.dir/copro-mc6809nc.c.obj
                                                  CMakeFiles/tube-client.dir/copro-z80.c.obj
                                                  CMakeFiles/tube-client.dir/copro-32016.c.obj
                                                  CMakeFiles/tube-client.dir/copro-arm2.c.obj
                                                  CMakeFiles/tube-client.dir/copro-80186.c.obj
                                                  CMakeFiles/tube-client.dir/copro-lib6502.c.obj
                                                  CMakeFiles/tube-client.dir/copro-65tubejit.c.obj
                                                  CMakeFiles/tube-client.dir/copro-65tube.c.obj
                                                  CMakeFiles/tube-client.dir/tube-ula.c.obj
copro_32016_emulator                              CMakeFiles/tube-client.dir/copro-32016.c.obj
                                                  CMakeFiles/tube-client.dir/copro-defs.c.obj
copro_65816_emulator                              CMakeFiles/tube-client.dir/copro-65816.c.obj
                                                  CMakeFiles/tube-client.dir/copro-defs.c.obj
copro_65tube_emulator                             CMakeFiles/tube-client.dir/copro-65tube.c.obj
                                                  CMakeFiles/tube-client.dir/copro-defs.c.obj
copro_65tubejit_emulator                          CMakeFiles/tube-client.dir/copro-65tubejit.c.obj
                                                  CMakeFiles/tube-client.dir/copro-defs.c.obj
copro_80186_emulator                              CMakeFiles/tube-client.dir/copro-80186.c.obj
                                                  CMakeFiles/tube-client.dir/copro-defs.c.obj
copro_80186_tube_read                             CMakeFiles/tube-client.dir/copro-80186.c.obj
                                                  CMakeFiles/tube-client.dir/cpu80186/iop80186.c.obj
copro_80186_tube_write                            CMakeFiles/tube-client.dir/copro-80186.c.obj
                                                  CMakeFiles/tube-client.dir/cpu80186/iop80186.c.obj
copro_arm2_emulator                               CMakeFiles/tube-client.dir/copro-arm2.c.obj
                                                  CMakeFiles/tube-client.dir/copro-defs.c.obj
copro_arm2_read32                                 CMakeFiles/tube-client.dir/copro-arm2.c.obj
                                                  CMakeFiles/tube-client.dir/mame/arm.c.obj
copro_arm2_read8                                  CMakeFiles/tube-client.dir/copro-arm2.c.obj
                                                  CMakeFiles/tube-client.dir/mame/arm.c.obj
copro_arm2_write32                                CMakeFiles/tube-client.dir/copro-arm2.c.obj
                                                  CMakeFiles/tube-client.dir/mame/arm.c.obj
copro_arm2_write8                                 CMakeFiles/tube-client.dir/copro-arm2.c.obj
                                                  CMakeFiles/tube-client.dir/mame/arm.c.obj
copro_armnative_disable_mailbox                   CMakeFiles/tube-client.dir/copro-armnativeasm.S.obj
                                                  CMakeFiles/tube-client.dir/copro-armnative.c.obj
copro_armnative_emulator                          CMakeFiles/tube-client.dir/copro-armnative.c.obj
                                                  CMakeFiles/tube-client.dir/copro-defs.c.obj
copro_armnative_enable_mailbox                    CMakeFiles/tube-client.dir/copro-armnativeasm.S.obj
                                                  CMakeFiles/tube-client.dir/copro-armnative.c.obj
copro_armnative_fiq_handler                       CMakeFiles/tube-client.dir/copro-armnativeasm.S.obj
                                                  CMakeFiles/tube-client.dir/tube-client.c.obj
copro_armnative_reset                             CMakeFiles/tube-client.dir/copro-armnative.c.obj
                                                  CMakeFiles/tube-client.dir/tube-isr.c.obj
copro_armnative_swi_handler                       CMakeFiles/tube-client.dir/copro-armnativeasm.S.obj
                                                  CMakeFiles/tube-client.dir/tube-client.c.obj
copro_armnative_tube_interrupt_handler            CMakeFiles/tube-client.dir/tube-isr.c.obj
                                                  CMakeFiles/tube-client.dir/copro-armnativeasm.S.obj
copro_defs                                        CMakeFiles/tube-client.dir/copro-defs.c.obj
                                                  CMakeFiles/tube-client.dir/tube-commands.c.obj
                                                  CMakeFiles/tube-client.dir/tube-client.c.obj
                                                  CMakeFiles/tube-client.dir/programs.c.obj
copro_f100_emulator                               CMakeFiles/tube-client.dir/copro-f100.c.obj
                                                  CMakeFiles/tube-client.dir/copro-defs.c.obj
copro_f100_read_mem                               CMakeFiles/tube-client.dir/copro-f100.c.obj
                                                  CMakeFiles/tube-client.dir/f100/f100.c.obj
copro_f100_write_mem                              CMakeFiles/tube-client.dir/copro-f100.c.obj
                                                  CMakeFiles/tube-client.dir/f100/f100.c.obj
copro_lib6502_emulator                            CMakeFiles/tube-client.dir/copro-lib6502.c.obj
                                                  CMakeFiles/tube-client.dir/copro-defs.c.obj
copro_lib6502_mpu                                 CMakeFiles/tube-client.dir/copro-lib6502.c.obj
copro_mc6809nc_emulator                           CMakeFiles/tube-client.dir/copro-mc6809nc.c.obj
                                                  CMakeFiles/tube-client.dir/copro-defs.c.obj
copro_mc6809nc_read                               CMakeFiles/tube-client.dir/copro-mc6809nc.c.obj
                                                  CMakeFiles/tube-client.dir/mc6809nc/mc6809.c.obj
copro_mc6809nc_write                              CMakeFiles/tube-client.dir/copro-mc6809nc.c.obj
                                                  CMakeFiles/tube-client.dir/mc6809nc/mc6809.c.obj
copro_mem_reset                                   CMakeFiles/tube-client.dir/tube-client.c.obj
                                                  CMakeFiles/tube-client.dir/copro-pdp11.c.obj
                                                  CMakeFiles/tube-client.dir/65816/65816.c.obj
                                                  CMakeFiles/tube-client.dir/copro-f100.c.obj
                                                  CMakeFiles/tube-client.dir/copro-opc7.c.obj
                                                  CMakeFiles/tube-client.dir/copro-opc6.c.obj
                                                  CMakeFiles/tube-client.dir/copro-opc5ls.c.obj
                                                  CMakeFiles/tube-client.dir/copro-mc6809nc.c.obj
                                                  CMakeFiles/tube-client.dir/copro-z80.c.obj
                                                  CMakeFiles/tube-client.dir/NS32016/mem32016.c.obj
                                                  CMakeFiles/tube-client.dir/copro-arm2.c.obj
                                                  CMakeFiles/tube-client.dir/cpu80186/mem80186.c.obj
                                                  CMakeFiles/tube-client.dir/copro-65tubejit.c.obj
                                                  CMakeFiles/tube-client.dir/copro-65tube.c.obj
copro_memcpy                                      CMakeFiles/tube-client.dir/tube-client.c.obj
                                                  CMakeFiles/tube-client.dir/armbasic.c.obj
                                                  CMakeFiles/tube-client.dir/copro-pdp11.c.obj
                                                  CMakeFiles/tube-client.dir/copro-f100.c.obj
                                                  CMakeFiles/tube-client.dir/copro-opc7.c.obj
                                                  CMakeFiles/tube-client.dir/copro-opc6.c.obj
                                                  CMakeFiles/tube-client.dir/copro-opc5ls.c.obj
                                                  CMakeFiles/tube-client.dir/copro-lib6502.c.obj
                                                  CMakeFiles/tube-client.dir/copro-65tubejit.c.obj
                                                  CMakeFiles/tube-client.dir/copro-65tube.c.obj
copro_memory_size                                 CMakeFiles/tube-client.dir/tube-client.c.obj
                                                  CMakeFiles/tube-client.dir/NS32016/mem32016.c.obj
                                                  CMakeFiles/tube-client.dir/cpu80186/mem80186.c.obj
                                                  CMakeFiles/tube-client.dir/tube-ula.c.obj
copro_null_emulator                               CMakeFiles/tube-client.dir/copro-null.c.obj
                                                  CMakeFiles/tube-client.dir/copro-defs.c.obj
copro_opc5ls_emulator                             CMakeFiles/tube-client.dir/copro-opc5ls.c.obj
                                                  CMakeFiles/tube-client.dir/copro-defs.c.obj
copro_opc5ls_read                                 CMakeFiles/tube-client.dir/copro-opc5ls.c.obj
                                                  CMakeFiles/tube-client.dir/opc5ls/opc5ls.c.obj
copro_opc5ls_write                                CMakeFiles/tube-client.dir/copro-opc5ls.c.obj
                                                  CMakeFiles/tube-client.dir/opc5ls/opc5ls.c.obj
copro_opc6_emulator                               CMakeFiles/tube-client.dir/copro-opc6.c.obj
                                                  CMakeFiles/tube-client.dir/copro-defs.c.obj
copro_opc6_read_io                                CMakeFiles/tube-client.dir/copro-opc6.c.obj
                                                  CMakeFiles/tube-client.dir/opc6/opc6.c.obj
copro_opc6_read_mem                               CMakeFiles/tube-client.dir/copro-opc6.c.obj
                                                  CMakeFiles/tube-client.dir/opc6/opc6.c.obj
copro_opc6_write_io                               CMakeFiles/tube-client.dir/copro-opc6.c.obj
                                                  CMakeFiles/tube-client.dir/opc6/opc6.c.obj
copro_opc6_write_mem                              CMakeFiles/tube-client.dir/copro-opc6.c.obj
                                                  CMakeFiles/tube-client.dir/opc6/opc6.c.obj
copro_opc7_emulator                               CMakeFiles/tube-client.dir/copro-opc7.c.obj
                                                  CMakeFiles/tube-client.dir/copro-defs.c.obj
copro_opc7_read_io                                CMakeFiles/tube-client.dir/copro-opc7.c.obj
                                                  CMakeFiles/tube-client.dir/opc7/opc7.c.obj
copro_opc7_read_mem                               CMakeFiles/tube-client.dir/copro-opc7.c.obj
                                                  CMakeFiles/tube-client.dir/opc7/opc7.c.obj
copro_opc7_write_io                               CMakeFiles/tube-client.dir/copro-opc7.c.obj
                                                  CMakeFiles/tube-client.dir/opc7/opc7.c.obj
copro_opc7_write_mem                              CMakeFiles/tube-client.dir/copro-opc7.c.obj
                                                  CMakeFiles/tube-client.dir/opc7/opc7.c.obj
copro_pdp11_emulator                              CMakeFiles/tube-client.dir/copro-pdp11.c.obj
                                                  CMakeFiles/tube-client.dir/copro-defs.c.obj
copro_pdp11_read16                                CMakeFiles/tube-client.dir/copro-pdp11.c.obj
                                                  CMakeFiles/tube-client.dir/pdp11/pdp11.c.obj
copro_pdp11_read8                                 CMakeFiles/tube-client.dir/copro-pdp11.c.obj
                                                  CMakeFiles/tube-client.dir/pdp11/pdp11.c.obj
copro_pdp11_write16                               CMakeFiles/tube-client.dir/copro-pdp11.c.obj
                                                  CMakeFiles/tube-client.dir/pdp11/pdp11.c.obj
copro_pdp11_write8                                CMakeFiles/tube-client.dir/copro-pdp11.c.obj
                                                  CMakeFiles/tube-client.dir/pdp11/pdp11.c.obj
copro_speed                                       CMakeFiles/tube-client.dir/tube-client.c.obj
                                                  CMakeFiles/tube-client.dir/copro-65tubeasm.S.obj
                                                  CMakeFiles/tube-client.dir/tube-ula.c.obj
copro_z80_emulator                                CMakeFiles/tube-client.dir/copro-z80.c.obj
                                                  CMakeFiles/tube-client.dir/copro-defs.c.obj
copro_z80_read_io                                 CMakeFiles/tube-client.dir/copro-z80.c.obj
                                                  CMakeFiles/tube-client.dir/yaze/simz80.c.obj
copro_z80_read_mem                                CMakeFiles/tube-client.dir/copro-z80.c.obj
                                                  CMakeFiles/tube-client.dir/yaze/simz80.c.obj
copro_z80_write_io                                CMakeFiles/tube-client.dir/copro-z80.c.obj
                                                  CMakeFiles/tube-client.dir/yaze/simz80.c.obj
copro_z80_write_mem                               CMakeFiles/tube-client.dir/copro-z80.c.obj
                                                  CMakeFiles/tube-client.dir/yaze/simz80.c.obj
copy_armbasic                                     CMakeFiles/tube-client.dir/armbasic.c.obj
                                                  CMakeFiles/tube-client.dir/copro-armnative.c.obj
copy_test_programs                                CMakeFiles/tube-client.dir/programs.c.obj
                                                  CMakeFiles/tube-client.dir/copro-lib6502.c.obj
                                                  CMakeFiles/tube-client.dir/copro-65tubejit.c.obj
                                                  CMakeFiles/tube-client.dir/copro-65tube.c.obj
darm_armv7_disasm                                 CMakeFiles/tube-client.dir/darm/armv7.c.obj
                                                  CMakeFiles/tube-client.dir/tube-commands.c.obj
                                                  CMakeFiles/tube-client.dir/darm/darm.c.obj
                                                  CMakeFiles/tube-client.dir/copro-65tubejit.c.obj
darm_condition_name                               CMakeFiles/tube-client.dir/darm/armv7.c.obj
                                                  CMakeFiles/tube-client.dir/darm/darm.c.obj
darm_disasm                                       CMakeFiles/tube-client.dir/darm/darm.c.obj
darm_enctypes                                     CMakeFiles/tube-client.dir/darm/darm-tbl.c.obj
darm_immshift_decode                              CMakeFiles/tube-client.dir/darm/armv7.c.obj
                                                  CMakeFiles/tube-client.dir/darm/darm.c.obj
darm_init                                         CMakeFiles/tube-client.dir/darm/darm.c.obj
                                                  CMakeFiles/tube-client.dir/darm/thumb2.c.obj
                                                  CMakeFiles/tube-client.dir/darm/thumb.c.obj
                                                  CMakeFiles/tube-client.dir/darm/armv7.c.obj
darm_mnemonic_name                                CMakeFiles/tube-client.dir/darm/armv7.c.obj
                                                  CMakeFiles/tube-client.dir/darm/darm.c.obj
darm_mnemonics                                    CMakeFiles/tube-client.dir/darm/darm-tbl.c.obj
                                                  CMakeFiles/tube-client.dir/darm/armv7.c.obj
darm_register_name                                CMakeFiles/tube-client.dir/darm/armv7.c.obj
                                                  CMakeFiles/tube-client.dir/darm/darm.c.obj
darm_registers                                    CMakeFiles/tube-client.dir/darm/darm-tbl.c.obj
                                                  CMakeFiles/tube-client.dir/darm/darm.c.obj
                                                  CMakeFiles/tube-client.dir/darm/armv7.c.obj
darm_shift_type_name                              CMakeFiles/tube-client.dir/darm/armv7.c.obj
                                                  CMakeFiles/tube-client.dir/darm/darm.c.obj
darm_str2                                         CMakeFiles/tube-client.dir/darm/darm.c.obj
                                                  CMakeFiles/tube-client.dir/tube-commands.c.obj
                                                  CMakeFiles/tube-client.dir/copro-65tubejit.c.obj
darm_thumb2_disasm                                CMakeFiles/tube-client.dir/darm/thumb2.c.obj
                                                  CMakeFiles/tube-client.dir/darm/darm.c.obj
darm_thumb_disasm                                 CMakeFiles/tube-client.dir/darm/thumb.c.obj
                                                  CMakeFiles/tube-client.dir/darm/darm.c.obj
data_abort_handler                                CMakeFiles/tube-client.dir/tube-exception.c.obj
                                                  CMakeFiles/tube-client.dir/armc-start.S.obj
default_clear_screen                              CMakeFiles/tube-client.dir/framebuffer/screen_modes.c.obj
                                                  CMakeFiles/tube-client.dir/framebuffer/teletext.c.obj
default_copro                                     CMakeFiles/tube-client.dir/copro-defs.c.obj
                                                  CMakeFiles/tube-client.dir/tube-client.c.obj
default_flash                                     CMakeFiles/tube-client.dir/framebuffer/screen_modes.c.obj
default_get_colour_16bpp                          CMakeFiles/tube-client.dir/framebuffer/screen_modes.c.obj
default_get_colour_32bpp                          CMakeFiles/tube-client.dir/framebuffer/screen_modes.c.obj
default_get_colour_8bpp                           CMakeFiles/tube-client.dir/framebuffer/screen_modes.c.obj
default_get_pixel_16bpp                           CMakeFiles/tube-client.dir/framebuffer/screen_modes.c.obj
default_get_pixel_32bpp                           CMakeFiles/tube-client.dir/framebuffer/screen_modes.c.obj
default_get_pixel_8bpp                            CMakeFiles/tube-client.dir/framebuffer/screen_modes.c.obj
default_init_screen                               CMakeFiles/tube-client.dir/framebuffer/screen_modes.c.obj
default_read_character                            CMakeFiles/tube-client.dir/framebuffer/screen_modes.c.obj
default_reset_screen                              CMakeFiles/tube-client.dir/framebuffer/screen_modes.c.obj
default_scroll_screen                             CMakeFiles/tube-client.dir/framebuffer/screen_modes.c.obj
                                                  CMakeFiles/tube-client.dir/framebuffer/teletext.c.obj
default_set_colour_16bpp                          CMakeFiles/tube-client.dir/framebuffer/screen_modes.c.obj
default_set_colour_32bpp                          CMakeFiles/tube-client.dir/framebuffer/screen_modes.c.obj
default_set_colour_8bpp                           CMakeFiles/tube-client.dir/framebuffer/screen_modes.c.obj
default_set_pixel_16bpp                           CMakeFiles/tube-client.dir/framebuffer/screen_modes.c.obj
default_set_pixel_32bpp                           CMakeFiles/tube-client.dir/framebuffer/screen_modes.c.obj
default_set_pixel_8bpp                            CMakeFiles/tube-client.dir/framebuffer/screen_modes.c.obj
default_unknown_vdu                               CMakeFiles/tube-client.dir/framebuffer/screen_modes.c.obj
default_write_character                           CMakeFiles/tube-client.dir/framebuffer/screen_modes.c.obj
define_character                                  CMakeFiles/tube-client.dir/framebuffer/fonts.c.obj
                                                  CMakeFiles/tube-client.dir/framebuffer/framebuffer.c.obj
dis6502                                           CMakeFiles/tube-client.dir/copro-65tubejit.c.obj
disable_tube                                      CMakeFiles/tube-client.dir/tube-ula.c.obj
                                                  CMakeFiles/tube-client.dir/copro-null.c.obj
disarm                                            CMakeFiles/tube-client.dir/copro-65tubejit.c.obj
dispatchCmd                                       CMakeFiles/tube-client.dir/tube-commands.c.obj
                                                  CMakeFiles/tube-client.dir/tube-swi.c.obj
dump_useful_info                                  CMakeFiles/tube-client.dir/info.c.obj
enable_MMU_and_IDCaches                           CMakeFiles/tube-client.dir/cache.c.obj
                                                  CMakeFiles/tube-client.dir/tube-client.c.obj
env                                               CMakeFiles/tube-client.dir/copro-armnative.c.obj
                                                  CMakeFiles/tube-client.dir/tube-swi.c.obj
                                                  CMakeFiles/tube-client.dir/tube-isr.c.obj
environ                                           CMakeFiles/tube-client.dir/armc-cstubs.c.obj
errno                                             /usr/lib/gcc/arm-none-eabi/11.2.0/../../../../arm-none-eabi/lib/thumb/v7+fp/hard/libc_nano.a(lib_a-reent.o)
                                                  /usr/lib/gcc/arm-none-eabi/11.2.0/../../../../arm-none-eabi/lib/thumb/v7+fp/hard/libnosys.a(kill.o)
                                                  /usr/lib/gcc/arm-none-eabi/11.2.0/../../../../arm-none-eabi/lib/thumb/v7+fp/hard/libnosys.a(getpid.o)
                                                  /usr/lib/gcc/arm-none-eabi/11.2.0/../../../../arm-none-eabi/lib/thumb/v7+fp/hard/libc_nano.a(lib_a-signalr.o)
                                                  /usr/lib/gcc/arm-none-eabi/11.2.0/../../../../arm-none-eabi/lib/thumb/v7+fp/hard/libc_nano.a(lib_a-isattyr.o)
                                                  /usr/lib/gcc/arm-none-eabi/11.2.0/../../../../arm-none-eabi/lib/thumb/v7+fp/hard/libc_nano.a(lib_a-fstatr.o)
                                                  /usr/lib/gcc/arm-none-eabi/11.2.0/../../../../arm-none-eabi/lib/thumb/v7+fp/hard/libc_nano.a(lib_a-readr.o)
                                                  /usr/lib/gcc/arm-none-eabi/11.2.0/../../../../arm-none-eabi/lib/thumb/v7+fp/hard/libc_nano.a(lib_a-lseekr.o)
                                                  /usr/lib/gcc/arm-none-eabi/11.2.0/../../../../arm-none-eabi/lib/thumb/v7+fp/hard/libc_nano.a(lib_a-closer.o)
                                                  /usr/lib/gcc/arm-none-eabi/11.2.0/../../../../arm-none-eabi/lib/thumb/v7+fp/hard/libc_nano.a(lib_a-writer.o)
                                                  /usr/lib/gcc/arm-none-eabi/11.2.0/../../../../arm-none-eabi/lib/thumb/v7+fp/hard/libc_nano.a(lib_a-sbrkr.o)
                                                  CMakeFiles/tube-client.dir/armc-cstubs.c.obj
exec86                                            CMakeFiles/tube-client.dir/cpu80186/cpu80186.c.obj
                                                  CMakeFiles/tube-client.dir/copro-80186.c.obj
exec_65tube                                       CMakeFiles/tube-client.dir/copro-65tubeasm.S.obj
                                                  CMakeFiles/tube-client.dir/copro-65tube.c.obj
exec_65tubejit                                    CMakeFiles/tube-client.dir/jit.S.obj
                                                  CMakeFiles/tube-client.dir/copro-65tubejit.c.obj
execve                                            CMakeFiles/tube-client.dir/armc-cstubs.c.obj
f100_execute                                      CMakeFiles/tube-client.dir/f100/f100.c.obj
                                                  CMakeFiles/tube-client.dir/copro-f100.c.obj
f100_init                                         CMakeFiles/tube-client.dir/f100/f100.c.obj
                                                  CMakeFiles/tube-client.dir/copro-f100.c.obj
f100_irq                                          CMakeFiles/tube-client.dir/f100/f100.c.obj
                                                  CMakeFiles/tube-client.dir/copro-f100.c.obj
f100_reset                                        CMakeFiles/tube-client.dir/f100/f100.c.obj
                                                  CMakeFiles/tube-client.dir/copro-f100.c.obj
fb                                                CMakeFiles/tube-client.dir/framebuffer/screen_modes.c.obj
fb_add_swi_handlers                               CMakeFiles/tube-client.dir/framebuffer/swi_impl.c.obj
                                                  CMakeFiles/tube-client.dir/framebuffer/framebuffer.c.obj
fb_destroy                                        CMakeFiles/tube-client.dir/framebuffer/framebuffer.c.obj
fb_get_current_screen_mode                        CMakeFiles/tube-client.dir/framebuffer/framebuffer.c.obj
                                                  CMakeFiles/tube-client.dir/framebuffer/swi_impl.c.obj
fb_get_edit_cursor_char                           CMakeFiles/tube-client.dir/framebuffer/framebuffer.c.obj
                                                  CMakeFiles/tube-client.dir/tube-ula.c.obj
                                                  CMakeFiles/tube-client.dir/framebuffer/swi_impl.c.obj
fb_get_edit_cursor_x                              CMakeFiles/tube-client.dir/framebuffer/framebuffer.c.obj
                                                  CMakeFiles/tube-client.dir/tube-ula.c.obj
fb_get_edit_cursor_y                              CMakeFiles/tube-client.dir/framebuffer/framebuffer.c.obj
                                                  CMakeFiles/tube-client.dir/tube-ula.c.obj
fb_get_flash_mark_time                            CMakeFiles/tube-client.dir/framebuffer/framebuffer.c.obj
                                                  CMakeFiles/tube-client.dir/framebuffer/swi_impl.c.obj
fb_get_flash_space_time                           CMakeFiles/tube-client.dir/framebuffer/framebuffer.c.obj
                                                  CMakeFiles/tube-client.dir/framebuffer/swi_impl.c.obj
fb_get_g_bg_col                                   CMakeFiles/tube-client.dir/framebuffer/framebuffer.c.obj
                                                  CMakeFiles/tube-client.dir/framebuffer/primitives.c.obj
fb_get_g_fg_col                                   CMakeFiles/tube-client.dir/framebuffer/framebuffer.c.obj
                                                  CMakeFiles/tube-client.dir/framebuffer/primitives.c.obj
fb_get_text_cursor_char                           CMakeFiles/tube-client.dir/framebuffer/framebuffer.c.obj
                                                  CMakeFiles/tube-client.dir/framebuffer/swi_impl.c.obj
fb_get_text_cursor_x                              CMakeFiles/tube-client.dir/framebuffer/framebuffer.c.obj
                                                  CMakeFiles/tube-client.dir/framebuffer/swi_impl.c.obj
fb_get_text_cursor_y                              CMakeFiles/tube-client.dir/framebuffer/framebuffer.c.obj
                                                  CMakeFiles/tube-client.dir/framebuffer/swi_impl.c.obj
fb_initialize                                     CMakeFiles/tube-client.dir/framebuffer/framebuffer.c.obj
                                                  CMakeFiles/tube-client.dir/tube-ula.c.obj
fb_process_vdu_queue                              CMakeFiles/tube-client.dir/framebuffer/framebuffer.c.obj
                                                  CMakeFiles/tube-client.dir/rpi-aux.c.obj
fb_read_mode_variable                             CMakeFiles/tube-client.dir/framebuffer/screen_modes.c.obj
                                                  CMakeFiles/tube-client.dir/framebuffer/swi_impl.c.obj
                                                  CMakeFiles/tube-client.dir/framebuffer/framebuffer.c.obj
fb_read_vdu_variable                              CMakeFiles/tube-client.dir/framebuffer/framebuffer.c.obj
                                                  CMakeFiles/tube-client.dir/framebuffer/swi_impl.c.obj
fb_remove_swi_handlers                            CMakeFiles/tube-client.dir/framebuffer/swi_impl.c.obj
                                                  CMakeFiles/tube-client.dir/framebuffer/framebuffer.c.obj
fb_set_flash_mark_time                            CMakeFiles/tube-client.dir/framebuffer/framebuffer.c.obj
                                                  CMakeFiles/tube-client.dir/framebuffer/swi_impl.c.obj
fb_set_flash_space_time                           CMakeFiles/tube-client.dir/framebuffer/framebuffer.c.obj
                                                  CMakeFiles/tube-client.dir/framebuffer/swi_impl.c.obj
fb_set_vdu_device                                 CMakeFiles/tube-client.dir/framebuffer/swi_impl.c.obj
                                                  CMakeFiles/tube-client.dir/tube-commands.c.obj
fb_wait_for_vsync                                 CMakeFiles/tube-client.dir/framebuffer/framebuffer.c.obj
                                                  CMakeFiles/tube-client.dir/framebuffer/swi_impl.c.obj
fb_writec                                         CMakeFiles/tube-client.dir/framebuffer/framebuffer.c.obj
                                                  CMakeFiles/tube-client.dir/tube-ula.c.obj
                                                  CMakeFiles/tube-client.dir/framebuffer/swi_impl.c.obj
fb_writec_buffered                                CMakeFiles/tube-client.dir/framebuffer/framebuffer.c.obj
                                                  CMakeFiles/tube-client.dir/tube-ula.c.obj
fb_writes                                         CMakeFiles/tube-client.dir/framebuffer/framebuffer.c.obj
fflush                                            /usr/lib/gcc/arm-none-eabi/11.2.0/../../../../arm-none-eabi/lib/thumb/v7+fp/hard/libc_nano.a(lib_a-fflush.o)
                                                  CMakeFiles/tube-client.dir/lib6502.c.obj
fiprintf                                          /usr/lib/gcc/arm-none-eabi/11.2.0/../../../../arm-none-eabi/lib/thumb/v7+fp/hard/libc_nano.a(lib_a-fprintf.o)
                                                  /usr/lib/gcc/arm-none-eabi/11.2.0/../../../../arm-none-eabi/lib/thumb/v7+fp/hard/libc_nano.a(lib_a-assert.o)
font01                                            CMakeFiles/tube-client.dir/framebuffer/fonts.c.obj
font02                                            CMakeFiles/tube-client.dir/framebuffer/fonts.c.obj
font03                                            CMakeFiles/tube-client.dir/framebuffer/fonts.c.obj
font04                                            CMakeFiles/tube-client.dir/framebuffer/fonts.c.obj
font05                                            CMakeFiles/tube-client.dir/framebuffer/fonts.c.obj
font06                                            CMakeFiles/tube-client.dir/framebuffer/fonts.c.obj
font07                                            CMakeFiles/tube-client.dir/framebuffer/fonts.c.obj
font08                                            CMakeFiles/tube-client.dir/framebuffer/fonts.c.obj
font09                                            CMakeFiles/tube-client.dir/framebuffer/fonts.c.obj
font10                                            CMakeFiles/tube-client.dir/framebuffer/fonts.c.obj
font11                                            CMakeFiles/tube-client.dir/framebuffer/fonts.c.obj
font12                                            CMakeFiles/tube-client.dir/framebuffer/fonts.c.obj
font13                                            CMakeFiles/tube-client.dir/framebuffer/fonts.c.obj
font14                                            CMakeFiles/tube-client.dir/framebuffer/fonts.c.obj
font15                                            CMakeFiles/tube-client.dir/framebuffer/fonts.c.obj
font16                                            CMakeFiles/tube-client.dir/framebuffer/fonts.c.obj
font17                                            CMakeFiles/tube-client.dir/framebuffer/fonts.c.obj
font18                                            CMakeFiles/tube-client.dir/framebuffer/fonts.c.obj
font19                                            CMakeFiles/tube-client.dir/framebuffer/fonts.c.obj
font20                                            CMakeFiles/tube-client.dir/framebuffer/fonts.c.obj
font21                                            CMakeFiles/tube-client.dir/framebuffer/fonts.c.obj
font22                                            CMakeFiles/tube-client.dir/framebuffer/fonts.c.obj
font23                                            CMakeFiles/tube-client.dir/framebuffer/fonts.c.obj
font24                                            CMakeFiles/tube-client.dir/framebuffer/fonts.c.obj
font25                                            CMakeFiles/tube-client.dir/framebuffer/fonts.c.obj
font26                                            CMakeFiles/tube-client.dir/framebuffer/fonts.c.obj
font27                                            CMakeFiles/tube-client.dir/framebuffer/fonts.c.obj
font28                                            CMakeFiles/tube-client.dir/framebuffer/fonts.c.obj
font29                                            CMakeFiles/tube-client.dir/framebuffer/fonts.c.obj
font30                                            CMakeFiles/tube-client.dir/framebuffer/fonts.c.obj
font31                                            CMakeFiles/tube-client.dir/framebuffer/fonts.c.obj
font6847                                          CMakeFiles/tube-client.dir/framebuffer/fonts.c.obj
fontbbc                                           CMakeFiles/tube-client.dir/framebuffer/fonts.c.obj
fork                                              CMakeFiles/tube-client.dir/armc-cstubs.c.obj
fprintf                                           /usr/lib/gcc/arm-none-eabi/11.2.0/../../../../arm-none-eabi/lib/thumb/v7+fp/hard/libc_nano.a(lib_a-fprintf.o)
free                                              /usr/lib/gcc/arm-none-eabi/11.2.0/../../../../arm-none-eabi/lib/thumb/v7+fp/hard/libc_nano.a(lib_a-malloc.o)
                                                  CMakeFiles/tube-client.dir/tube-commands.c.obj
                                                  CMakeFiles/tube-client.dir/lib6502.c.obj
                                                  CMakeFiles/tube-client.dir/framebuffer/primitives.c.obj
fwrite                                            /usr/lib/gcc/arm-none-eabi/11.2.0/../../../../arm-none-eabi/lib/thumb/v7+fp/hard/libc_nano.a(lib_a-fwrite.o)
                                                  CMakeFiles/tube-client.dir/lib6502.c.obj
generate_error                                    CMakeFiles/tube-client.dir/tube-swi.c.obj
                                                  CMakeFiles/tube-client.dir/tube-isr.c.obj
get_a                                             CMakeFiles/tube-client.dir/mc6809nc/mc6809.c.obj
get_b                                             CMakeFiles/tube-client.dir/mc6809nc/mc6809.c.obj
get_cc                                            CMakeFiles/tube-client.dir/mc6809nc/mc6809.c.obj
get_clock_rate                                    CMakeFiles/tube-client.dir/info.c.obj
                                                  CMakeFiles/tube-client.dir/tube-client.c.obj
get_clock_rates                                   CMakeFiles/tube-client.dir/info.c.obj
                                                  CMakeFiles/tube-client.dir/rpi-aux.c.obj
get_cmdline_prop                                  CMakeFiles/tube-client.dir/info.c.obj
                                                  CMakeFiles/tube-client.dir/utils.c.obj
                                                  CMakeFiles/tube-client.dir/tube-ula.c.obj
                                                  CMakeFiles/tube-client.dir/tube-client.c.obj
get_copro_mhz                                     CMakeFiles/tube-client.dir/tube-client.c.obj
                                                  CMakeFiles/tube-client.dir/tube-commands.c.obj
                                                  CMakeFiles/tube-client.dir/programs.c.obj
get_d                                             CMakeFiles/tube-client.dir/mc6809nc/mc6809.c.obj
get_dp                                            CMakeFiles/tube-client.dir/mc6809nc/mc6809.c.obj
get_elk_mode                                      CMakeFiles/tube-client.dir/utils.c.obj
                                                  CMakeFiles/tube-client.dir/tube-commands.c.obj
get_fb_address                                    CMakeFiles/tube-client.dir/framebuffer/screen_modes.c.obj
                                                  CMakeFiles/tube-client.dir/framebuffer/v3d.c.obj
                                                  CMakeFiles/tube-client.dir/framebuffer/primitives.c.obj
                                                  CMakeFiles/tube-client.dir/framebuffer/framebuffer.c.obj
get_flags                                         CMakeFiles/tube-client.dir/mc6809nc/mc6809.c.obj
get_font_by_name                                  CMakeFiles/tube-client.dir/framebuffer/fonts.c.obj
                                                  CMakeFiles/tube-client.dir/framebuffer/teletext.c.obj
                                                  CMakeFiles/tube-client.dir/framebuffer/framebuffer.c.obj
get_font_by_number                                CMakeFiles/tube-client.dir/framebuffer/fonts.c.obj
                                                  CMakeFiles/tube-client.dir/framebuffer/screen_modes.c.obj
                                                  CMakeFiles/tube-client.dir/framebuffer/framebuffer.c.obj
get_font_name                                     CMakeFiles/tube-client.dir/framebuffer/fonts.c.obj
                                                  CMakeFiles/tube-client.dir/framebuffer/framebuffer.c.obj
get_info_string                                   CMakeFiles/tube-client.dir/info.c.obj
                                                  CMakeFiles/tube-client.dir/programs.c.obj
                                                  CMakeFiles/tube-client.dir/framebuffer/framebuffer.c.obj
get_pc                                            CMakeFiles/tube-client.dir/mc6809nc/mc6809.c.obj
get_revision                                      CMakeFiles/tube-client.dir/info.c.obj
                                                  CMakeFiles/tube-client.dir/tube-ula.c.obj
get_s                                             CMakeFiles/tube-client.dir/mc6809nc/mc6809.c.obj
get_screen_mode                                   CMakeFiles/tube-client.dir/framebuffer/screen_modes.c.obj
                                                  CMakeFiles/tube-client.dir/framebuffer/swi_impl.c.obj
                                                  CMakeFiles/tube-client.dir/framebuffer/framebuffer.c.obj
get_speed                                         CMakeFiles/tube-client.dir/info.c.obj
                                                  CMakeFiles/tube-client.dir/copro-armnative.c.obj
get_u                                             CMakeFiles/tube-client.dir/mc6809nc/mc6809.c.obj
get_x                                             CMakeFiles/tube-client.dir/mc6809nc/mc6809.c.obj
get_y                                             CMakeFiles/tube-client.dir/mc6809nc/mc6809.c.obj
getpid                                            CMakeFiles/tube-client.dir/armc-cstubs.c.obj
handler_not_implemented                           CMakeFiles/tube-client.dir/tube-swi.c.obj
                                                  CMakeFiles/tube-client.dir/copro-armnative.c.obj
i386_dasm_one                                     CMakeFiles/tube-client.dir/cpu80186/i386dasm.c.obj
ifl                                               CMakeFiles/tube-client.dir/cpu80186/cpu80186.c.obj
                                                  CMakeFiles/tube-client.dir/copro-80186.c.obj
indirect                                          CMakeFiles/tube-client.dir/copro-65tubeasm.S.obj
init_info                                         CMakeFiles/tube-client.dir/info.c.obj
                                                  CMakeFiles/tube-client.dir/tube-ula.c.obj
init_ram                                          CMakeFiles/tube-client.dir/NS32016/mem32016.c.obj
                                                  CMakeFiles/tube-client.dir/NS32016/32016.c.obj
intcall86                                         CMakeFiles/tube-client.dir/cpu80186/cpu80186.c.obj
                                                  CMakeFiles/tube-client.dir/copro-80186.c.obj
ip                                                CMakeFiles/tube-client.dir/cpu80186/cpu80186.c.obj
iprintf                                           /usr/lib/gcc/arm-none-eabi/11.2.0/../../../../arm-none-eabi/lib/thumb/v7+fp/hard/libc_nano.a(lib_a-printf.o)
kernel_main                                       CMakeFiles/tube-client.dir/tube-client.c.obj
                                                  CMakeFiles/tube-client.dir/armc-cstartup.c.obj
kill                                              CMakeFiles/tube-client.dir/armc-cstubs.c.obj
link                                              CMakeFiles/tube-client.dir/armc-cstubs.c.obj
localeconv                                        /usr/lib/gcc/arm-none-eabi/11.2.0/../../../../arm-none-eabi/lib/thumb/v7+fp/hard/libc_nano.a(lib_a-localeconv.o)
log_error                                         CMakeFiles/tube-client.dir/logging.c.obj
log_fatal                                         CMakeFiles/tube-client.dir/logging.c.obj
log_info                                          CMakeFiles/tube-client.dir/logging.c.obj
                                                  CMakeFiles/tube-client.dir/NS32016/Trap.c.obj
                                                  CMakeFiles/tube-client.dir/NS32016/32016.c.obj
log_warn                                          CMakeFiles/tube-client.dir/logging.c.obj
                                                  CMakeFiles/tube-client.dir/NS32016/32016.c.obj
longjmp                                           /usr/lib/gcc/arm-none-eabi/11.2.0/../../../../arm-none-eabi/lib/thumb/v7+fp/hard/libc_nano.a(lib_a-setjmp.o)
                                                  CMakeFiles/tube-client.dir/copro-armnative.c.obj
                                                  CMakeFiles/tube-client.dir/pdp11/pdp11.c.obj
m_f100                                            CMakeFiles/tube-client.dir/f100/f100.c.obj
m_opc5ls                                          CMakeFiles/tube-client.dir/opc5ls/opc5ls.c.obj
m_opc6                                            CMakeFiles/tube-client.dir/opc6/opc6.c.obj
m_opc7                                            CMakeFiles/tube-client.dir/opc7/opc7.c.obj
m_pdp11                                           CMakeFiles/tube-client.dir/pdp11/pdp11.c.obj
                                                  CMakeFiles/tube-client.dir/copro-pdp11.c.obj
m_sArmRegister                                    CMakeFiles/tube-client.dir/mame/arm.c.obj
malloc                                            /usr/lib/gcc/arm-none-eabi/11.2.0/../../../../arm-none-eabi/lib/thumb/v7+fp/hard/libc_nano.a(lib_a-malloc.o)
                                                  /usr/lib/gcc/arm-none-eabi/11.2.0/../../../../arm-none-eabi/lib/thumb/v7+fp/hard/libc_nano.a(lib_a-mprec.o)
                                                  /usr/lib/gcc/arm-none-eabi/11.2.0/../../../../arm-none-eabi/lib/thumb/v7+fp/hard/libc_nano.a(lib_a-dtoa.o)
                                                  /usr/lib/gcc/arm-none-eabi/11.2.0/../../../../arm-none-eabi/lib/thumb/v7+fp/hard/libc_nano.a(lib_a-random.o)
                                                  CMakeFiles/tube-client.dir/rpi-aux.c.obj
                                                  CMakeFiles/tube-client.dir/framebuffer/primitives.c.obj
map_4k_page                                       CMakeFiles/tube-client.dir/cache.c.obj
                                                  CMakeFiles/tube-client.dir/copro-65tubejit.c.obj
                                                  CMakeFiles/tube-client.dir/copro-65tube.c.obj
                                                  CMakeFiles/tube-client.dir/tube-ula.c.obj
map_4k_pageJIT                                    CMakeFiles/tube-client.dir/cache.c.obj
                                                  CMakeFiles/tube-client.dir/copro-65tubejit.c.obj
mc6809nc_execute                                  CMakeFiles/tube-client.dir/mc6809nc/mc6809.c.obj
                                                  CMakeFiles/tube-client.dir/copro-mc6809nc.c.obj
mc6809nc_release_firq                             CMakeFiles/tube-client.dir/mc6809nc/mc6809.c.obj
mc6809nc_release_irq                              CMakeFiles/tube-client.dir/mc6809nc/mc6809.c.obj
mc6809nc_request_firq                             CMakeFiles/tube-client.dir/mc6809nc/mc6809.c.obj
                                                  CMakeFiles/tube-client.dir/copro-mc6809nc.c.obj
mc6809nc_request_irq                              CMakeFiles/tube-client.dir/mc6809nc/mc6809.c.obj
                                                  CMakeFiles/tube-client.dir/copro-mc6809nc.c.obj
mc6809nc_reset                                    CMakeFiles/tube-client.dir/mc6809nc/mc6809.c.obj
                                                  CMakeFiles/tube-client.dir/copro-mc6809nc.c.obj
memchr                                            /usr/lib/gcc/arm-none-eabi/11.2.0/../../../../arm-none-eabi/lib/thumb/v7+fp/hard/libc_nano.a(lib_a-memchr-stub.o)
                                                  /usr/lib/gcc/arm-none-eabi/11.2.0/../../../../arm-none-eabi/lib/thumb/v7+fp/hard/libc_nano.a(lib_a-fvwrite.o)
                                                  /usr/lib/gcc/arm-none-eabi/11.2.0/../../../../arm-none-eabi/lib/thumb/v7+fp/hard/libc_nano.a(lib_a-nano-vfscanf_i.o)
                                                  /usr/lib/gcc/arm-none-eabi/11.2.0/../../../../arm-none-eabi/lib/thumb/v7+fp/hard/libc_nano.a(lib_a-nano-vfprintf.o)
                                                  /usr/lib/gcc/arm-none-eabi/11.2.0/../../../../arm-none-eabi/lib/thumb/v7+fp/hard/libc_nano.a(lib_a-nano-svfscanf.o)
                                                  /usr/lib/gcc/arm-none-eabi/11.2.0/../../../../arm-none-eabi/lib/thumb/v7+fp/hard/libc_nano.a(lib_a-nano-svfprintf.o)
                                                  /usr/lib/gcc/arm-none-eabi/11.2.0/../../../../arm-none-eabi/lib/thumb/v7+fp/hard/libc_nano.a(lib_a-nano-vfprintf_i.o)
memcpy                                            /usr/lib/gcc/arm-none-eabi/11.2.0/../../../../arm-none-eabi/lib/thumb/v7+fp/hard/libc_nano.a(lib_a-memcpy-stub.o)
                                                  /usr/lib/gcc/arm-none-eabi/11.2.0/../../../../arm-none-eabi/lib/thumb/v7+fp/hard/libc_nano.a(lib_a-nano-reallocr.o)
                                                  /usr/lib/gcc/arm-none-eabi/11.2.0/../../../../arm-none-eabi/lib/thumb/v7+fp/hard/libc_nano.a(lib_a-fvwrite.o)
                                                  /usr/lib/gcc/arm-none-eabi/11.2.0/../../../../arm-none-eabi/lib/thumb/v7+fp/hard/libc_nano.a(lib_a-ungetc.o)
                                                  /usr/lib/gcc/arm-none-eabi/11.2.0/../../../../arm-none-eabi/lib/thumb/v7+fp/hard/libc_nano.a(lib_a-nano-svfprintf.o)
                                                  /usr/lib/gcc/arm-none-eabi/11.2.0/../../../../arm-none-eabi/lib/thumb/v7+fp/hard/libc_nano.a(lib_a-mprec.o)
                                                  /usr/lib/gcc/arm-none-eabi/11.2.0/../../../../arm-none-eabi/lib/thumb/v7+fp/hard/libc_nano.a(lib_a-dtoa.o)
                                                  CMakeFiles/tube-client.dir/NS32016/mem32016.c.obj
                                                  CMakeFiles/tube-client.dir/cpu80186/mem80186.c.obj
                                                  CMakeFiles/tube-client.dir/tube-client.c.obj
                                                  CMakeFiles/tube-client.dir/rpi-mailbox-interface.c.obj
                                                  CMakeFiles/tube-client.dir/programs.c.obj
                                                  CMakeFiles/tube-client.dir/info.c.obj
                                                  CMakeFiles/tube-client.dir/framebuffer/swi_impl.c.obj
                                                  CMakeFiles/tube-client.dir/framebuffer/framebuffer.c.obj
                                                  CMakeFiles/tube-client.dir/framebuffer/fonts.c.obj
memmove                                           /usr/lib/gcc/arm-none-eabi/11.2.0/../../../../arm-none-eabi/lib/thumb/v7+fp/hard/libc_nano.a(lib_a-memmove.o)
                                                  /usr/lib/gcc/arm-none-eabi/11.2.0/../../../../arm-none-eabi/lib/thumb/v7+fp/hard/libc_nano.a(lib_a-fvwrite.o)
                                                  /usr/lib/gcc/arm-none-eabi/11.2.0/../../../../arm-none-eabi/lib/thumb/v7+fp/hard/libc_nano.a(lib_a-nano-svfprintf.o)
                                                  CMakeFiles/tube-client.dir/pdp11/pdp11.c.obj
                                                  CMakeFiles/tube-client.dir/framebuffer/primitives.c.obj
memset                                            /usr/lib/gcc/arm-none-eabi/11.2.0/../../../../arm-none-eabi/lib/thumb/v7+fp/hard/libc_nano.a(lib_a-memset.o)
                                                  /usr/lib/gcc/arm-none-eabi/11.2.0/../../../../arm-none-eabi/lib/thumb/v7+fp/hard/libc_nano.a(lib_a-nano-callocr.o)
                                                  /usr/lib/gcc/arm-none-eabi/11.2.0/../../../../arm-none-eabi/lib/thumb/v7+fp/hard/libc_nano.a(lib_a-findfp.o)
                                                  CMakeFiles/tube-client.dir/darm/darm.c.obj
                                                  CMakeFiles/tube-client.dir/copro-armnative.c.obj
                                                  CMakeFiles/tube-client.dir/mame/arm.c.obj
                                                  CMakeFiles/tube-client.dir/copro-lib6502.c.obj
                                                  CMakeFiles/tube-client.dir/tube-client.c.obj
                                                  CMakeFiles/tube-client.dir/info.c.obj
                                                  CMakeFiles/tube-client.dir/framebuffer/teletext.c.obj
                                                  CMakeFiles/tube-client.dir/armc-cstartup.c.obj
n32016_ShowRegs                                   CMakeFiles/tube-client.dir/NS32016/32016.c.obj
                                                  CMakeFiles/tube-client.dir/NS32016/Trap.c.obj
n32016_build_matrix                               CMakeFiles/tube-client.dir/NS32016/Decode.c.obj
                                                  CMakeFiles/tube-client.dir/NS32016/32016.c.obj
n32016_disassemble                                CMakeFiles/tube-client.dir/NS32016/NSDis.c.obj
n32016_dumpregs                                   CMakeFiles/tube-client.dir/NS32016/Trap.c.obj
                                                  CMakeFiles/tube-client.dir/NS32016/32016.c.obj
n32016_exec                                       CMakeFiles/tube-client.dir/NS32016/32016.c.obj
                                                  CMakeFiles/tube-client.dir/copro-32016.c.obj
n32016_get_pc                                     CMakeFiles/tube-client.dir/NS32016/32016.c.obj
n32016_get_startpc                                CMakeFiles/tube-client.dir/NS32016/32016.c.obj
n32016_init                                       CMakeFiles/tube-client.dir/NS32016/32016.c.obj
                                                  CMakeFiles/tube-client.dir/copro-32016.c.obj
n32016_reset_addr                                 CMakeFiles/tube-client.dir/NS32016/32016.c.obj
                                                  CMakeFiles/tube-client.dir/copro-32016.c.obj
n32016_set_pc                                     CMakeFiles/tube-client.dir/NS32016/32016.c.obj
n32016_show_instruction                           CMakeFiles/tube-client.dir/NS32016/NSDis.c.obj
n32016_warn                                       CMakeFiles/tube-client.dir/NS32016/32016.c.obj
                                                  CMakeFiles/tube-client.dir/NS32016/mem32016.c.obj
no                                                CMakeFiles/tube-client.dir/copro-65tubeasm.S.obj
nocarry                                           CMakeFiles/tube-client.dir/copro-65tubeasm.S.obj
num_copros                                        CMakeFiles/tube-client.dir/copro-defs.c.obj
                                                  CMakeFiles/tube-client.dir/tube-commands.c.obj
                                                  CMakeFiles/tube-client.dir/tube-client.c.obj
                                                  CMakeFiles/tube-client.dir/programs.c.obj
opc5ls_execute                                    CMakeFiles/tube-client.dir/opc5ls/opc5ls.c.obj
                                                  CMakeFiles/tube-client.dir/copro-opc5ls.c.obj
opc5ls_init                                       CMakeFiles/tube-client.dir/opc5ls/opc5ls.c.obj
                                                  CMakeFiles/tube-client.dir/copro-opc5ls.c.obj
opc5ls_irq                                        CMakeFiles/tube-client.dir/opc5ls/opc5ls.c.obj
                                                  CMakeFiles/tube-client.dir/copro-opc5ls.c.obj
opc5ls_reset                                      CMakeFiles/tube-client.dir/opc5ls/opc5ls.c.obj
                                                  CMakeFiles/tube-client.dir/copro-opc5ls.c.obj
opc6_execute                                      CMakeFiles/tube-client.dir/opc6/opc6.c.obj
                                                  CMakeFiles/tube-client.dir/copro-opc6.c.obj
opc6_init                                         CMakeFiles/tube-client.dir/opc6/opc6.c.obj
                                                  CMakeFiles/tube-client.dir/copro-opc6.c.obj
opc6_irq                                          CMakeFiles/tube-client.dir/opc6/opc6.c.obj
                                                  CMakeFiles/tube-client.dir/copro-opc6.c.obj
opc6_reset                                        CMakeFiles/tube-client.dir/opc6/opc6.c.obj
                                                  CMakeFiles/tube-client.dir/copro-opc6.c.obj
opc7_execute                                      CMakeFiles/tube-client.dir/opc7/opc7.c.obj
                                                  CMakeFiles/tube-client.dir/copro-opc7.c.obj
opc7_init                                         CMakeFiles/tube-client.dir/opc7/opc7.c.obj
                                                  CMakeFiles/tube-client.dir/copro-opc7.c.obj
opc7_irq                                          CMakeFiles/tube-client.dir/opc7/opc7.c.obj
                                                  CMakeFiles/tube-client.dir/copro-opc7.c.obj
opc7_reset                                        CMakeFiles/tube-client.dir/opc7/opc7.c.obj
                                                  CMakeFiles/tube-client.dir/copro-opc7.c.obj
open                                              CMakeFiles/tube-client.dir/armc-cstubs.c.obj
pdp11_execute                                     CMakeFiles/tube-client.dir/pdp11/pdp11.c.obj
                                                  CMakeFiles/tube-client.dir/copro-pdp11.c.obj
pdp11_interrupt                                   CMakeFiles/tube-client.dir/pdp11/pdp11.c.obj
                                                  CMakeFiles/tube-client.dir/copro-pdp11.c.obj
pdp11_reset                                       CMakeFiles/tube-client.dir/pdp11/pdp11.c.obj
                                                  CMakeFiles/tube-client.dir/copro-pdp11.c.obj
pdp11_switchmode                                  CMakeFiles/tube-client.dir/pdp11/pdp11.c.obj
portin                                            CMakeFiles/tube-client.dir/cpu80186/iop80186.c.obj
                                                  CMakeFiles/tube-client.dir/cpu80186/cpu80186.c.obj
portin16                                          CMakeFiles/tube-client.dir/cpu80186/iop80186.c.obj
                                                  CMakeFiles/tube-client.dir/cpu80186/cpu80186.c.obj
portout                                           CMakeFiles/tube-client.dir/cpu80186/iop80186.c.obj
                                                  CMakeFiles/tube-client.dir/cpu80186/cpu80186.c.obj
portout16                                         CMakeFiles/tube-client.dir/cpu80186/iop80186.c.obj
                                                  CMakeFiles/tube-client.dir/cpu80186/cpu80186.c.obj
prefetch_abort_handler                            CMakeFiles/tube-client.dir/tube-exception.c.obj
                                                  CMakeFiles/tube-client.dir/armc-start.S.obj
prim_clear_graphics_area                          CMakeFiles/tube-client.dir/framebuffer/primitives.c.obj
                                                  CMakeFiles/tube-client.dir/framebuffer/framebuffer.c.obj
prim_define_sprite                                CMakeFiles/tube-client.dir/framebuffer/primitives.c.obj
                                                  CMakeFiles/tube-client.dir/framebuffer/framebuffer.c.obj
prim_draw_arc                                     CMakeFiles/tube-client.dir/framebuffer/primitives.c.obj
                                                  CMakeFiles/tube-client.dir/framebuffer/framebuffer.c.obj
prim_draw_character                               CMakeFiles/tube-client.dir/framebuffer/primitives.c.obj
                                                  CMakeFiles/tube-client.dir/framebuffer/framebuffer.c.obj
prim_draw_circle                                  CMakeFiles/tube-client.dir/framebuffer/primitives.c.obj
                                                  CMakeFiles/tube-client.dir/framebuffer/framebuffer.c.obj
prim_draw_ellipse                                 CMakeFiles/tube-client.dir/framebuffer/primitives.c.obj
                                                  CMakeFiles/tube-client.dir/framebuffer/framebuffer.c.obj
prim_draw_line                                    CMakeFiles/tube-client.dir/framebuffer/primitives.c.obj
                                                  CMakeFiles/tube-client.dir/framebuffer/framebuffer.c.obj
prim_draw_sprite                                  CMakeFiles/tube-client.dir/framebuffer/primitives.c.obj
                                                  CMakeFiles/tube-client.dir/framebuffer/framebuffer.c.obj
prim_fill_area                                    CMakeFiles/tube-client.dir/framebuffer/primitives.c.obj
                                                  CMakeFiles/tube-client.dir/framebuffer/framebuffer.c.obj
prim_fill_chord                                   CMakeFiles/tube-client.dir/framebuffer/primitives.c.obj
                                                  CMakeFiles/tube-client.dir/framebuffer/framebuffer.c.obj
prim_fill_circle                                  CMakeFiles/tube-client.dir/framebuffer/primitives.c.obj
                                                  CMakeFiles/tube-client.dir/framebuffer/framebuffer.c.obj
prim_fill_ellipse                                 CMakeFiles/tube-client.dir/framebuffer/primitives.c.obj
                                                  CMakeFiles/tube-client.dir/framebuffer/framebuffer.c.obj
prim_fill_parallelogram                           CMakeFiles/tube-client.dir/framebuffer/primitives.c.obj
                                                  CMakeFiles/tube-client.dir/framebuffer/framebuffer.c.obj
prim_fill_rectangle                               CMakeFiles/tube-client.dir/framebuffer/primitives.c.obj
                                                  CMakeFiles/tube-client.dir/framebuffer/framebuffer.c.obj
prim_fill_sector                                  CMakeFiles/tube-client.dir/framebuffer/primitives.c.obj
                                                  CMakeFiles/tube-client.dir/framebuffer/framebuffer.c.obj
prim_fill_triangle                                CMakeFiles/tube-client.dir/framebuffer/primitives.c.obj
                                                  CMakeFiles/tube-client.dir/framebuffer/framebuffer.c.obj
prim_flood_fill                                   CMakeFiles/tube-client.dir/framebuffer/primitives.c.obj
prim_get_bg_plotmode                              CMakeFiles/tube-client.dir/framebuffer/primitives.c.obj
                                                  CMakeFiles/tube-client.dir/framebuffer/framebuffer.c.obj
prim_get_fg_plotmode                              CMakeFiles/tube-client.dir/framebuffer/primitives.c.obj
                                                  CMakeFiles/tube-client.dir/framebuffer/framebuffer.c.obj
prim_move_copy_rectangle                          CMakeFiles/tube-client.dir/framebuffer/primitives.c.obj
                                                  CMakeFiles/tube-client.dir/framebuffer/framebuffer.c.obj
prim_reset_sprites                                CMakeFiles/tube-client.dir/framebuffer/primitives.c.obj
                                                  CMakeFiles/tube-client.dir/framebuffer/framebuffer.c.obj
prim_set_bg_plotmode                              CMakeFiles/tube-client.dir/framebuffer/primitives.c.obj
                                                  CMakeFiles/tube-client.dir/framebuffer/framebuffer.c.obj
prim_set_fg_plotmode                              CMakeFiles/tube-client.dir/framebuffer/primitives.c.obj
                                                  CMakeFiles/tube-client.dir/framebuffer/framebuffer.c.obj
prim_set_graphics_area                            CMakeFiles/tube-client.dir/framebuffer/primitives.c.obj
                                                  CMakeFiles/tube-client.dir/framebuffer/framebuffer.c.obj
prim_set_pixel                                    CMakeFiles/tube-client.dir/framebuffer/primitives.c.obj
                                                  CMakeFiles/tube-client.dir/framebuffer/framebuffer.c.obj
print_performance_counters                        CMakeFiles/tube-client.dir/performance.c.obj
print_tag_value                                   CMakeFiles/tube-client.dir/info.c.obj
printf                                            /usr/lib/gcc/arm-none-eabi/11.2.0/../../../../arm-none-eabi/lib/thumb/v7+fp/hard/libc_nano.a(lib_a-printf.o)
                                                  CMakeFiles/tube-client.dir/tube-swi.c.obj
                                                  CMakeFiles/tube-client.dir/tube-lib.c.obj
                                                  CMakeFiles/tube-client.dir/tube-isr.c.obj
                                                  CMakeFiles/tube-client.dir/pdp11/pdp11.c.obj
                                                  CMakeFiles/tube-client.dir/65816/65816.c.obj
                                                  CMakeFiles/tube-client.dir/mc6809nc/mc6809.c.obj
                                                  CMakeFiles/tube-client.dir/mame/arm.c.obj
                                                  CMakeFiles/tube-client.dir/copro-arm2.c.obj
                                                  CMakeFiles/tube-client.dir/cpu80186/cpu80186.c.obj
                                                  CMakeFiles/tube-client.dir/copro-65tubejit.c.obj
                                                  CMakeFiles/tube-client.dir/utils.c.obj
                                                  CMakeFiles/tube-client.dir/rpi-mailbox-interface.c.obj
                                                  CMakeFiles/tube-client.dir/rpi-aux.c.obj
                                                  CMakeFiles/tube-client.dir/performance.c.obj
                                                  CMakeFiles/tube-client.dir/logging.c.obj
                                                  CMakeFiles/tube-client.dir/info.c.obj
                                                  CMakeFiles/tube-client.dir/framebuffer/v3d.c.obj
                                                  CMakeFiles/tube-client.dir/framebuffer/swi_impl.c.obj
                                                  CMakeFiles/tube-client.dir/framebuffer/screen_modes.c.obj
                                                  CMakeFiles/tube-client.dir/framebuffer/primitives.c.obj
                                                  CMakeFiles/tube-client.dir/framebuffer/framebuffer.c.obj
putc                                              /usr/lib/gcc/arm-none-eabi/11.2.0/../../../../arm-none-eabi/lib/thumb/v7+fp/hard/libc_nano.a(lib_a-putc.o)
putchar                                           /usr/lib/gcc/arm-none-eabi/11.2.0/../../../../arm-none-eabi/lib/thumb/v7+fp/hard/libc_nano.a(lib_a-putchar.o)
                                                  CMakeFiles/tube-client.dir/jit.S.obj
puts                                              /usr/lib/gcc/arm-none-eabi/11.2.0/../../../../arm-none-eabi/lib/thumb/v7+fp/hard/libc_nano.a(lib_a-puts.o)
                                                  CMakeFiles/tube-client.dir/copro-null.c.obj
                                                  CMakeFiles/tube-client.dir/pdp11/pdp11.c.obj
                                                  CMakeFiles/tube-client.dir/utils.c.obj
                                                  CMakeFiles/tube-client.dir/tube-ula.c.obj
                                                  CMakeFiles/tube-client.dir/logging.c.obj
                                                  CMakeFiles/tube-client.dir/info.c.obj
                                                  CMakeFiles/tube-client.dir/framebuffer/v3d.c.obj
r                                                 CMakeFiles/tube-client.dir/NS32016/32016.c.obj
r0                                                CMakeFiles/tube-client.dir/copro-65tubeasm.S.obj
r1                                                CMakeFiles/tube-client.dir/copro-65tubeasm.S.obj
r6                                                CMakeFiles/tube-client.dir/copro-65tubeasm.S.obj
raise                                             /usr/lib/gcc/arm-none-eabi/11.2.0/../../../../arm-none-eabi/lib/thumb/v7+fp/hard/libc_nano.a(lib_a-signal.o)
                                                  /usr/lib/gcc/arm-none-eabi/11.2.0/../../../../arm-none-eabi/lib/thumb/v7+fp/hard/libc_nano.a(lib_a-abort.o)
random                                            /usr/lib/gcc/arm-none-eabi/11.2.0/../../../../arm-none-eabi/lib/thumb/v7+fp/hard/libc_nano.a(lib_a-random.o)
                                                  CMakeFiles/tube-client.dir/tube-commands.c.obj
read86                                            CMakeFiles/tube-client.dir/cpu80186/mem80186.c.obj
                                                  CMakeFiles/tube-client.dir/cpu80186/cpu80186.c.obj
read_n                                            CMakeFiles/tube-client.dir/NS32016/mem32016.c.obj
                                                  CMakeFiles/tube-client.dir/NS32016/32016.c.obj
read_performance_counters                         CMakeFiles/tube-client.dir/performance.c.obj
read_x16                                          CMakeFiles/tube-client.dir/NS32016/mem32016.c.obj
                                                  CMakeFiles/tube-client.dir/NS32016/32016.c.obj
read_x32                                          CMakeFiles/tube-client.dir/NS32016/mem32016.c.obj
                                                  CMakeFiles/tube-client.dir/NS32016/32016.c.obj
read_x64                                          CMakeFiles/tube-client.dir/NS32016/mem32016.c.obj
                                                  CMakeFiles/tube-client.dir/NS32016/32016.c.obj
read_x8                                           CMakeFiles/tube-client.dir/NS32016/mem32016.c.obj
                                                  CMakeFiles/tube-client.dir/NS32016/NSDis.c.obj
                                                  CMakeFiles/tube-client.dir/NS32016/32016.c.obj
readw86                                           CMakeFiles/tube-client.dir/cpu80186/mem80186.c.obj
                                                  CMakeFiles/tube-client.dir/cpu80186/cpu80186.c.obj
receiveBlock                                      CMakeFiles/tube-client.dir/tube-lib.c.obj
                                                  CMakeFiles/tube-client.dir/tube-swi.c.obj
receiveByte                                       CMakeFiles/tube-client.dir/tube-lib.c.obj
                                                  CMakeFiles/tube-client.dir/tube-swi.c.obj
                                                  CMakeFiles/tube-client.dir/copro-armnative.c.obj
                                                  CMakeFiles/tube-client.dir/framebuffer/swi_impl.c.obj
receiveString                                     CMakeFiles/tube-client.dir/tube-lib.c.obj
                                                  CMakeFiles/tube-client.dir/tube-swi.c.obj
receiveWord                                       CMakeFiles/tube-client.dir/tube-lib.c.obj
                                                  CMakeFiles/tube-client.dir/tube-swi.c.obj
regs                                              CMakeFiles/tube-client.dir/cpu80186/cpu80186.c.obj
reset                                             CMakeFiles/tube-client.dir/cpu80186/cpu80186.c.obj
                                                  CMakeFiles/tube-client.dir/copro-80186.c.obj
reset_performance_counters                        CMakeFiles/tube-client.dir/performance.c.obj
                                                  CMakeFiles/tube-client.dir/tube-ula.c.obj
saa5050                                           CMakeFiles/tube-client.dir/framebuffer/fonts.c.obj
saa5051                                           CMakeFiles/tube-client.dir/framebuffer/fonts.c.obj
saa5052                                           CMakeFiles/tube-client.dir/framebuffer/fonts.c.obj
saa5053                                           CMakeFiles/tube-client.dir/framebuffer/fonts.c.obj
saa5054                                           CMakeFiles/tube-client.dir/framebuffer/fonts.c.obj
saa5055                                           CMakeFiles/tube-client.dir/framebuffer/fonts.c.obj
saa5056                                           CMakeFiles/tube-client.dir/framebuffer/fonts.c.obj
saa5057                                           CMakeFiles/tube-client.dir/framebuffer/fonts.c.obj
segregs                                           CMakeFiles/tube-client.dir/cpu80186/cpu80186.c.obj
sendBlock                                         CMakeFiles/tube-client.dir/tube-lib.c.obj
                                                  CMakeFiles/tube-client.dir/tube-swi.c.obj
sendByte                                          CMakeFiles/tube-client.dir/tube-lib.c.obj
                                                  CMakeFiles/tube-client.dir/tube-swi.c.obj
                                                  CMakeFiles/tube-client.dir/copro-armnative.c.obj
                                                  CMakeFiles/tube-client.dir/framebuffer/swi_impl.c.obj
sendString                                        CMakeFiles/tube-client.dir/tube-lib.c.obj
                                                  CMakeFiles/tube-client.dir/copro-armnative.c.obj
sendStringWithoutTerminator                       CMakeFiles/tube-client.dir/tube-lib.c.obj
                                                  CMakeFiles/tube-client.dir/tube-swi.c.obj
sendWord                                          CMakeFiles/tube-client.dir/tube-lib.c.obj
                                                  CMakeFiles/tube-client.dir/tube-swi.c.obj
setTubeLibDebug                                   CMakeFiles/tube-client.dir/tube-lib.c.obj
set_a                                             CMakeFiles/tube-client.dir/mc6809nc/mc6809.c.obj
set_b                                             CMakeFiles/tube-client.dir/mc6809nc/mc6809.c.obj
set_cc                                            CMakeFiles/tube-client.dir/mc6809nc/mc6809.c.obj
set_d                                             CMakeFiles/tube-client.dir/mc6809nc/mc6809.c.obj
set_dp                                            CMakeFiles/tube-client.dir/mc6809nc/mc6809.c.obj
set_ignore_transfer                               CMakeFiles/tube-client.dir/tube-isr.c.obj
                                                  CMakeFiles/tube-client.dir/copro-armnative.c.obj
set_pc                                            CMakeFiles/tube-client.dir/mc6809nc/mc6809.c.obj
set_s                                             CMakeFiles/tube-client.dir/mc6809nc/mc6809.c.obj
set_u                                             CMakeFiles/tube-client.dir/mc6809nc/mc6809.c.obj
set_x                                             CMakeFiles/tube-client.dir/mc6809nc/mc6809.c.obj
set_y                                             CMakeFiles/tube-client.dir/mc6809nc/mc6809.c.obj
setjmp                                            /usr/lib/gcc/arm-none-eabi/11.2.0/../../../../arm-none-eabi/lib/thumb/v7+fp/hard/libc_nano.a(lib_a-setjmp.o)
                                                  CMakeFiles/tube-client.dir/copro-armnative.c.obj
                                                  CMakeFiles/tube-client.dir/pdp11/pdp11.c.obj
setlocale                                         /usr/lib/gcc/arm-none-eabi/11.2.0/../../../../arm-none-eabi/lib/thumb/v7+fp/hard/libc_nano.a(lib_a-locale.o)
signal                                            /usr/lib/gcc/arm-none-eabi/11.2.0/../../../../arm-none-eabi/lib/thumb/v7+fp/hard/libc_nano.a(lib_a-signal.o)
simz80_IRQ                                        CMakeFiles/tube-client.dir/yaze/simz80.c.obj
                                                  CMakeFiles/tube-client.dir/copro-z80.c.obj
simz80_NMI                                        CMakeFiles/tube-client.dir/yaze/simz80.c.obj
                                                  CMakeFiles/tube-client.dir/copro-z80.c.obj
simz80_execute                                    CMakeFiles/tube-client.dir/yaze/simz80.c.obj
                                                  CMakeFiles/tube-client.dir/copro-z80.c.obj
simz80_is_IRQ_enabled                             CMakeFiles/tube-client.dir/yaze/simz80.c.obj
                                                  CMakeFiles/tube-client.dir/copro-z80.c.obj
simz80_reset                                      CMakeFiles/tube-client.dir/yaze/simz80.c.obj
                                                  CMakeFiles/tube-client.dir/copro-z80.c.obj
siprintf                                          /usr/lib/gcc/arm-none-eabi/11.2.0/../../../../arm-none-eabi/lib/thumb/v7+fp/hard/libc_nano.a(lib_a-sprintf.o)
siscanf                                           /usr/lib/gcc/arm-none-eabi/11.2.0/../../../../arm-none-eabi/lib/thumb/v7+fp/hard/libc_nano.a(lib_a-sscanf.o)
sniprintf                                         /usr/lib/gcc/arm-none-eabi/11.2.0/../../../../arm-none-eabi/lib/thumb/v7+fp/hard/libc_nano.a(lib_a-snprintf.o)
snprintf                                          /usr/lib/gcc/arm-none-eabi/11.2.0/../../../../arm-none-eabi/lib/thumb/v7+fp/hard/libc_nano.a(lib_a-snprintf.o)
                                                  CMakeFiles/tube-client.dir/tube-commands.c.obj
                                                  CMakeFiles/tube-client.dir/NS32016/32016.c.obj
                                                  CMakeFiles/tube-client.dir/copro-65tubejit.c.obj
                                                  CMakeFiles/tube-client.dir/programs.c.obj
sp                                                CMakeFiles/tube-client.dir/NS32016/32016.c.obj
sprintf                                           /usr/lib/gcc/arm-none-eabi/11.2.0/../../../../arm-none-eabi/lib/thumb/v7+fp/hard/libc_nano.a(lib_a-sprintf.o)
                                                  CMakeFiles/tube-client.dir/tube-commands.c.obj
                                                  CMakeFiles/tube-client.dir/copro-armnative.c.obj
                                                  CMakeFiles/tube-client.dir/NS32016/NSDis.c.obj
                                                  CMakeFiles/tube-client.dir/cpu80186/i386dasm.c.obj
                                                  CMakeFiles/tube-client.dir/lib6502.c.obj
                                                  CMakeFiles/tube-client.dir/info.c.obj
                                                  CMakeFiles/tube-client.dir/framebuffer/framebuffer.c.obj
sqrt                                              /usr/lib/gcc/arm-none-eabi/11.2.0/../../../../arm-none-eabi/lib/thumb/v7+fp/hard/libm.a(lib_a-w_sqrt.o)
                                                  CMakeFiles/tube-client.dir/framebuffer/primitives.c.obj
sqrtf                                             /usr/lib/gcc/arm-none-eabi/11.2.0/../../../../arm-none-eabi/lib/thumb/v7+fp/hard/libm.a(lib_a-wf_sqrt.o)
                                                  CMakeFiles/tube-client.dir/framebuffer/primitives.c.obj
srandom                                           /usr/lib/gcc/arm-none-eabi/11.2.0/../../../../arm-none-eabi/lib/thumb/v7+fp/hard/libc_nano.a(lib_a-random.o)
sscanf                                            /usr/lib/gcc/arm-none-eabi/11.2.0/../../../../arm-none-eabi/lib/thumb/v7+fp/hard/libc_nano.a(lib_a-sscanf.o)
                                                  CMakeFiles/tube-client.dir/tube-commands.c.obj
stat                                              CMakeFiles/tube-client.dir/armc-cstubs.c.obj
store                                             CMakeFiles/tube-client.dir/copro-65tubeasm.S.obj
strcasecmp                                        /usr/lib/gcc/arm-none-eabi/11.2.0/../../../../arm-none-eabi/lib/thumb/v7+fp/hard/libc_nano.a(lib_a-strcasecmp.o)
                                                  CMakeFiles/tube-client.dir/framebuffer/fonts.c.obj
strchr                                            /usr/lib/gcc/arm-none-eabi/11.2.0/../../../../arm-none-eabi/lib/thumb/v7+fp/hard/libc_nano.a(lib_a-strchr.o)
                                                  CMakeFiles/tube-client.dir/info.c.obj
strcmp                                            /usr/lib/gcc/arm-none-eabi/11.2.0/../../../../arm-none-eabi/lib/thumb/v7+fp/hard/libc_nano.a(lib_a-strcmp.o)
                                                  /usr/lib/gcc/arm-none-eabi/11.2.0/../../../../arm-none-eabi/lib/thumb/v7+fp/hard/libc_nano.a(lib_a-locale.o)
                                                  CMakeFiles/tube-client.dir/cpu80186/i386dasm.c.obj
strcpy                                            /usr/lib/gcc/arm-none-eabi/11.2.0/../../../../arm-none-eabi/lib/thumb/v7+fp/hard/libc_nano.a(lib_a-strcpy.o)
                                                  CMakeFiles/tube-client.dir/programs.c.obj
strlen                                            /usr/lib/gcc/arm-none-eabi/11.2.0/../../../../arm-none-eabi/lib/thumb/v7+fp/hard/libc_nano.a(lib_a-strlen.o)
                                                  /usr/lib/gcc/arm-none-eabi/11.2.0/../../../../arm-none-eabi/lib/thumb/v7+fp/hard/libc_nano.a(lib_a-sscanf.o)
                                                  /usr/lib/gcc/arm-none-eabi/11.2.0/../../../../arm-none-eabi/lib/thumb/v7+fp/hard/libc_nano.a(lib_a-nano-vfprintf_float.o)
                                                  CMakeFiles/tube-client.dir/info.c.obj
                                                  CMakeFiles/tube-client.dir/framebuffer/swi_impl.c.obj
strncasecmp                                       /usr/lib/gcc/arm-none-eabi/11.2.0/../../../../arm-none-eabi/lib/thumb/v7+fp/hard/libc_nano.a(lib_a-strncasecmp.o)
                                                  CMakeFiles/tube-client.dir/info.c.obj
strncmp                                           /usr/lib/gcc/arm-none-eabi/11.2.0/../../../../arm-none-eabi/lib/thumb/v7+fp/hard/libc_nano.a(lib_a-strncmp.o)
                                                  CMakeFiles/tube-client.dir/framebuffer/fonts.c.obj
strncpy                                           /usr/lib/gcc/arm-none-eabi/11.2.0/../../../../arm-none-eabi/lib/thumb/v7+fp/hard/libc_nano.a(lib_a-strncpy.o)
                                                  CMakeFiles/tube-client.dir/tube-swi.c.obj
                                                  CMakeFiles/tube-client.dir/copro-65tubejit.c.obj
strtol                                            /usr/lib/gcc/arm-none-eabi/11.2.0/../../../../arm-none-eabi/lib/thumb/v7+fp/hard/libc_nano.a(lib_a-strtol.o)
                                                  /usr/lib/gcc/arm-none-eabi/11.2.0/../../../../arm-none-eabi/lib/thumb/v7+fp/hard/libc_nano.a(lib_a-atoi.o)
strtol_l                                          /usr/lib/gcc/arm-none-eabi/11.2.0/../../../../arm-none-eabi/lib/thumb/v7+fp/hard/libc_nano.a(lib_a-strtol.o)
strtoul                                           /usr/lib/gcc/arm-none-eabi/11.2.0/../../../../arm-none-eabi/lib/thumb/v7+fp/hard/libc_nano.a(lib_a-strtoul.o)
strtoul_l                                         /usr/lib/gcc/arm-none-eabi/11.2.0/../../../../arm-none-eabi/lib/thumb/v7+fp/hard/libc_nano.a(lib_a-strtoul.o)
swi_handler                                       CMakeFiles/tube-client.dir/tube-exception.c.obj
                                                  CMakeFiles/tube-client.dir/armc-start.S.obj
test_pin                                          CMakeFiles/tube-client.dir/tube-ula.c.obj
                                                  CMakeFiles/tube-client.dir/tube-client.c.obj
thumb2_decode_instruction                         CMakeFiles/tube-client.dir/darm/thumb2-decoder.c.obj
                                                  CMakeFiles/tube-client.dir/darm/thumb2.c.obj
thumb2_instr_labels                               CMakeFiles/tube-client.dir/darm/thumb2-tbl.c.obj
thumb2_instruction_strings                        CMakeFiles/tube-client.dir/darm/thumb2-tbl.c.obj
thumb_instr_labels                                CMakeFiles/tube-client.dir/darm/thumb-tbl.c.obj
                                                  CMakeFiles/tube-client.dir/darm/thumb.c.obj
thumb_instr_types                                 CMakeFiles/tube-client.dir/darm/thumb-tbl.c.obj
                                                  CMakeFiles/tube-client.dir/darm/thumb.c.obj
times                                             CMakeFiles/tube-client.dir/armc-cstubs.c.obj
tt                                                CMakeFiles/tube-client.dir/framebuffer/teletext.c.obj
tt_get_screen_mode                                CMakeFiles/tube-client.dir/framebuffer/teletext.c.obj
                                                  CMakeFiles/tube-client.dir/framebuffer/screen_modes.c.obj
tubeRead                                          CMakeFiles/tube-client.dir/tube-lib.c.obj
                                                  CMakeFiles/tube-client.dir/tube-isr.c.obj
tubeWrite                                         CMakeFiles/tube-client.dir/tube-lib.c.obj
                                                  CMakeFiles/tube-client.dir/tube-isr.c.obj
tube_ack_nmi                                      CMakeFiles/tube-client.dir/tube-ula.c.obj
                                                  CMakeFiles/tube-client.dir/copro-pdp11.c.obj
                                                  CMakeFiles/tube-client.dir/65816/65816.c.obj
                                                  CMakeFiles/tube-client.dir/copro-mc6809nc.c.obj
                                                  CMakeFiles/tube-client.dir/copro-z80.c.obj
                                                  CMakeFiles/tube-client.dir/NS32016/32016.c.obj
                                                  CMakeFiles/tube-client.dir/copro-arm2.c.obj
                                                  CMakeFiles/tube-client.dir/copro-80186.c.obj
                                                  CMakeFiles/tube-client.dir/copro-lib6502.c.obj
tube_address                                      CMakeFiles/tube-client.dir/tube-isr.c.obj
                                                  CMakeFiles/tube-client.dir/tube-swi.c.obj
tube_delay                                        CMakeFiles/tube-client.dir/tube-client.c.obj
                                                  CMakeFiles/tube-client.dir/tube-ula.c.obj
tube_disable_fast6502                             CMakeFiles/tube-client.dir/tube-ula.c.obj
                                                  CMakeFiles/tube-client.dir/copro-65tubeasm.S.obj
tube_enable_fast6502                              CMakeFiles/tube-client.dir/tube-ula.c.obj
                                                  CMakeFiles/tube-client.dir/copro-65tubeasm.S.obj
tube_init_hardware                                CMakeFiles/tube-client.dir/tube-ula.c.obj
                                                  CMakeFiles/tube-client.dir/tube-client.c.obj
tube_io_handler                                   CMakeFiles/tube-client.dir/tube-ula.c.obj
                                                  CMakeFiles/tube-client.dir/copro-armnativeasm.S.obj
                                                  CMakeFiles/tube-client.dir/jit.S.obj
                                                  CMakeFiles/tube-client.dir/tube.S.obj
tube_irq                                          CMakeFiles/tube-client.dir/tube-ula.c.obj
                                                  CMakeFiles/tube-client.dir/pdp11/pdp11.c.obj
                                                  CMakeFiles/tube-client.dir/copro-pdp11.c.obj
                                                  CMakeFiles/tube-client.dir/copro-65816.c.obj
                                                  CMakeFiles/tube-client.dir/65816/65816.c.obj
                                                  CMakeFiles/tube-client.dir/f100/f100.c.obj
                                                  CMakeFiles/tube-client.dir/copro-f100.c.obj
                                                  CMakeFiles/tube-client.dir/opc7/opc7.c.obj
                                                  CMakeFiles/tube-client.dir/copro-opc7.c.obj
                                                  CMakeFiles/tube-client.dir/opc6/opc6.c.obj
                                                  CMakeFiles/tube-client.dir/copro-opc6.c.obj
                                                  CMakeFiles/tube-client.dir/opc5ls/opc5ls.c.obj
                                                  CMakeFiles/tube-client.dir/copro-opc5ls.c.obj
                                                  CMakeFiles/tube-client.dir/mc6809nc/mc6809.c.obj
                                                  CMakeFiles/tube-client.dir/copro-mc6809nc.c.obj
                                                  CMakeFiles/tube-client.dir/yaze/simz80.c.obj
                                                  CMakeFiles/tube-client.dir/copro-z80.c.obj
                                                  CMakeFiles/tube-client.dir/copro-32016.c.obj
                                                  CMakeFiles/tube-client.dir/NS32016/32016.c.obj
                                                  CMakeFiles/tube-client.dir/mame/arm.c.obj
                                                  CMakeFiles/tube-client.dir/copro-arm2.c.obj
                                                  CMakeFiles/tube-client.dir/cpu80186/cpu80186.c.obj
                                                  CMakeFiles/tube-client.dir/copro-80186.c.obj
                                                  CMakeFiles/tube-client.dir/lib6502.c.obj
                                                  CMakeFiles/tube-client.dir/copro-lib6502.c.obj
                                                  CMakeFiles/tube-client.dir/jit.S.obj
                                                  CMakeFiles/tube-client.dir/copro-65tubeasm.S.obj
                                                  CMakeFiles/tube-client.dir/tube.S.obj
                                                  CMakeFiles/tube-client.dir/tube-client.c.obj
tube_is_rst_active                                CMakeFiles/tube-client.dir/tube-ula.c.obj
                                                  CMakeFiles/tube-client.dir/tube-exception.c.obj
tube_log_performance_counters                     CMakeFiles/tube-client.dir/tube-ula.c.obj
                                                  CMakeFiles/tube-client.dir/copro-armnative.c.obj
                                                  CMakeFiles/tube-client.dir/copro-pdp11.c.obj
                                                  CMakeFiles/tube-client.dir/copro-65816.c.obj
                                                  CMakeFiles/tube-client.dir/copro-f100.c.obj
                                                  CMakeFiles/tube-client.dir/copro-opc7.c.obj
                                                  CMakeFiles/tube-client.dir/copro-opc6.c.obj
                                                  CMakeFiles/tube-client.dir/copro-opc5ls.c.obj
                                                  CMakeFiles/tube-client.dir/copro-mc6809nc.c.obj
                                                  CMakeFiles/tube-client.dir/copro-z80.c.obj
                                                  CMakeFiles/tube-client.dir/copro-32016.c.obj
                                                  CMakeFiles/tube-client.dir/copro-arm2.c.obj
                                                  CMakeFiles/tube-client.dir/copro-80186.c.obj
                                                  CMakeFiles/tube-client.dir/copro-lib6502.c.obj
                                                  CMakeFiles/tube-client.dir/copro-65tubejit.c.obj
                                                  CMakeFiles/tube-client.dir/copro-65tube.c.obj
tube_parasite_read                                CMakeFiles/tube-client.dir/tube-ula.c.obj
                                                  CMakeFiles/tube-client.dir/tube-lib.c.obj
                                                  CMakeFiles/tube-client.dir/copro-pdp11.c.obj
                                                  CMakeFiles/tube-client.dir/65816/65816.c.obj
                                                  CMakeFiles/tube-client.dir/copro-f100.c.obj
                                                  CMakeFiles/tube-client.dir/copro-opc7.c.obj
                                                  CMakeFiles/tube-client.dir/copro-opc6.c.obj
                                                  CMakeFiles/tube-client.dir/copro-opc5ls.c.obj
                                                  CMakeFiles/tube-client.dir/copro-mc6809nc.c.obj
                                                  CMakeFiles/tube-client.dir/copro-z80.c.obj
                                                  CMakeFiles/tube-client.dir/NS32016/mem32016.c.obj
                                                  CMakeFiles/tube-client.dir/copro-arm2.c.obj
                                                  CMakeFiles/tube-client.dir/copro-80186.c.obj
                                                  CMakeFiles/tube-client.dir/copro-lib6502.c.obj
                                                  CMakeFiles/tube-client.dir/jit.S.obj
                                                  CMakeFiles/tube-client.dir/copro-65tubeasm.S.obj
tube_parasite_write                               CMakeFiles/tube-client.dir/tube-ula.c.obj
                                                  CMakeFiles/tube-client.dir/tube-lib.c.obj
                                                  CMakeFiles/tube-client.dir/copro-pdp11.c.obj
                                                  CMakeFiles/tube-client.dir/65816/65816.c.obj
                                                  CMakeFiles/tube-client.dir/copro-f100.c.obj
                                                  CMakeFiles/tube-client.dir/copro-opc7.c.obj
                                                  CMakeFiles/tube-client.dir/copro-opc6.c.obj
                                                  CMakeFiles/tube-client.dir/copro-opc5ls.c.obj
                                                  CMakeFiles/tube-client.dir/copro-mc6809nc.c.obj
                                                  CMakeFiles/tube-client.dir/copro-z80.c.obj
                                                  CMakeFiles/tube-client.dir/NS32016/mem32016.c.obj
                                                  CMakeFiles/tube-client.dir/copro-arm2.c.obj
                                                  CMakeFiles/tube-client.dir/copro-80186.c.obj
                                                  CMakeFiles/tube-client.dir/copro-lib6502.c.obj
tube_parasite_write_banksel                       CMakeFiles/tube-client.dir/tube-ula.c.obj
                                                  CMakeFiles/tube-client.dir/jit.S.obj
                                                  CMakeFiles/tube-client.dir/copro-65tubeasm.S.obj
tube_reset_performance_counters                   CMakeFiles/tube-client.dir/tube-ula.c.obj
                                                  CMakeFiles/tube-client.dir/copro-armnative.c.obj
                                                  CMakeFiles/tube-client.dir/copro-pdp11.c.obj
                                                  CMakeFiles/tube-client.dir/copro-65816.c.obj
                                                  CMakeFiles/tube-client.dir/copro-f100.c.obj
                                                  CMakeFiles/tube-client.dir/copro-opc7.c.obj
                                                  CMakeFiles/tube-client.dir/copro-opc6.c.obj
                                                  CMakeFiles/tube-client.dir/copro-opc5ls.c.obj
                                                  CMakeFiles/tube-client.dir/copro-mc6809nc.c.obj
                                                  CMakeFiles/tube-client.dir/copro-z80.c.obj
                                                  CMakeFiles/tube-client.dir/copro-32016.c.obj
                                                  CMakeFiles/tube-client.dir/copro-arm2.c.obj
                                                  CMakeFiles/tube-client.dir/copro-80186.c.obj
                                                  CMakeFiles/tube-client.dir/copro-lib6502.c.obj
                                                  CMakeFiles/tube-client.dir/copro-65tubejit.c.obj
                                                  CMakeFiles/tube-client.dir/copro-65tube.c.obj
tube_wait_for_rst_release                         CMakeFiles/tube-client.dir/tube-ula.c.obj
                                                  CMakeFiles/tube-client.dir/copro-armnative.c.obj
                                                  CMakeFiles/tube-client.dir/copro-pdp11.c.obj
                                                  CMakeFiles/tube-client.dir/copro-65816.c.obj
                                                  CMakeFiles/tube-client.dir/copro-f100.c.obj
                                                  CMakeFiles/tube-client.dir/copro-opc7.c.obj
                                                  CMakeFiles/tube-client.dir/copro-opc6.c.obj
                                                  CMakeFiles/tube-client.dir/copro-opc5ls.c.obj
                                                  CMakeFiles/tube-client.dir/copro-mc6809nc.c.obj
                                                  CMakeFiles/tube-client.dir/copro-z80.c.obj
                                                  CMakeFiles/tube-client.dir/copro-32016.c.obj
                                                  CMakeFiles/tube-client.dir/copro-arm2.c.obj
                                                  CMakeFiles/tube-client.dir/copro-80186.c.obj
                                                  CMakeFiles/tube-client.dir/copro-lib6502.c.obj
                                                  CMakeFiles/tube-client.dir/copro-65tubejit.c.obj
                                                  CMakeFiles/tube-client.dir/copro-65tube.c.obj
tubecycles                                        CMakeFiles/tube-client.dir/copro-32016.c.obj
                                                  CMakeFiles/tube-client.dir/NS32016/32016.c.obj
tuberom_6502_extern_1_10                          CMakeFiles/tube-client.dir/tuberom_6502.c.obj
                                                  CMakeFiles/tube-client.dir/copro-lib6502.c.obj
                                                  CMakeFiles/tube-client.dir/copro-65tubejit.c.obj
                                                  CMakeFiles/tube-client.dir/copro-65tube.c.obj
tuberom_6502_intern_1_10                          CMakeFiles/tube-client.dir/tuberom_6502.c.obj
                                                  CMakeFiles/tube-client.dir/copro-65tubejit.c.obj
                                                  CMakeFiles/tube-client.dir/copro-65tube.c.obj
tuberom_6502_intern_1_12_jgh                      CMakeFiles/tube-client.dir/tuberom_6502.c.obj
tuberom_6502_turbo                                CMakeFiles/tube-client.dir/tuberom_6502_turbo.c.obj
                                                  CMakeFiles/tube-client.dir/copro-lib6502.c.obj
tuberom_6809_jgh_1_0                              CMakeFiles/tube-client.dir/tuberom_6809.c.obj
                                                  CMakeFiles/tube-client.dir/copro-mc6809nc.c.obj
tuberom_arm_v100                                  CMakeFiles/tube-client.dir/tuberom_arm.c.obj
                                                  CMakeFiles/tube-client.dir/copro-arm2.c.obj
tuberom_arm_v101                                  CMakeFiles/tube-client.dir/tuberom_arm.c.obj
tuberom_dominic65816_bin                          CMakeFiles/tube-client.dir/65816/tuberom_dominic65816.c.obj
                                                  CMakeFiles/tube-client.dir/copro-65816.c.obj
tuberom_dominic65816_bin_len                      CMakeFiles/tube-client.dir/65816/tuberom_dominic65816.c.obj
tuberom_f100                                      CMakeFiles/tube-client.dir/f100/tuberom.c.obj
                                                  CMakeFiles/tube-client.dir/copro-f100.c.obj
tuberom_f100_high                                 CMakeFiles/tube-client.dir/f100/tuberom.c.obj
                                                  CMakeFiles/tube-client.dir/copro-f100.c.obj
tuberom_opc5ls                                    CMakeFiles/tube-client.dir/opc5ls/tuberom.c.obj
                                                  CMakeFiles/tube-client.dir/copro-opc5ls.c.obj
tuberom_opc6                                      CMakeFiles/tube-client.dir/opc6/tuberom.c.obj
                                                  CMakeFiles/tube-client.dir/copro-opc6.c.obj
tuberom_opc7                                      CMakeFiles/tube-client.dir/opc7/tuberom.c.obj
                                                  CMakeFiles/tube-client.dir/copro-opc7.c.obj
tuberom_pdp11                                     CMakeFiles/tube-client.dir/pdp11/tuberom.c.obj
                                                  CMakeFiles/tube-client.dir/copro-pdp11.c.obj
tuberom_reco65816_bin                             CMakeFiles/tube-client.dir/65816/tuberom_reco65816.c.obj
                                                  CMakeFiles/tube-client.dir/copro-65816.c.obj
tubevc_doorbell_asm                               CMakeFiles/tube-client.dir/tubevc.c.obj
                                                  CMakeFiles/tube-client.dir/tube-ula.c.obj
tubevc_doorbell_asm_len                           CMakeFiles/tube-client.dir/tubevc.c.obj
tubevc_mailbox_asm                                CMakeFiles/tube-client.dir/tubevc.c.obj
tubevc_mailbox_asm_len                            CMakeFiles/tube-client.dir/tubevc.c.obj
turbo                                             CMakeFiles/tube-client.dir/copro-lib6502.c.obj
                                                  CMakeFiles/tube-client.dir/lib6502.c.obj
type_bits_instr_lookup                            CMakeFiles/tube-client.dir/darm/armv7-tbl.c.obj
                                                  CMakeFiles/tube-client.dir/darm/armv7.c.obj
type_brnchmisc_instr_lookup                       CMakeFiles/tube-client.dir/darm/armv7-tbl.c.obj
                                                  CMakeFiles/tube-client.dir/darm/armv7.c.obj
type_extend_instr_lookup                          CMakeFiles/tube-client.dir/darm/thumb-tbl.c.obj
                                                  CMakeFiles/tube-client.dir/darm/thumb.c.obj
type_gpi_instr_lookup                             CMakeFiles/tube-client.dir/darm/thumb-tbl.c.obj
                                                  CMakeFiles/tube-client.dir/darm/thumb.c.obj
type_hints_instr_lookup                           CMakeFiles/tube-client.dir/darm/thumb-tbl.c.obj
                                                  CMakeFiles/tube-client.dir/darm/thumb.c.obj
type_mul_instr_lookup                             CMakeFiles/tube-client.dir/darm/armv7-tbl.c.obj
                                                  CMakeFiles/tube-client.dir/darm/armv7.c.obj
type_opless_instr_lookup                          CMakeFiles/tube-client.dir/darm/armv7-tbl.c.obj
                                                  CMakeFiles/tube-client.dir/darm/armv7.c.obj
type_pas_instr_lookup                             CMakeFiles/tube-client.dir/darm/armv7-tbl.c.obj
                                                  CMakeFiles/tube-client.dir/darm/armv7.c.obj
type_pusr_instr_lookup                            CMakeFiles/tube-client.dir/darm/armv7-tbl.c.obj
                                                  CMakeFiles/tube-client.dir/darm/armv7.c.obj
type_rev_instr_lookup                             CMakeFiles/tube-client.dir/darm/thumb-tbl.c.obj
                                                  CMakeFiles/tube-client.dir/darm/thumb.c.obj
type_sat_instr_lookup                             CMakeFiles/tube-client.dir/darm/armv7-tbl.c.obj
                                                  CMakeFiles/tube-client.dir/darm/armv7.c.obj
type_shift_instr_lookup                           CMakeFiles/tube-client.dir/darm/armv7-tbl.c.obj
                                                  CMakeFiles/tube-client.dir/darm/armv7.c.obj
type_stack0_instr_lookup                          CMakeFiles/tube-client.dir/darm/armv7-tbl.c.obj
                                                  CMakeFiles/tube-client.dir/darm/armv7.c.obj
type_stack1_instr_lookup                          CMakeFiles/tube-client.dir/darm/armv7-tbl.c.obj
                                                  CMakeFiles/tube-client.dir/darm/armv7.c.obj
type_stack2_instr_lookup                          CMakeFiles/tube-client.dir/darm/armv7-tbl.c.obj
                                                  CMakeFiles/tube-client.dir/darm/armv7.c.obj
type_sync_instr_lookup                            CMakeFiles/tube-client.dir/darm/armv7-tbl.c.obj
                                                  CMakeFiles/tube-client.dir/darm/armv7.c.obj
type_uncond2_instr_lookup                         CMakeFiles/tube-client.dir/darm/armv7-tbl.c.obj
                                                  CMakeFiles/tube-client.dir/darm/armv7.c.obj
undefined_instruction_handler                     CMakeFiles/tube-client.dir/tube-exception.c.obj
                                                  CMakeFiles/tube-client.dir/armc-start.S.obj
ungetc                                            /usr/lib/gcc/arm-none-eabi/11.2.0/../../../../arm-none-eabi/lib/thumb/v7+fp/hard/libc_nano.a(lib_a-ungetc.o)
unlink                                            CMakeFiles/tube-client.dir/armc-cstubs.c.obj
updateCarry                                       CMakeFiles/tube-client.dir/tube-swi.c.obj
                                                  CMakeFiles/tube-client.dir/framebuffer/swi_impl.c.obj
user_exec_fn                                      CMakeFiles/tube-client.dir/tube-swi.c.obj
                                                  CMakeFiles/tube-client.dir/tube-commands.c.obj
                                                  CMakeFiles/tube-client.dir/copro-armnative.c.obj
user_exec_raw                                     CMakeFiles/tube-client.dir/tube-swi.c.obj
v3d                                               CMakeFiles/tube-client.dir/framebuffer/v3d.c.obj
v3d_close                                         CMakeFiles/tube-client.dir/framebuffer/v3d.c.obj
v3d_draw_triangle                                 CMakeFiles/tube-client.dir/framebuffer/v3d.c.obj
v3d_initialize                                    CMakeFiles/tube-client.dir/framebuffer/v3d.c.obj
v3d_test                                          CMakeFiles/tube-client.dir/framebuffer/v3d.c.obj
vfiprintf                                         /usr/lib/gcc/arm-none-eabi/11.2.0/../../../../arm-none-eabi/lib/thumb/v7+fp/hard/libc_nano.a(lib_a-nano-vfprintf.o)
vfprintf                                          /usr/lib/gcc/arm-none-eabi/11.2.0/../../../../arm-none-eabi/lib/thumb/v7+fp/hard/libc_nano.a(lib_a-nano-vfprintf.o)
viprintf                                          /usr/lib/gcc/arm-none-eabi/11.2.0/../../../../arm-none-eabi/lib/thumb/v7+fp/hard/libc_nano.a(lib_a-vprintf.o)
vprintf                                           /usr/lib/gcc/arm-none-eabi/11.2.0/../../../../arm-none-eabi/lib/thumb/v7+fp/hard/libc_nano.a(lib_a-vprintf.o)
                                                  CMakeFiles/tube-client.dir/mc6809nc/mc6809.c.obj
                                                  CMakeFiles/tube-client.dir/logging.c.obj
vsniprintf                                        /usr/lib/gcc/arm-none-eabi/11.2.0/../../../../arm-none-eabi/lib/thumb/v7+fp/hard/libc_nano.a(lib_a-vsnprintf.o)
vsnprintf                                         /usr/lib/gcc/arm-none-eabi/11.2.0/../../../../arm-none-eabi/lib/thumb/v7+fp/hard/libc_nano.a(lib_a-vsnprintf.o)
                                                  CMakeFiles/tube-client.dir/NS32016/NSDis.c.obj
                                                  CMakeFiles/tube-client.dir/NS32016/32016.c.obj
w65816_close                                      CMakeFiles/tube-client.dir/65816/65816.c.obj
w65816_exec                                       CMakeFiles/tube-client.dir/65816/65816.c.obj
                                                  CMakeFiles/tube-client.dir/copro-65816.c.obj
w65816_init                                       CMakeFiles/tube-client.dir/65816/65816.c.obj
                                                  CMakeFiles/tube-client.dir/copro-65816.c.obj
w65816_reset                                      CMakeFiles/tube-client.dir/65816/65816.c.obj
                                                  CMakeFiles/tube-client.dir/copro-65816.c.obj
w65816p                                           CMakeFiles/tube-client.dir/65816/65816.c.obj
wait                                              CMakeFiles/tube-client.dir/armc-cstubs.c.obj
write86                                           CMakeFiles/tube-client.dir/cpu80186/mem80186.c.obj
                                                  CMakeFiles/tube-client.dir/cpu80186/cpu80186.c.obj
write_Arbitary                                    CMakeFiles/tube-client.dir/NS32016/mem32016.c.obj
                                                  CMakeFiles/tube-client.dir/NS32016/32016.c.obj
write_x16                                         CMakeFiles/tube-client.dir/NS32016/mem32016.c.obj
                                                  CMakeFiles/tube-client.dir/NS32016/32016.c.obj
write_x32                                         CMakeFiles/tube-client.dir/NS32016/mem32016.c.obj
                                                  CMakeFiles/tube-client.dir/NS32016/32016.c.obj
write_x64                                         CMakeFiles/tube-client.dir/NS32016/mem32016.c.obj
                                                  CMakeFiles/tube-client.dir/NS32016/32016.c.obj
write_x8                                          CMakeFiles/tube-client.dir/NS32016/mem32016.c.obj
                                                  CMakeFiles/tube-client.dir/NS32016/32016.c.obj
writew86                                          CMakeFiles/tube-client.dir/cpu80186/mem80186.c.obj
                                                  CMakeFiles/tube-client.dir/cpu80186/cpu80186.c.obj
